
lib_vl53l0x.elf:     file format elf32-littlearm

Sections:
Idx Name          Size      VMA       LMA       File off  Algn
  0 .isr_vector   000001c4  08000000  08000000  00010000  2**0
                  CONTENTS, ALLOC, LOAD, READONLY, DATA
  1 .text         000094dc  080001d0  080001d0  000101d0  2**4
                  CONTENTS, ALLOC, LOAD, READONLY, CODE
  2 .rodata       000006ac  080096ac  080096ac  000196ac  2**2
                  CONTENTS, ALLOC, LOAD, READONLY, DATA
  3 .ARM.extab    00000000  08009d58  08009d58  0002032c  2**0
                  CONTENTS
  4 .ARM          00000008  08009d58  08009d58  00019d58  2**2
                  CONTENTS, ALLOC, LOAD, READONLY, DATA
  5 .preinit_array 00000000  08009d60  08009d60  0002032c  2**0
                  CONTENTS, ALLOC, LOAD, DATA
  6 .init_array   00000004  08009d60  08009d60  00019d60  2**2
                  CONTENTS, ALLOC, LOAD, DATA
  7 .fini_array   00000004  08009d64  08009d64  00019d64  2**2
                  CONTENTS, ALLOC, LOAD, DATA
  8 .data         0000032c  20000000  08009d68  00020000  2**2
                  CONTENTS, ALLOC, LOAD, DATA
  9 .bss          00000108  2000032c  0800a094  0002032c  2**2
                  ALLOC
 10 ._user_heap_stack 00000604  20000434  0800a094  00020434  2**0
                  ALLOC
 11 .ARM.attributes 00000030  00000000  00000000  0002032c  2**0
                  CONTENTS, READONLY
 12 .debug_info   00017ab1  00000000  00000000  0002035c  2**0
                  CONTENTS, READONLY, DEBUGGING
 13 .debug_abbrev 0000299b  00000000  00000000  00037e0d  2**0
                  CONTENTS, READONLY, DEBUGGING
 14 .debug_aranges 00000f70  00000000  00000000  0003a7a8  2**3
                  CONTENTS, READONLY, DEBUGGING
 15 .debug_ranges 00000e40  00000000  00000000  0003b718  2**3
                  CONTENTS, READONLY, DEBUGGING
 16 .debug_macro  000247c9  00000000  00000000  0003c558  2**0
                  CONTENTS, READONLY, DEBUGGING
 17 .debug_line   0000eed6  00000000  00000000  00060d21  2**0
                  CONTENTS, READONLY, DEBUGGING
 18 .debug_str    000d2296  00000000  00000000  0006fbf7  2**0
                  CONTENTS, READONLY, DEBUGGING
 19 .comment      0000007b  00000000  00000000  00141e8d  2**0
                  CONTENTS, READONLY
 20 .debug_frame  00004794  00000000  00000000  00141f08  2**2
                  CONTENTS, READONLY, DEBUGGING

Disassembly of section .text:

080001d0 <__do_global_dtors_aux>:
 80001d0:	b510      	push	{r4, lr}
 80001d2:	4c05      	ldr	r4, [pc, #20]	; (80001e8 <__do_global_dtors_aux+0x18>)
 80001d4:	7823      	ldrb	r3, [r4, #0]
 80001d6:	b933      	cbnz	r3, 80001e6 <__do_global_dtors_aux+0x16>
 80001d8:	4b04      	ldr	r3, [pc, #16]	; (80001ec <__do_global_dtors_aux+0x1c>)
 80001da:	b113      	cbz	r3, 80001e2 <__do_global_dtors_aux+0x12>
 80001dc:	4804      	ldr	r0, [pc, #16]	; (80001f0 <__do_global_dtors_aux+0x20>)
 80001de:	f3af 8000 	nop.w
 80001e2:	2301      	movs	r3, #1
 80001e4:	7023      	strb	r3, [r4, #0]
 80001e6:	bd10      	pop	{r4, pc}
 80001e8:	2000032c 	.word	0x2000032c
 80001ec:	00000000 	.word	0x00000000
 80001f0:	08009694 	.word	0x08009694

080001f4 <frame_dummy>:
 80001f4:	b508      	push	{r3, lr}
 80001f6:	4b03      	ldr	r3, [pc, #12]	; (8000204 <frame_dummy+0x10>)
 80001f8:	b11b      	cbz	r3, 8000202 <frame_dummy+0xe>
 80001fa:	4903      	ldr	r1, [pc, #12]	; (8000208 <frame_dummy+0x14>)
 80001fc:	4803      	ldr	r0, [pc, #12]	; (800020c <frame_dummy+0x18>)
 80001fe:	f3af 8000 	nop.w
 8000202:	bd08      	pop	{r3, pc}
 8000204:	00000000 	.word	0x00000000
 8000208:	20000330 	.word	0x20000330
 800020c:	08009694 	.word	0x08009694

08000210 <memchr>:
 8000210:	f001 01ff 	and.w	r1, r1, #255	; 0xff
 8000214:	2a10      	cmp	r2, #16
 8000216:	db2b      	blt.n	8000270 <memchr+0x60>
 8000218:	f010 0f07 	tst.w	r0, #7
 800021c:	d008      	beq.n	8000230 <memchr+0x20>
 800021e:	f810 3b01 	ldrb.w	r3, [r0], #1
 8000222:	3a01      	subs	r2, #1
 8000224:	428b      	cmp	r3, r1
 8000226:	d02d      	beq.n	8000284 <memchr+0x74>
 8000228:	f010 0f07 	tst.w	r0, #7
 800022c:	b342      	cbz	r2, 8000280 <memchr+0x70>
 800022e:	d1f6      	bne.n	800021e <memchr+0xe>
 8000230:	b4f0      	push	{r4, r5, r6, r7}
 8000232:	ea41 2101 	orr.w	r1, r1, r1, lsl #8
 8000236:	ea41 4101 	orr.w	r1, r1, r1, lsl #16
 800023a:	f022 0407 	bic.w	r4, r2, #7
 800023e:	f07f 0700 	mvns.w	r7, #0
 8000242:	2300      	movs	r3, #0
 8000244:	e8f0 5602 	ldrd	r5, r6, [r0], #8
 8000248:	3c08      	subs	r4, #8
 800024a:	ea85 0501 	eor.w	r5, r5, r1
 800024e:	ea86 0601 	eor.w	r6, r6, r1
 8000252:	fa85 f547 	uadd8	r5, r5, r7
 8000256:	faa3 f587 	sel	r5, r3, r7
 800025a:	fa86 f647 	uadd8	r6, r6, r7
 800025e:	faa5 f687 	sel	r6, r5, r7
 8000262:	b98e      	cbnz	r6, 8000288 <memchr+0x78>
 8000264:	d1ee      	bne.n	8000244 <memchr+0x34>
 8000266:	bcf0      	pop	{r4, r5, r6, r7}
 8000268:	f001 01ff 	and.w	r1, r1, #255	; 0xff
 800026c:	f002 0207 	and.w	r2, r2, #7
 8000270:	b132      	cbz	r2, 8000280 <memchr+0x70>
 8000272:	f810 3b01 	ldrb.w	r3, [r0], #1
 8000276:	3a01      	subs	r2, #1
 8000278:	ea83 0301 	eor.w	r3, r3, r1
 800027c:	b113      	cbz	r3, 8000284 <memchr+0x74>
 800027e:	d1f8      	bne.n	8000272 <memchr+0x62>
 8000280:	2000      	movs	r0, #0
 8000282:	4770      	bx	lr
 8000284:	3801      	subs	r0, #1
 8000286:	4770      	bx	lr
 8000288:	2d00      	cmp	r5, #0
 800028a:	bf06      	itte	eq
 800028c:	4635      	moveq	r5, r6
 800028e:	3803      	subeq	r0, #3
 8000290:	3807      	subne	r0, #7
 8000292:	f015 0f01 	tst.w	r5, #1
 8000296:	d107      	bne.n	80002a8 <memchr+0x98>
 8000298:	3001      	adds	r0, #1
 800029a:	f415 7f80 	tst.w	r5, #256	; 0x100
 800029e:	bf02      	ittt	eq
 80002a0:	3001      	addeq	r0, #1
 80002a2:	f415 3fc0 	tsteq.w	r5, #98304	; 0x18000
 80002a6:	3001      	addeq	r0, #1
 80002a8:	bcf0      	pop	{r4, r5, r6, r7}
 80002aa:	3801      	subs	r0, #1
 80002ac:	4770      	bx	lr
 80002ae:	bf00      	nop

080002b0 <__aeabi_uldivmod>:
 80002b0:	b953      	cbnz	r3, 80002c8 <__aeabi_uldivmod+0x18>
 80002b2:	b94a      	cbnz	r2, 80002c8 <__aeabi_uldivmod+0x18>
 80002b4:	2900      	cmp	r1, #0
 80002b6:	bf08      	it	eq
 80002b8:	2800      	cmpeq	r0, #0
 80002ba:	bf1c      	itt	ne
 80002bc:	f04f 31ff 	movne.w	r1, #4294967295
 80002c0:	f04f 30ff 	movne.w	r0, #4294967295
 80002c4:	f000 b972 	b.w	80005ac <__aeabi_idiv0>
 80002c8:	f1ad 0c08 	sub.w	ip, sp, #8
 80002cc:	e96d ce04 	strd	ip, lr, [sp, #-16]!
 80002d0:	f000 f806 	bl	80002e0 <__udivmoddi4>
 80002d4:	f8dd e004 	ldr.w	lr, [sp, #4]
 80002d8:	e9dd 2302 	ldrd	r2, r3, [sp, #8]
 80002dc:	b004      	add	sp, #16
 80002de:	4770      	bx	lr

080002e0 <__udivmoddi4>:
 80002e0:	e92d 47f0 	stmdb	sp!, {r4, r5, r6, r7, r8, r9, sl, lr}
 80002e4:	9e08      	ldr	r6, [sp, #32]
 80002e6:	4604      	mov	r4, r0
 80002e8:	4688      	mov	r8, r1
 80002ea:	2b00      	cmp	r3, #0
 80002ec:	d14b      	bne.n	8000386 <__udivmoddi4+0xa6>
 80002ee:	428a      	cmp	r2, r1
 80002f0:	4615      	mov	r5, r2
 80002f2:	d967      	bls.n	80003c4 <__udivmoddi4+0xe4>
 80002f4:	fab2 f282 	clz	r2, r2
 80002f8:	b14a      	cbz	r2, 800030e <__udivmoddi4+0x2e>
 80002fa:	f1c2 0720 	rsb	r7, r2, #32
 80002fe:	fa01 f302 	lsl.w	r3, r1, r2
 8000302:	fa20 f707 	lsr.w	r7, r0, r7
 8000306:	4095      	lsls	r5, r2
 8000308:	ea47 0803 	orr.w	r8, r7, r3
 800030c:	4094      	lsls	r4, r2
 800030e:	ea4f 4e15 	mov.w	lr, r5, lsr #16
 8000312:	0c23      	lsrs	r3, r4, #16
 8000314:	fbb8 f7fe 	udiv	r7, r8, lr
 8000318:	fa1f fc85 	uxth.w	ip, r5
 800031c:	fb0e 8817 	mls	r8, lr, r7, r8
 8000320:	ea43 4308 	orr.w	r3, r3, r8, lsl #16
 8000324:	fb07 f10c 	mul.w	r1, r7, ip
 8000328:	4299      	cmp	r1, r3
 800032a:	d909      	bls.n	8000340 <__udivmoddi4+0x60>
 800032c:	18eb      	adds	r3, r5, r3
 800032e:	f107 30ff 	add.w	r0, r7, #4294967295
 8000332:	f080 811b 	bcs.w	800056c <__udivmoddi4+0x28c>
 8000336:	4299      	cmp	r1, r3
 8000338:	f240 8118 	bls.w	800056c <__udivmoddi4+0x28c>
 800033c:	3f02      	subs	r7, #2
 800033e:	442b      	add	r3, r5
 8000340:	1a5b      	subs	r3, r3, r1
 8000342:	b2a4      	uxth	r4, r4
 8000344:	fbb3 f0fe 	udiv	r0, r3, lr
 8000348:	fb0e 3310 	mls	r3, lr, r0, r3
 800034c:	ea44 4403 	orr.w	r4, r4, r3, lsl #16
 8000350:	fb00 fc0c 	mul.w	ip, r0, ip
 8000354:	45a4      	cmp	ip, r4
 8000356:	d909      	bls.n	800036c <__udivmoddi4+0x8c>
 8000358:	192c      	adds	r4, r5, r4
 800035a:	f100 33ff 	add.w	r3, r0, #4294967295
 800035e:	f080 8107 	bcs.w	8000570 <__udivmoddi4+0x290>
 8000362:	45a4      	cmp	ip, r4
 8000364:	f240 8104 	bls.w	8000570 <__udivmoddi4+0x290>
 8000368:	3802      	subs	r0, #2
 800036a:	442c      	add	r4, r5
 800036c:	ea40 4007 	orr.w	r0, r0, r7, lsl #16
 8000370:	eba4 040c 	sub.w	r4, r4, ip
 8000374:	2700      	movs	r7, #0
 8000376:	b11e      	cbz	r6, 8000380 <__udivmoddi4+0xa0>
 8000378:	40d4      	lsrs	r4, r2
 800037a:	2300      	movs	r3, #0
 800037c:	e9c6 4300 	strd	r4, r3, [r6]
 8000380:	4639      	mov	r1, r7
 8000382:	e8bd 87f0 	ldmia.w	sp!, {r4, r5, r6, r7, r8, r9, sl, pc}
 8000386:	428b      	cmp	r3, r1
 8000388:	d909      	bls.n	800039e <__udivmoddi4+0xbe>
 800038a:	2e00      	cmp	r6, #0
 800038c:	f000 80eb 	beq.w	8000566 <__udivmoddi4+0x286>
 8000390:	2700      	movs	r7, #0
 8000392:	e9c6 0100 	strd	r0, r1, [r6]
 8000396:	4638      	mov	r0, r7
 8000398:	4639      	mov	r1, r7
 800039a:	e8bd 87f0 	ldmia.w	sp!, {r4, r5, r6, r7, r8, r9, sl, pc}
 800039e:	fab3 f783 	clz	r7, r3
 80003a2:	2f00      	cmp	r7, #0
 80003a4:	d147      	bne.n	8000436 <__udivmoddi4+0x156>
 80003a6:	428b      	cmp	r3, r1
 80003a8:	d302      	bcc.n	80003b0 <__udivmoddi4+0xd0>
 80003aa:	4282      	cmp	r2, r0
 80003ac:	f200 80fa 	bhi.w	80005a4 <__udivmoddi4+0x2c4>
 80003b0:	1a84      	subs	r4, r0, r2
 80003b2:	eb61 0303 	sbc.w	r3, r1, r3
 80003b6:	2001      	movs	r0, #1
 80003b8:	4698      	mov	r8, r3
 80003ba:	2e00      	cmp	r6, #0
 80003bc:	d0e0      	beq.n	8000380 <__udivmoddi4+0xa0>
 80003be:	e9c6 4800 	strd	r4, r8, [r6]
 80003c2:	e7dd      	b.n	8000380 <__udivmoddi4+0xa0>
 80003c4:	b902      	cbnz	r2, 80003c8 <__udivmoddi4+0xe8>
 80003c6:	deff      	udf	#255	; 0xff
 80003c8:	fab2 f282 	clz	r2, r2
 80003cc:	2a00      	cmp	r2, #0
 80003ce:	f040 808f 	bne.w	80004f0 <__udivmoddi4+0x210>
 80003d2:	1b49      	subs	r1, r1, r5
 80003d4:	ea4f 4e15 	mov.w	lr, r5, lsr #16
 80003d8:	fa1f f885 	uxth.w	r8, r5
 80003dc:	2701      	movs	r7, #1
 80003de:	fbb1 fcfe 	udiv	ip, r1, lr
 80003e2:	0c23      	lsrs	r3, r4, #16
 80003e4:	fb0e 111c 	mls	r1, lr, ip, r1
 80003e8:	ea43 4301 	orr.w	r3, r3, r1, lsl #16
 80003ec:	fb08 f10c 	mul.w	r1, r8, ip
 80003f0:	4299      	cmp	r1, r3
 80003f2:	d907      	bls.n	8000404 <__udivmoddi4+0x124>
 80003f4:	18eb      	adds	r3, r5, r3
 80003f6:	f10c 30ff 	add.w	r0, ip, #4294967295
 80003fa:	d202      	bcs.n	8000402 <__udivmoddi4+0x122>
 80003fc:	4299      	cmp	r1, r3
 80003fe:	f200 80cd 	bhi.w	800059c <__udivmoddi4+0x2bc>
 8000402:	4684      	mov	ip, r0
 8000404:	1a59      	subs	r1, r3, r1
 8000406:	b2a3      	uxth	r3, r4
 8000408:	fbb1 f0fe 	udiv	r0, r1, lr
 800040c:	fb0e 1410 	mls	r4, lr, r0, r1
 8000410:	ea43 4404 	orr.w	r4, r3, r4, lsl #16
 8000414:	fb08 f800 	mul.w	r8, r8, r0
 8000418:	45a0      	cmp	r8, r4
 800041a:	d907      	bls.n	800042c <__udivmoddi4+0x14c>
 800041c:	192c      	adds	r4, r5, r4
 800041e:	f100 33ff 	add.w	r3, r0, #4294967295
 8000422:	d202      	bcs.n	800042a <__udivmoddi4+0x14a>
 8000424:	45a0      	cmp	r8, r4
 8000426:	f200 80b6 	bhi.w	8000596 <__udivmoddi4+0x2b6>
 800042a:	4618      	mov	r0, r3
 800042c:	eba4 0408 	sub.w	r4, r4, r8
 8000430:	ea40 400c 	orr.w	r0, r0, ip, lsl #16
 8000434:	e79f      	b.n	8000376 <__udivmoddi4+0x96>
 8000436:	f1c7 0c20 	rsb	ip, r7, #32
 800043a:	40bb      	lsls	r3, r7
 800043c:	fa22 fe0c 	lsr.w	lr, r2, ip
 8000440:	ea4e 0e03 	orr.w	lr, lr, r3
 8000444:	fa01 f407 	lsl.w	r4, r1, r7
 8000448:	fa20 f50c 	lsr.w	r5, r0, ip
 800044c:	fa21 f30c 	lsr.w	r3, r1, ip
 8000450:	ea4f 481e 	mov.w	r8, lr, lsr #16
 8000454:	4325      	orrs	r5, r4
 8000456:	fbb3 f9f8 	udiv	r9, r3, r8
 800045a:	0c2c      	lsrs	r4, r5, #16
 800045c:	fb08 3319 	mls	r3, r8, r9, r3
 8000460:	fa1f fa8e 	uxth.w	sl, lr
 8000464:	ea44 4303 	orr.w	r3, r4, r3, lsl #16
 8000468:	fb09 f40a 	mul.w	r4, r9, sl
 800046c:	429c      	cmp	r4, r3
 800046e:	fa02 f207 	lsl.w	r2, r2, r7
 8000472:	fa00 f107 	lsl.w	r1, r0, r7
 8000476:	d90b      	bls.n	8000490 <__udivmoddi4+0x1b0>
 8000478:	eb1e 0303 	adds.w	r3, lr, r3
 800047c:	f109 30ff 	add.w	r0, r9, #4294967295
 8000480:	f080 8087 	bcs.w	8000592 <__udivmoddi4+0x2b2>
 8000484:	429c      	cmp	r4, r3
 8000486:	f240 8084 	bls.w	8000592 <__udivmoddi4+0x2b2>
 800048a:	f1a9 0902 	sub.w	r9, r9, #2
 800048e:	4473      	add	r3, lr
 8000490:	1b1b      	subs	r3, r3, r4
 8000492:	b2ad      	uxth	r5, r5
 8000494:	fbb3 f0f8 	udiv	r0, r3, r8
 8000498:	fb08 3310 	mls	r3, r8, r0, r3
 800049c:	ea45 4403 	orr.w	r4, r5, r3, lsl #16
 80004a0:	fb00 fa0a 	mul.w	sl, r0, sl
 80004a4:	45a2      	cmp	sl, r4
 80004a6:	d908      	bls.n	80004ba <__udivmoddi4+0x1da>
 80004a8:	eb1e 0404 	adds.w	r4, lr, r4
 80004ac:	f100 33ff 	add.w	r3, r0, #4294967295
 80004b0:	d26b      	bcs.n	800058a <__udivmoddi4+0x2aa>
 80004b2:	45a2      	cmp	sl, r4
 80004b4:	d969      	bls.n	800058a <__udivmoddi4+0x2aa>
 80004b6:	3802      	subs	r0, #2
 80004b8:	4474      	add	r4, lr
 80004ba:	ea40 4009 	orr.w	r0, r0, r9, lsl #16
 80004be:	fba0 8902 	umull	r8, r9, r0, r2
 80004c2:	eba4 040a 	sub.w	r4, r4, sl
 80004c6:	454c      	cmp	r4, r9
 80004c8:	46c2      	mov	sl, r8
 80004ca:	464b      	mov	r3, r9
 80004cc:	d354      	bcc.n	8000578 <__udivmoddi4+0x298>
 80004ce:	d051      	beq.n	8000574 <__udivmoddi4+0x294>
 80004d0:	2e00      	cmp	r6, #0
 80004d2:	d069      	beq.n	80005a8 <__udivmoddi4+0x2c8>
 80004d4:	ebb1 050a 	subs.w	r5, r1, sl
 80004d8:	eb64 0403 	sbc.w	r4, r4, r3
 80004dc:	fa04 fc0c 	lsl.w	ip, r4, ip
 80004e0:	40fd      	lsrs	r5, r7
 80004e2:	40fc      	lsrs	r4, r7
 80004e4:	ea4c 0505 	orr.w	r5, ip, r5
 80004e8:	e9c6 5400 	strd	r5, r4, [r6]
 80004ec:	2700      	movs	r7, #0
 80004ee:	e747      	b.n	8000380 <__udivmoddi4+0xa0>
 80004f0:	f1c2 0320 	rsb	r3, r2, #32
 80004f4:	fa20 f703 	lsr.w	r7, r0, r3
 80004f8:	4095      	lsls	r5, r2
 80004fa:	fa01 f002 	lsl.w	r0, r1, r2
 80004fe:	fa21 f303 	lsr.w	r3, r1, r3
 8000502:	ea4f 4e15 	mov.w	lr, r5, lsr #16
 8000506:	4338      	orrs	r0, r7
 8000508:	0c01      	lsrs	r1, r0, #16
 800050a:	fbb3 f7fe 	udiv	r7, r3, lr
 800050e:	fa1f f885 	uxth.w	r8, r5
 8000512:	fb0e 3317 	mls	r3, lr, r7, r3
 8000516:	ea41 4103 	orr.w	r1, r1, r3, lsl #16
 800051a:	fb07 f308 	mul.w	r3, r7, r8
 800051e:	428b      	cmp	r3, r1
 8000520:	fa04 f402 	lsl.w	r4, r4, r2
 8000524:	d907      	bls.n	8000536 <__udivmoddi4+0x256>
 8000526:	1869      	adds	r1, r5, r1
 8000528:	f107 3cff 	add.w	ip, r7, #4294967295
 800052c:	d22f      	bcs.n	800058e <__udivmoddi4+0x2ae>
 800052e:	428b      	cmp	r3, r1
 8000530:	d92d      	bls.n	800058e <__udivmoddi4+0x2ae>
 8000532:	3f02      	subs	r7, #2
 8000534:	4429      	add	r1, r5
 8000536:	1acb      	subs	r3, r1, r3
 8000538:	b281      	uxth	r1, r0
 800053a:	fbb3 f0fe 	udiv	r0, r3, lr
 800053e:	fb0e 3310 	mls	r3, lr, r0, r3
 8000542:	ea41 4103 	orr.w	r1, r1, r3, lsl #16
 8000546:	fb00 f308 	mul.w	r3, r0, r8
 800054a:	428b      	cmp	r3, r1
 800054c:	d907      	bls.n	800055e <__udivmoddi4+0x27e>
 800054e:	1869      	adds	r1, r5, r1
 8000550:	f100 3cff 	add.w	ip, r0, #4294967295
 8000554:	d217      	bcs.n	8000586 <__udivmoddi4+0x2a6>
 8000556:	428b      	cmp	r3, r1
 8000558:	d915      	bls.n	8000586 <__udivmoddi4+0x2a6>
 800055a:	3802      	subs	r0, #2
 800055c:	4429      	add	r1, r5
 800055e:	1ac9      	subs	r1, r1, r3
 8000560:	ea40 4707 	orr.w	r7, r0, r7, lsl #16
 8000564:	e73b      	b.n	80003de <__udivmoddi4+0xfe>
 8000566:	4637      	mov	r7, r6
 8000568:	4630      	mov	r0, r6
 800056a:	e709      	b.n	8000380 <__udivmoddi4+0xa0>
 800056c:	4607      	mov	r7, r0
 800056e:	e6e7      	b.n	8000340 <__udivmoddi4+0x60>
 8000570:	4618      	mov	r0, r3
 8000572:	e6fb      	b.n	800036c <__udivmoddi4+0x8c>
 8000574:	4541      	cmp	r1, r8
 8000576:	d2ab      	bcs.n	80004d0 <__udivmoddi4+0x1f0>
 8000578:	ebb8 0a02 	subs.w	sl, r8, r2
 800057c:	eb69 020e 	sbc.w	r2, r9, lr
 8000580:	3801      	subs	r0, #1
 8000582:	4613      	mov	r3, r2
 8000584:	e7a4      	b.n	80004d0 <__udivmoddi4+0x1f0>
 8000586:	4660      	mov	r0, ip
 8000588:	e7e9      	b.n	800055e <__udivmoddi4+0x27e>
 800058a:	4618      	mov	r0, r3
 800058c:	e795      	b.n	80004ba <__udivmoddi4+0x1da>
 800058e:	4667      	mov	r7, ip
 8000590:	e7d1      	b.n	8000536 <__udivmoddi4+0x256>
 8000592:	4681      	mov	r9, r0
 8000594:	e77c      	b.n	8000490 <__udivmoddi4+0x1b0>
 8000596:	3802      	subs	r0, #2
 8000598:	442c      	add	r4, r5
 800059a:	e747      	b.n	800042c <__udivmoddi4+0x14c>
 800059c:	f1ac 0c02 	sub.w	ip, ip, #2
 80005a0:	442b      	add	r3, r5
 80005a2:	e72f      	b.n	8000404 <__udivmoddi4+0x124>
 80005a4:	4638      	mov	r0, r7
 80005a6:	e708      	b.n	80003ba <__udivmoddi4+0xda>
 80005a8:	4637      	mov	r7, r6
 80005aa:	e6e9      	b.n	8000380 <__udivmoddi4+0xa0>

080005ac <__aeabi_idiv0>:
 80005ac:	4770      	bx	lr
 80005ae:	bf00      	nop

080005b0 <MX_GPIO_Init>:
 80005b0:	b580      	push	{r7, lr}
 80005b2:	b08a      	sub	sp, #40	; 0x28
 80005b4:	af00      	add	r7, sp, #0
 80005b6:	f107 0314 	add.w	r3, r7, #20
 80005ba:	2200      	movs	r2, #0
 80005bc:	601a      	str	r2, [r3, #0]
 80005be:	605a      	str	r2, [r3, #4]
 80005c0:	609a      	str	r2, [r3, #8]
 80005c2:	60da      	str	r2, [r3, #12]
 80005c4:	611a      	str	r2, [r3, #16]
 80005c6:	2300      	movs	r3, #0
 80005c8:	613b      	str	r3, [r7, #16]
 80005ca:	4b2d      	ldr	r3, [pc, #180]	; (8000680 <MX_GPIO_Init+0xd0>)
 80005cc:	6b1b      	ldr	r3, [r3, #48]	; 0x30
 80005ce:	4a2c      	ldr	r2, [pc, #176]	; (8000680 <MX_GPIO_Init+0xd0>)
 80005d0:	f043 0304 	orr.w	r3, r3, #4
 80005d4:	6313      	str	r3, [r2, #48]	; 0x30
 80005d6:	4b2a      	ldr	r3, [pc, #168]	; (8000680 <MX_GPIO_Init+0xd0>)
 80005d8:	6b1b      	ldr	r3, [r3, #48]	; 0x30
 80005da:	f003 0304 	and.w	r3, r3, #4
 80005de:	613b      	str	r3, [r7, #16]
 80005e0:	693b      	ldr	r3, [r7, #16]
 80005e2:	2300      	movs	r3, #0
 80005e4:	60fb      	str	r3, [r7, #12]
 80005e6:	4b26      	ldr	r3, [pc, #152]	; (8000680 <MX_GPIO_Init+0xd0>)
 80005e8:	6b1b      	ldr	r3, [r3, #48]	; 0x30
 80005ea:	4a25      	ldr	r2, [pc, #148]	; (8000680 <MX_GPIO_Init+0xd0>)
 80005ec:	f043 0380 	orr.w	r3, r3, #128	; 0x80
 80005f0:	6313      	str	r3, [r2, #48]	; 0x30
 80005f2:	4b23      	ldr	r3, [pc, #140]	; (8000680 <MX_GPIO_Init+0xd0>)
 80005f4:	6b1b      	ldr	r3, [r3, #48]	; 0x30
 80005f6:	f003 0380 	and.w	r3, r3, #128	; 0x80
 80005fa:	60fb      	str	r3, [r7, #12]
 80005fc:	68fb      	ldr	r3, [r7, #12]
 80005fe:	2300      	movs	r3, #0
 8000600:	60bb      	str	r3, [r7, #8]
 8000602:	4b1f      	ldr	r3, [pc, #124]	; (8000680 <MX_GPIO_Init+0xd0>)
 8000604:	6b1b      	ldr	r3, [r3, #48]	; 0x30
 8000606:	4a1e      	ldr	r2, [pc, #120]	; (8000680 <MX_GPIO_Init+0xd0>)
 8000608:	f043 0301 	orr.w	r3, r3, #1
 800060c:	6313      	str	r3, [r2, #48]	; 0x30
 800060e:	4b1c      	ldr	r3, [pc, #112]	; (8000680 <MX_GPIO_Init+0xd0>)
 8000610:	6b1b      	ldr	r3, [r3, #48]	; 0x30
 8000612:	f003 0301 	and.w	r3, r3, #1
 8000616:	60bb      	str	r3, [r7, #8]
 8000618:	68bb      	ldr	r3, [r7, #8]
 800061a:	2300      	movs	r3, #0
 800061c:	607b      	str	r3, [r7, #4]
 800061e:	4b18      	ldr	r3, [pc, #96]	; (8000680 <MX_GPIO_Init+0xd0>)
 8000620:	6b1b      	ldr	r3, [r3, #48]	; 0x30
 8000622:	4a17      	ldr	r2, [pc, #92]	; (8000680 <MX_GPIO_Init+0xd0>)
 8000624:	f043 0302 	orr.w	r3, r3, #2
 8000628:	6313      	str	r3, [r2, #48]	; 0x30
 800062a:	4b15      	ldr	r3, [pc, #84]	; (8000680 <MX_GPIO_Init+0xd0>)
 800062c:	6b1b      	ldr	r3, [r3, #48]	; 0x30
 800062e:	f003 0302 	and.w	r3, r3, #2
 8000632:	607b      	str	r3, [r7, #4]
 8000634:	687b      	ldr	r3, [r7, #4]
 8000636:	2200      	movs	r2, #0
 8000638:	2120      	movs	r1, #32
 800063a:	4812      	ldr	r0, [pc, #72]	; (8000684 <MX_GPIO_Init+0xd4>)
 800063c:	f000 ff32 	bl	80014a4 <HAL_GPIO_WritePin>
 8000640:	f44f 5300 	mov.w	r3, #8192	; 0x2000
 8000644:	617b      	str	r3, [r7, #20]
 8000646:	4b10      	ldr	r3, [pc, #64]	; (8000688 <MX_GPIO_Init+0xd8>)
 8000648:	61bb      	str	r3, [r7, #24]
 800064a:	2300      	movs	r3, #0
 800064c:	61fb      	str	r3, [r7, #28]
 800064e:	f107 0314 	add.w	r3, r7, #20
 8000652:	4619      	mov	r1, r3
 8000654:	480d      	ldr	r0, [pc, #52]	; (800068c <MX_GPIO_Init+0xdc>)
 8000656:	f000 fd93 	bl	8001180 <HAL_GPIO_Init>
 800065a:	2320      	movs	r3, #32
 800065c:	617b      	str	r3, [r7, #20]
 800065e:	2301      	movs	r3, #1
 8000660:	61bb      	str	r3, [r7, #24]
 8000662:	2300      	movs	r3, #0
 8000664:	61fb      	str	r3, [r7, #28]
 8000666:	2300      	movs	r3, #0
 8000668:	623b      	str	r3, [r7, #32]
 800066a:	f107 0314 	add.w	r3, r7, #20
 800066e:	4619      	mov	r1, r3
 8000670:	4804      	ldr	r0, [pc, #16]	; (8000684 <MX_GPIO_Init+0xd4>)
 8000672:	f000 fd85 	bl	8001180 <HAL_GPIO_Init>
 8000676:	bf00      	nop
 8000678:	3728      	adds	r7, #40	; 0x28
 800067a:	46bd      	mov	sp, r7
 800067c:	bd80      	pop	{r7, pc}
 800067e:	bf00      	nop
 8000680:	40023800 	.word	0x40023800
 8000684:	40020000 	.word	0x40020000
 8000688:	10210000 	.word	0x10210000
 800068c:	40020800 	.word	0x40020800

08000690 <MX_I2C1_Init>:
 8000690:	b580      	push	{r7, lr}
 8000692:	af00      	add	r7, sp, #0
 8000694:	4b12      	ldr	r3, [pc, #72]	; (80006e0 <MX_I2C1_Init+0x50>)
 8000696:	4a13      	ldr	r2, [pc, #76]	; (80006e4 <MX_I2C1_Init+0x54>)
 8000698:	601a      	str	r2, [r3, #0]
 800069a:	4b11      	ldr	r3, [pc, #68]	; (80006e0 <MX_I2C1_Init+0x50>)
 800069c:	4a12      	ldr	r2, [pc, #72]	; (80006e8 <MX_I2C1_Init+0x58>)
 800069e:	605a      	str	r2, [r3, #4]
 80006a0:	4b0f      	ldr	r3, [pc, #60]	; (80006e0 <MX_I2C1_Init+0x50>)
 80006a2:	2200      	movs	r2, #0
 80006a4:	609a      	str	r2, [r3, #8]
 80006a6:	4b0e      	ldr	r3, [pc, #56]	; (80006e0 <MX_I2C1_Init+0x50>)
 80006a8:	2200      	movs	r2, #0
 80006aa:	60da      	str	r2, [r3, #12]
 80006ac:	4b0c      	ldr	r3, [pc, #48]	; (80006e0 <MX_I2C1_Init+0x50>)
 80006ae:	f44f 4280 	mov.w	r2, #16384	; 0x4000
 80006b2:	611a      	str	r2, [r3, #16]
 80006b4:	4b0a      	ldr	r3, [pc, #40]	; (80006e0 <MX_I2C1_Init+0x50>)
 80006b6:	2200      	movs	r2, #0
 80006b8:	615a      	str	r2, [r3, #20]
 80006ba:	4b09      	ldr	r3, [pc, #36]	; (80006e0 <MX_I2C1_Init+0x50>)
 80006bc:	2200      	movs	r2, #0
 80006be:	619a      	str	r2, [r3, #24]
 80006c0:	4b07      	ldr	r3, [pc, #28]	; (80006e0 <MX_I2C1_Init+0x50>)
 80006c2:	2200      	movs	r2, #0
 80006c4:	61da      	str	r2, [r3, #28]
 80006c6:	4b06      	ldr	r3, [pc, #24]	; (80006e0 <MX_I2C1_Init+0x50>)
 80006c8:	2200      	movs	r2, #0
 80006ca:	621a      	str	r2, [r3, #32]
 80006cc:	4804      	ldr	r0, [pc, #16]	; (80006e0 <MX_I2C1_Init+0x50>)
 80006ce:	f000 ff03 	bl	80014d8 <HAL_I2C_Init>
 80006d2:	4603      	mov	r3, r0
 80006d4:	2b00      	cmp	r3, #0
 80006d6:	d001      	beq.n	80006dc <MX_I2C1_Init+0x4c>
 80006d8:	f000 f9d4 	bl	8000a84 <Error_Handler>
 80006dc:	bf00      	nop
 80006de:	bd80      	pop	{r7, pc}
 80006e0:	20000354 	.word	0x20000354
 80006e4:	40005400 	.word	0x40005400
 80006e8:	00061a80 	.word	0x00061a80

080006ec <HAL_I2C_MspInit>:
 80006ec:	b580      	push	{r7, lr}
 80006ee:	b08a      	sub	sp, #40	; 0x28
 80006f0:	af00      	add	r7, sp, #0
 80006f2:	6078      	str	r0, [r7, #4]
 80006f4:	f107 0314 	add.w	r3, r7, #20
 80006f8:	2200      	movs	r2, #0
 80006fa:	601a      	str	r2, [r3, #0]
 80006fc:	605a      	str	r2, [r3, #4]
 80006fe:	609a      	str	r2, [r3, #8]
 8000700:	60da      	str	r2, [r3, #12]
 8000702:	611a      	str	r2, [r3, #16]
 8000704:	687b      	ldr	r3, [r7, #4]
 8000706:	681b      	ldr	r3, [r3, #0]
 8000708:	4a19      	ldr	r2, [pc, #100]	; (8000770 <HAL_I2C_MspInit+0x84>)
 800070a:	4293      	cmp	r3, r2
 800070c:	d12b      	bne.n	8000766 <HAL_I2C_MspInit+0x7a>
 800070e:	2300      	movs	r3, #0
 8000710:	613b      	str	r3, [r7, #16]
 8000712:	4b18      	ldr	r3, [pc, #96]	; (8000774 <HAL_I2C_MspInit+0x88>)
 8000714:	6b1b      	ldr	r3, [r3, #48]	; 0x30
 8000716:	4a17      	ldr	r2, [pc, #92]	; (8000774 <HAL_I2C_MspInit+0x88>)
 8000718:	f043 0302 	orr.w	r3, r3, #2
 800071c:	6313      	str	r3, [r2, #48]	; 0x30
 800071e:	4b15      	ldr	r3, [pc, #84]	; (8000774 <HAL_I2C_MspInit+0x88>)
 8000720:	6b1b      	ldr	r3, [r3, #48]	; 0x30
 8000722:	f003 0302 	and.w	r3, r3, #2
 8000726:	613b      	str	r3, [r7, #16]
 8000728:	693b      	ldr	r3, [r7, #16]
 800072a:	23c0      	movs	r3, #192	; 0xc0
 800072c:	617b      	str	r3, [r7, #20]
 800072e:	2312      	movs	r3, #18
 8000730:	61bb      	str	r3, [r7, #24]
 8000732:	2301      	movs	r3, #1
 8000734:	61fb      	str	r3, [r7, #28]
 8000736:	2303      	movs	r3, #3
 8000738:	623b      	str	r3, [r7, #32]
 800073a:	2304      	movs	r3, #4
 800073c:	627b      	str	r3, [r7, #36]	; 0x24
 800073e:	f107 0314 	add.w	r3, r7, #20
 8000742:	4619      	mov	r1, r3
 8000744:	480c      	ldr	r0, [pc, #48]	; (8000778 <HAL_I2C_MspInit+0x8c>)
 8000746:	f000 fd1b 	bl	8001180 <HAL_GPIO_Init>
 800074a:	2300      	movs	r3, #0
 800074c:	60fb      	str	r3, [r7, #12]
 800074e:	4b09      	ldr	r3, [pc, #36]	; (8000774 <HAL_I2C_MspInit+0x88>)
 8000750:	6c1b      	ldr	r3, [r3, #64]	; 0x40
 8000752:	4a08      	ldr	r2, [pc, #32]	; (8000774 <HAL_I2C_MspInit+0x88>)
 8000754:	f443 1300 	orr.w	r3, r3, #2097152	; 0x200000
 8000758:	6413      	str	r3, [r2, #64]	; 0x40
 800075a:	4b06      	ldr	r3, [pc, #24]	; (8000774 <HAL_I2C_MspInit+0x88>)
 800075c:	6c1b      	ldr	r3, [r3, #64]	; 0x40
 800075e:	f403 1300 	and.w	r3, r3, #2097152	; 0x200000
 8000762:	60fb      	str	r3, [r7, #12]
 8000764:	68fb      	ldr	r3, [r7, #12]
 8000766:	bf00      	nop
 8000768:	3728      	adds	r7, #40	; 0x28
 800076a:	46bd      	mov	sp, r7
 800076c:	bd80      	pop	{r7, pc}
 800076e:	bf00      	nop
 8000770:	40005400 	.word	0x40005400
 8000774:	40023800 	.word	0x40023800
 8000778:	40020400 	.word	0x40020400

0800077c <main>:
/**
  * @brief  The application entry point.
  * @retval int
  */
int main(void)
{
 800077c:	b580      	push	{r7, lr}
 800077e:	f5ad 7d0a 	sub.w	sp, sp, #552	; 0x228
 8000782:	af00      	add	r7, sp, #0
  /* USER CODE END 1 */

  /* MCU Configuration--------------------------------------------------------*/

  /* Reset of all peripherals, Initializes the Flash interface and the Systick. */
  HAL_Init();
 8000784:	f000 fb82 	bl	8000e8c <HAL_Init>
  /* USER CODE BEGIN Init */

  /* USER CODE END Init */

  /* Configure the system clock */
  SystemClock_Config();
 8000788:	f000 f90e 	bl	80009a8 <SystemClock_Config>
  /* USER CODE BEGIN SysInit */

  /* USER CODE END SysInit */

  /* Initialize all configured peripherals */
  MX_GPIO_Init();
 800078c:	f7ff ff10 	bl	80005b0 <MX_GPIO_Init>
  MX_USART2_UART_Init();
 8000790:	f000 fae0 	bl	8000d54 <MX_USART2_UART_Init>
  MX_I2C1_Init();
 8000794:	f7ff ff7c 	bl	8000690 <MX_I2C1_Init>
  /* USER CODE BEGIN 2 */
  RetargetInit(&huart2);
 8000798:	4873      	ldr	r0, [pc, #460]	; (8000968 <main+0x1ec>)
 800079a:	f000 f977 	bl	8000a8c <RetargetInit>
  printf("lib_vl53l0x\r\n");
 800079e:	4873      	ldr	r0, [pc, #460]	; (800096c <main+0x1f0>)
 80007a0:	f007 ffe6 	bl	8008770 <puts>
  /* Infinite loop */
  /* USER CODE BEGIN WHILE */
  VL53L0X_Dev_t dev;
  VL53L0X_DeviceInfo_t VL53L0X_DeviceInfo;
  VL53L0X_RangingMeasurementData_t VL53L0X_RangingMeasurementData;
  uint8_t status = VL53L0X_ERROR_NONE;
 80007a4:	2300      	movs	r3, #0
 80007a6:	f887 3227 	strb.w	r3, [r7, #551]	; 0x227
  uint8_t data_ready = 0;
 80007aa:	f107 030b 	add.w	r3, r7, #11
 80007ae:	2200      	movs	r2, #0
 80007b0:	701a      	strb	r2, [r3, #0]

  dev.I2cHandle = &hi2c1;
 80007b2:	f107 038c 	add.w	r3, r7, #140	; 0x8c
 80007b6:	4a6e      	ldr	r2, [pc, #440]	; (8000970 <main+0x1f4>)
 80007b8:	f8c3 215c 	str.w	r2, [r3, #348]	; 0x15c
  dev.I2cDevAddr = 0x52;
 80007bc:	f107 038c 	add.w	r3, r7, #140	; 0x8c
 80007c0:	2252      	movs	r2, #82	; 0x52
 80007c2:	f883 2160 	strb.w	r2, [r3, #352]	; 0x160
  dev.comms_speed_khz = 400;
 80007c6:	f107 038c 	add.w	r3, r7, #140	; 0x8c
 80007ca:	f44f 72c8 	mov.w	r2, #400	; 0x190
 80007ce:	f8a3 2176 	strh.w	r2, [r3, #374]	; 0x176
  dev.comms_type = 1;
 80007d2:	f107 038c 	add.w	r3, r7, #140	; 0x8c
 80007d6:	2201      	movs	r2, #1
 80007d8:	f883 2174 	strb.w	r2, [r3, #372]	; 0x174

  VL53L0X_GetDeviceInfo(&dev, &VL53L0X_DeviceInfo);
 80007dc:	f107 0228 	add.w	r2, r7, #40	; 0x28
 80007e0:	f107 038c 	add.w	r3, r7, #140	; 0x8c
 80007e4:	4611      	mov	r1, r2
 80007e6:	4618      	mov	r0, r3
 80007e8:	f003 f866 	bl	80038b8 <VL53L0X_GetDeviceInfo>
  printf("Name = %s\r\n",VL53L0X_DeviceInfo.Name);
 80007ec:	f107 0328 	add.w	r3, r7, #40	; 0x28
 80007f0:	4619      	mov	r1, r3
 80007f2:	4860      	ldr	r0, [pc, #384]	; (8000974 <main+0x1f8>)
 80007f4:	f007 ff48 	bl	8008688 <iprintf>
  printf("Type = %s\r\n",VL53L0X_DeviceInfo.Type);
 80007f8:	f107 0328 	add.w	r3, r7, #40	; 0x28
 80007fc:	3320      	adds	r3, #32
 80007fe:	4619      	mov	r1, r3
 8000800:	485d      	ldr	r0, [pc, #372]	; (8000978 <main+0x1fc>)
 8000802:	f007 ff41 	bl	8008688 <iprintf>
  printf("ProductId = %s\r\n",VL53L0X_DeviceInfo.ProductId);
 8000806:	f107 0328 	add.w	r3, r7, #40	; 0x28
 800080a:	3340      	adds	r3, #64	; 0x40
 800080c:	4619      	mov	r1, r3
 800080e:	485b      	ldr	r0, [pc, #364]	; (800097c <main+0x200>)
 8000810:	f007 ff3a 	bl	8008688 <iprintf>
  printf("ProductType = %d\r\n",VL53L0X_DeviceInfo.ProductType);
 8000814:	f107 0328 	add.w	r3, r7, #40	; 0x28
 8000818:	f893 3060 	ldrb.w	r3, [r3, #96]	; 0x60
 800081c:	4619      	mov	r1, r3
 800081e:	4858      	ldr	r0, [pc, #352]	; (8000980 <main+0x204>)
 8000820:	f007 ff32 	bl	8008688 <iprintf>
  printf("ProductRevisionMajor = %d\r\n",VL53L0X_DeviceInfo.ProductRevisionMajor);
 8000824:	f107 0328 	add.w	r3, r7, #40	; 0x28
 8000828:	f893 3061 	ldrb.w	r3, [r3, #97]	; 0x61
 800082c:	4619      	mov	r1, r3
 800082e:	4855      	ldr	r0, [pc, #340]	; (8000984 <main+0x208>)
 8000830:	f007 ff2a 	bl	8008688 <iprintf>
  printf("ProductRevisionMinor = %d\r\n",VL53L0X_DeviceInfo.ProductRevisionMinor);
 8000834:	f107 0328 	add.w	r3, r7, #40	; 0x28
 8000838:	f893 3062 	ldrb.w	r3, [r3, #98]	; 0x62
 800083c:	4619      	mov	r1, r3
 800083e:	4852      	ldr	r0, [pc, #328]	; (8000988 <main+0x20c>)
 8000840:	f007 ff22 	bl	8008688 <iprintf>

  status = VL53L0X_DataInit(&dev);
 8000844:	f107 038c 	add.w	r3, r7, #140	; 0x8c
 8000848:	4618      	mov	r0, r3
 800084a:	f003 f86f 	bl	800392c <VL53L0X_DataInit>
 800084e:	4603      	mov	r3, r0
 8000850:	f887 3227 	strb.w	r3, [r7, #551]	; 0x227
  printf("DataInit() : %d\r\n",status);
 8000854:	f897 3227 	ldrb.w	r3, [r7, #551]	; 0x227
 8000858:	4619      	mov	r1, r3
 800085a:	484c      	ldr	r0, [pc, #304]	; (800098c <main+0x210>)
 800085c:	f007 ff14 	bl	8008688 <iprintf>

  status = VL53L0X_StaticInit(&dev);
 8000860:	f107 038c 	add.w	r3, r7, #140	; 0x8c
 8000864:	4618      	mov	r0, r3
 8000866:	f003 f9c5 	bl	8003bf4 <VL53L0X_StaticInit>
 800086a:	4603      	mov	r3, r0
 800086c:	f887 3227 	strb.w	r3, [r7, #551]	; 0x227
  printf("StaticInit() : %d\r\n",status);
 8000870:	f897 3227 	ldrb.w	r3, [r7, #551]	; 0x227
 8000874:	4619      	mov	r1, r3
 8000876:	4846      	ldr	r0, [pc, #280]	; (8000990 <main+0x214>)
 8000878:	f007 ff06 	bl	8008688 <iprintf>

  uint32_t refSpadCount;
  uint8_t isApertureSpads;
  status = VL53L0X_PerformRefSpadManagement(&dev, &refSpadCount, &isApertureSpads);
 800087c:	1cfa      	adds	r2, r7, #3
 800087e:	1d39      	adds	r1, r7, #4
 8000880:	f107 038c 	add.w	r3, r7, #140	; 0x8c
 8000884:	4618      	mov	r0, r3
 8000886:	f004 fcf9 	bl	800527c <VL53L0X_PerformRefSpadManagement>
 800088a:	4603      	mov	r3, r0
 800088c:	f887 3227 	strb.w	r3, [r7, #551]	; 0x227
  printf("PerformRefSpadManagement() : %d\r\n",status);
 8000890:	f897 3227 	ldrb.w	r3, [r7, #551]	; 0x227
 8000894:	4619      	mov	r1, r3
 8000896:	483f      	ldr	r0, [pc, #252]	; (8000994 <main+0x218>)
 8000898:	f007 fef6 	bl	8008688 <iprintf>

  int32_t OffsetCalibrationDataMicroMeter = 0;
 800089c:	2300      	movs	r3, #0
 800089e:	f8c7 3220 	str.w	r3, [r7, #544]	; 0x220
  status = VL53L0X_SetOffsetCalibrationDataMicroMeter(&dev, OffsetCalibrationDataMicroMeter);
 80008a2:	f107 038c 	add.w	r3, r7, #140	; 0x8c
 80008a6:	f8d7 1220 	ldr.w	r1, [r7, #544]	; 0x220
 80008aa:	4618      	mov	r0, r3
 80008ac:	f003 f817 	bl	80038de <VL53L0X_SetOffsetCalibrationDataMicroMeter>
 80008b0:	4603      	mov	r3, r0
 80008b2:	f887 3227 	strb.w	r3, [r7, #551]	; 0x227
  printf("SetOffsetCalibrationDataMicroMeter() : %d\r\n",status);
 80008b6:	f897 3227 	ldrb.w	r3, [r7, #551]	; 0x227
 80008ba:	4619      	mov	r1, r3
 80008bc:	4836      	ldr	r0, [pc, #216]	; (8000998 <main+0x21c>)
 80008be:	f007 fee3 	bl	8008688 <iprintf>

  FixPoint1616_t XTalkCompensationRateMegaCps = 0;
 80008c2:	2300      	movs	r3, #0
 80008c4:	f8c7 321c 	str.w	r3, [r7, #540]	; 0x21c
  status = VL53L0X_SetXTalkCompensationRateMegaCps(&dev, XTalkCompensationRateMegaCps);
 80008c8:	f107 038c 	add.w	r3, r7, #140	; 0x8c
 80008cc:	f8d7 121c 	ldr.w	r1, [r7, #540]	; 0x21c
 80008d0:	4618      	mov	r0, r3
 80008d2:	f003 fdee 	bl	80044b2 <VL53L0X_SetXTalkCompensationRateMegaCps>
 80008d6:	4603      	mov	r3, r0
 80008d8:	f887 3227 	strb.w	r3, [r7, #551]	; 0x227
  printf("SetXTalkCompensationRateMegaCps() : %d\r\n",status);
 80008dc:	f897 3227 	ldrb.w	r3, [r7, #551]	; 0x227
 80008e0:	4619      	mov	r1, r3
 80008e2:	482e      	ldr	r0, [pc, #184]	; (800099c <main+0x220>)
 80008e4:	f007 fed0 	bl	8008688 <iprintf>

  status = VL53L0X_SetDeviceMode(&dev, VL53L0X_DEVICEMODE_CONTINUOUS_RANGING);
 80008e8:	f107 038c 	add.w	r3, r7, #140	; 0x8c
 80008ec:	2101      	movs	r1, #1
 80008ee:	4618      	mov	r0, r3
 80008f0:	f003 fb92 	bl	8004018 <VL53L0X_SetDeviceMode>
 80008f4:	4603      	mov	r3, r0
 80008f6:	f887 3227 	strb.w	r3, [r7, #551]	; 0x227
  printf("StaticInit() : %d\r\n",status);
 80008fa:	f897 3227 	ldrb.w	r3, [r7, #551]	; 0x227
 80008fe:	4619      	mov	r1, r3
 8000900:	4823      	ldr	r0, [pc, #140]	; (8000990 <main+0x214>)
 8000902:	f007 fec1 	bl	8008688 <iprintf>

  status = VL53L0X_StartMeasurement(&dev);
 8000906:	f107 038c 	add.w	r3, r7, #140	; 0x8c
 800090a:	4618      	mov	r0, r3
 800090c:	f004 f8a4 	bl	8004a58 <VL53L0X_StartMeasurement>
 8000910:	4603      	mov	r3, r0
 8000912:	f887 3227 	strb.w	r3, [r7, #551]	; 0x227
  printf("StartMeasurement() : %d\r\n",status);
 8000916:	f897 3227 	ldrb.w	r3, [r7, #551]	; 0x227
 800091a:	4619      	mov	r1, r3
 800091c:	4820      	ldr	r0, [pc, #128]	; (80009a0 <main+0x224>)
 800091e:	f007 feb3 	bl	8008688 <iprintf>

  while (1)
  {
	  do{
		  status = VL53L0X_GetMeasurementDataReady(&dev, &data_ready);
 8000922:	f107 020b 	add.w	r2, r7, #11
 8000926:	f107 038c 	add.w	r3, r7, #140	; 0x8c
 800092a:	4611      	mov	r1, r2
 800092c:	4618      	mov	r0, r3
 800092e:	f004 f952 	bl	8004bd6 <VL53L0X_GetMeasurementDataReady>
 8000932:	4603      	mov	r3, r0
 8000934:	f887 3227 	strb.w	r3, [r7, #551]	; 0x227
	  } while(data_ready != 1);
 8000938:	f107 030b 	add.w	r3, r7, #11
 800093c:	781b      	ldrb	r3, [r3, #0]
 800093e:	2b01      	cmp	r3, #1
 8000940:	d1ef      	bne.n	8000922 <main+0x1a6>

	status = VL53L0X_GetRangingMeasurementData(&dev, &VL53L0X_RangingMeasurementData);
 8000942:	f107 020c 	add.w	r2, r7, #12
 8000946:	f107 038c 	add.w	r3, r7, #140	; 0x8c
 800094a:	4611      	mov	r1, r2
 800094c:	4618      	mov	r0, r3
 800094e:	f004 f983 	bl	8004c58 <VL53L0X_GetRangingMeasurementData>
 8000952:	4603      	mov	r3, r0
 8000954:	f887 3227 	strb.w	r3, [r7, #551]	; 0x227
	printf("Distance = %d\r\n",VL53L0X_RangingMeasurementData.RangeMilliMeter);
 8000958:	f107 030c 	add.w	r3, r7, #12
 800095c:	891b      	ldrh	r3, [r3, #8]
 800095e:	4619      	mov	r1, r3
 8000960:	4810      	ldr	r0, [pc, #64]	; (80009a4 <main+0x228>)
 8000962:	f007 fe91 	bl	8008688 <iprintf>
  while (1)
 8000966:	e7dc      	b.n	8000922 <main+0x1a6>
 8000968:	200003ac 	.word	0x200003ac
 800096c:	080096ac 	.word	0x080096ac
 8000970:	20000354 	.word	0x20000354
 8000974:	080096bc 	.word	0x080096bc
 8000978:	080096c8 	.word	0x080096c8
 800097c:	080096d4 	.word	0x080096d4
 8000980:	080096e8 	.word	0x080096e8
 8000984:	080096fc 	.word	0x080096fc
 8000988:	08009718 	.word	0x08009718
 800098c:	08009734 	.word	0x08009734
 8000990:	08009748 	.word	0x08009748
 8000994:	0800975c 	.word	0x0800975c
 8000998:	08009780 	.word	0x08009780
 800099c:	080097ac 	.word	0x080097ac
 80009a0:	080097d8 	.word	0x080097d8
 80009a4:	080097f4 	.word	0x080097f4

080009a8 <SystemClock_Config>:
/**
  * @brief System Clock Configuration
  * @retval None
  */
void SystemClock_Config(void)
{
 80009a8:	b580      	push	{r7, lr}
 80009aa:	b094      	sub	sp, #80	; 0x50
 80009ac:	af00      	add	r7, sp, #0
  RCC_OscInitTypeDef RCC_OscInitStruct = {0};
 80009ae:	f107 031c 	add.w	r3, r7, #28
 80009b2:	2234      	movs	r2, #52	; 0x34
 80009b4:	2100      	movs	r1, #0
 80009b6:	4618      	mov	r0, r3
 80009b8:	f007 fe5d 	bl	8008676 <memset>
  RCC_ClkInitTypeDef RCC_ClkInitStruct = {0};
 80009bc:	f107 0308 	add.w	r3, r7, #8
 80009c0:	2200      	movs	r2, #0
 80009c2:	601a      	str	r2, [r3, #0]
 80009c4:	605a      	str	r2, [r3, #4]
 80009c6:	609a      	str	r2, [r3, #8]
 80009c8:	60da      	str	r2, [r3, #12]
 80009ca:	611a      	str	r2, [r3, #16]

  /** Configure the main internal regulator output voltage
  */
  __HAL_RCC_PWR_CLK_ENABLE();
 80009cc:	2300      	movs	r3, #0
 80009ce:	607b      	str	r3, [r7, #4]
 80009d0:	4b2a      	ldr	r3, [pc, #168]	; (8000a7c <SystemClock_Config+0xd4>)
 80009d2:	6c1b      	ldr	r3, [r3, #64]	; 0x40
 80009d4:	4a29      	ldr	r2, [pc, #164]	; (8000a7c <SystemClock_Config+0xd4>)
 80009d6:	f043 5380 	orr.w	r3, r3, #268435456	; 0x10000000
 80009da:	6413      	str	r3, [r2, #64]	; 0x40
 80009dc:	4b27      	ldr	r3, [pc, #156]	; (8000a7c <SystemClock_Config+0xd4>)
 80009de:	6c1b      	ldr	r3, [r3, #64]	; 0x40
 80009e0:	f003 5380 	and.w	r3, r3, #268435456	; 0x10000000
 80009e4:	607b      	str	r3, [r7, #4]
 80009e6:	687b      	ldr	r3, [r7, #4]
  __HAL_PWR_VOLTAGESCALING_CONFIG(PWR_REGULATOR_VOLTAGE_SCALE3);
 80009e8:	2300      	movs	r3, #0
 80009ea:	603b      	str	r3, [r7, #0]
 80009ec:	4b24      	ldr	r3, [pc, #144]	; (8000a80 <SystemClock_Config+0xd8>)
 80009ee:	681b      	ldr	r3, [r3, #0]
 80009f0:	f423 4340 	bic.w	r3, r3, #49152	; 0xc000
 80009f4:	4a22      	ldr	r2, [pc, #136]	; (8000a80 <SystemClock_Config+0xd8>)
 80009f6:	f443 4380 	orr.w	r3, r3, #16384	; 0x4000
 80009fa:	6013      	str	r3, [r2, #0]
 80009fc:	4b20      	ldr	r3, [pc, #128]	; (8000a80 <SystemClock_Config+0xd8>)
 80009fe:	681b      	ldr	r3, [r3, #0]
 8000a00:	f403 4340 	and.w	r3, r3, #49152	; 0xc000
 8000a04:	603b      	str	r3, [r7, #0]
 8000a06:	683b      	ldr	r3, [r7, #0]
  /** Initializes the RCC Oscillators according to the specified parameters
  * in the RCC_OscInitTypeDef structure.
  */
  RCC_OscInitStruct.OscillatorType = RCC_OSCILLATORTYPE_HSI;
 8000a08:	2302      	movs	r3, #2
 8000a0a:	61fb      	str	r3, [r7, #28]
  RCC_OscInitStruct.HSIState = RCC_HSI_ON;
 8000a0c:	2301      	movs	r3, #1
 8000a0e:	62bb      	str	r3, [r7, #40]	; 0x28
  RCC_OscInitStruct.HSICalibrationValue = RCC_HSICALIBRATION_DEFAULT;
 8000a10:	2310      	movs	r3, #16
 8000a12:	62fb      	str	r3, [r7, #44]	; 0x2c
  RCC_OscInitStruct.PLL.PLLState = RCC_PLL_ON;
 8000a14:	2302      	movs	r3, #2
 8000a16:	637b      	str	r3, [r7, #52]	; 0x34
  RCC_OscInitStruct.PLL.PLLSource = RCC_PLLSOURCE_HSI;
 8000a18:	2300      	movs	r3, #0
 8000a1a:	63bb      	str	r3, [r7, #56]	; 0x38
  RCC_OscInitStruct.PLL.PLLM = 16;
 8000a1c:	2310      	movs	r3, #16
 8000a1e:	63fb      	str	r3, [r7, #60]	; 0x3c
  RCC_OscInitStruct.PLL.PLLN = 336;
 8000a20:	f44f 73a8 	mov.w	r3, #336	; 0x150
 8000a24:	643b      	str	r3, [r7, #64]	; 0x40
  RCC_OscInitStruct.PLL.PLLP = RCC_PLLP_DIV4;
 8000a26:	2304      	movs	r3, #4
 8000a28:	647b      	str	r3, [r7, #68]	; 0x44
  RCC_OscInitStruct.PLL.PLLQ = 2;
 8000a2a:	2302      	movs	r3, #2
 8000a2c:	64bb      	str	r3, [r7, #72]	; 0x48
  RCC_OscInitStruct.PLL.PLLR = 2;
 8000a2e:	2302      	movs	r3, #2
 8000a30:	64fb      	str	r3, [r7, #76]	; 0x4c
  if (HAL_RCC_OscConfig(&RCC_OscInitStruct) != HAL_OK)
 8000a32:	f107 031c 	add.w	r3, r7, #28
 8000a36:	4618      	mov	r0, r3
 8000a38:	f001 ff92 	bl	8002960 <HAL_RCC_OscConfig>
 8000a3c:	4603      	mov	r3, r0
 8000a3e:	2b00      	cmp	r3, #0
 8000a40:	d001      	beq.n	8000a46 <SystemClock_Config+0x9e>
  {
    Error_Handler();
 8000a42:	f000 f81f 	bl	8000a84 <Error_Handler>
  }
  /** Initializes the CPU, AHB and APB buses clocks
  */
  RCC_ClkInitStruct.ClockType = RCC_CLOCKTYPE_HCLK|RCC_CLOCKTYPE_SYSCLK
 8000a46:	230f      	movs	r3, #15
 8000a48:	60bb      	str	r3, [r7, #8]
                              |RCC_CLOCKTYPE_PCLK1|RCC_CLOCKTYPE_PCLK2;
  RCC_ClkInitStruct.SYSCLKSource = RCC_SYSCLKSOURCE_PLLCLK;
 8000a4a:	2302      	movs	r3, #2
 8000a4c:	60fb      	str	r3, [r7, #12]
  RCC_ClkInitStruct.AHBCLKDivider = RCC_SYSCLK_DIV1;
 8000a4e:	2300      	movs	r3, #0
 8000a50:	613b      	str	r3, [r7, #16]
  RCC_ClkInitStruct.APB1CLKDivider = RCC_HCLK_DIV2;
 8000a52:	f44f 5380 	mov.w	r3, #4096	; 0x1000
 8000a56:	617b      	str	r3, [r7, #20]
  RCC_ClkInitStruct.APB2CLKDivider = RCC_HCLK_DIV1;
 8000a58:	2300      	movs	r3, #0
 8000a5a:	61bb      	str	r3, [r7, #24]

  if (HAL_RCC_ClockConfig(&RCC_ClkInitStruct, FLASH_LATENCY_2) != HAL_OK)
 8000a5c:	f107 0308 	add.w	r3, r7, #8
 8000a60:	2102      	movs	r1, #2
 8000a62:	4618      	mov	r0, r3
 8000a64:	f001 fcc2 	bl	80023ec <HAL_RCC_ClockConfig>
 8000a68:	4603      	mov	r3, r0
 8000a6a:	2b00      	cmp	r3, #0
 8000a6c:	d001      	beq.n	8000a72 <SystemClock_Config+0xca>
  {
    Error_Handler();
 8000a6e:	f000 f809 	bl	8000a84 <Error_Handler>
  }
}
 8000a72:	bf00      	nop
 8000a74:	3750      	adds	r7, #80	; 0x50
 8000a76:	46bd      	mov	sp, r7
 8000a78:	bd80      	pop	{r7, pc}
 8000a7a:	bf00      	nop
 8000a7c:	40023800 	.word	0x40023800
 8000a80:	40007000 	.word	0x40007000

08000a84 <Error_Handler>:
/**
  * @brief  This function is executed in case of error occurrence.
  * @retval None
  */
void Error_Handler(void)
{
 8000a84:	b480      	push	{r7}
 8000a86:	af00      	add	r7, sp, #0
  \details Disables IRQ interrupts by setting the I-bit in the CPSR.
           Can only be executed in Privileged modes.
 */
__STATIC_FORCEINLINE void __disable_irq(void)
{
  __ASM volatile ("cpsid i" : : : "memory");
 8000a88:	b672      	cpsid	i
  /* USER CODE BEGIN Error_Handler_Debug */
  /* User can add his own implementation to report the HAL error return state */
  __disable_irq();
  while (1)
 8000a8a:	e7fe      	b.n	8000a8a <Error_Handler+0x6>

08000a8c <RetargetInit>:
 8000a8c:	b580      	push	{r7, lr}
 8000a8e:	b082      	sub	sp, #8
 8000a90:	af00      	add	r7, sp, #0
 8000a92:	6078      	str	r0, [r7, #4]
 8000a94:	4a07      	ldr	r2, [pc, #28]	; (8000ab4 <RetargetInit+0x28>)
 8000a96:	687b      	ldr	r3, [r7, #4]
 8000a98:	6013      	str	r3, [r2, #0]
 8000a9a:	4b07      	ldr	r3, [pc, #28]	; (8000ab8 <RetargetInit+0x2c>)
 8000a9c:	681b      	ldr	r3, [r3, #0]
 8000a9e:	6898      	ldr	r0, [r3, #8]
 8000aa0:	2300      	movs	r3, #0
 8000aa2:	2202      	movs	r2, #2
 8000aa4:	2100      	movs	r1, #0
 8000aa6:	f007 fe6b 	bl	8008780 <setvbuf>
 8000aaa:	bf00      	nop
 8000aac:	3708      	adds	r7, #8
 8000aae:	46bd      	mov	sp, r7
 8000ab0:	bd80      	pop	{r7, pc}
 8000ab2:	bf00      	nop
 8000ab4:	200003a8 	.word	0x200003a8
 8000ab8:	200002c8 	.word	0x200002c8

08000abc <_isatty>:
 8000abc:	b580      	push	{r7, lr}
 8000abe:	b082      	sub	sp, #8
 8000ac0:	af00      	add	r7, sp, #0
 8000ac2:	6078      	str	r0, [r7, #4]
 8000ac4:	687b      	ldr	r3, [r7, #4]
 8000ac6:	2b00      	cmp	r3, #0
 8000ac8:	db04      	blt.n	8000ad4 <_isatty+0x18>
 8000aca:	687b      	ldr	r3, [r7, #4]
 8000acc:	2b02      	cmp	r3, #2
 8000ace:	dc01      	bgt.n	8000ad4 <_isatty+0x18>
 8000ad0:	2301      	movs	r3, #1
 8000ad2:	e005      	b.n	8000ae0 <_isatty+0x24>
 8000ad4:	f007 fd9a 	bl	800860c <__errno>
 8000ad8:	4602      	mov	r2, r0
 8000ada:	2309      	movs	r3, #9
 8000adc:	6013      	str	r3, [r2, #0]
 8000ade:	2300      	movs	r3, #0
 8000ae0:	4618      	mov	r0, r3
 8000ae2:	3708      	adds	r7, #8
 8000ae4:	46bd      	mov	sp, r7
 8000ae6:	bd80      	pop	{r7, pc}

08000ae8 <_write>:
 8000ae8:	b580      	push	{r7, lr}
 8000aea:	b086      	sub	sp, #24
 8000aec:	af00      	add	r7, sp, #0
 8000aee:	60f8      	str	r0, [r7, #12]
 8000af0:	60b9      	str	r1, [r7, #8]
 8000af2:	607a      	str	r2, [r7, #4]
 8000af4:	68fb      	ldr	r3, [r7, #12]
 8000af6:	2b01      	cmp	r3, #1
 8000af8:	d002      	beq.n	8000b00 <_write+0x18>
 8000afa:	68fb      	ldr	r3, [r7, #12]
 8000afc:	2b02      	cmp	r3, #2
 8000afe:	d111      	bne.n	8000b24 <_write+0x3c>
 8000b00:	4b0e      	ldr	r3, [pc, #56]	; (8000b3c <_write+0x54>)
 8000b02:	6818      	ldr	r0, [r3, #0]
 8000b04:	687b      	ldr	r3, [r7, #4]
 8000b06:	b29a      	uxth	r2, r3
 8000b08:	f04f 33ff 	mov.w	r3, #4294967295
 8000b0c:	68b9      	ldr	r1, [r7, #8]
 8000b0e:	f002 f9ce 	bl	8002eae <HAL_UART_Transmit>
 8000b12:	4603      	mov	r3, r0
 8000b14:	75fb      	strb	r3, [r7, #23]
 8000b16:	7dfb      	ldrb	r3, [r7, #23]
 8000b18:	2b00      	cmp	r3, #0
 8000b1a:	d101      	bne.n	8000b20 <_write+0x38>
 8000b1c:	687b      	ldr	r3, [r7, #4]
 8000b1e:	e008      	b.n	8000b32 <_write+0x4a>
 8000b20:	2305      	movs	r3, #5
 8000b22:	e006      	b.n	8000b32 <_write+0x4a>
 8000b24:	f007 fd72 	bl	800860c <__errno>
 8000b28:	4602      	mov	r2, r0
 8000b2a:	2309      	movs	r3, #9
 8000b2c:	6013      	str	r3, [r2, #0]
 8000b2e:	f04f 33ff 	mov.w	r3, #4294967295
 8000b32:	4618      	mov	r0, r3
 8000b34:	3718      	adds	r7, #24
 8000b36:	46bd      	mov	sp, r7
 8000b38:	bd80      	pop	{r7, pc}
 8000b3a:	bf00      	nop
 8000b3c:	200003a8 	.word	0x200003a8

08000b40 <_close>:
 8000b40:	b580      	push	{r7, lr}
 8000b42:	b082      	sub	sp, #8
 8000b44:	af00      	add	r7, sp, #0
 8000b46:	6078      	str	r0, [r7, #4]
 8000b48:	687b      	ldr	r3, [r7, #4]
 8000b4a:	2b00      	cmp	r3, #0
 8000b4c:	db04      	blt.n	8000b58 <_close+0x18>
 8000b4e:	687b      	ldr	r3, [r7, #4]
 8000b50:	2b02      	cmp	r3, #2
 8000b52:	dc01      	bgt.n	8000b58 <_close+0x18>
 8000b54:	2300      	movs	r3, #0
 8000b56:	e006      	b.n	8000b66 <_close+0x26>
 8000b58:	f007 fd58 	bl	800860c <__errno>
 8000b5c:	4602      	mov	r2, r0
 8000b5e:	2309      	movs	r3, #9
 8000b60:	6013      	str	r3, [r2, #0]
 8000b62:	f04f 33ff 	mov.w	r3, #4294967295
 8000b66:	4618      	mov	r0, r3
 8000b68:	3708      	adds	r7, #8
 8000b6a:	46bd      	mov	sp, r7
 8000b6c:	bd80      	pop	{r7, pc}

08000b6e <_lseek>:
 8000b6e:	b580      	push	{r7, lr}
 8000b70:	b084      	sub	sp, #16
 8000b72:	af00      	add	r7, sp, #0
 8000b74:	60f8      	str	r0, [r7, #12]
 8000b76:	60b9      	str	r1, [r7, #8]
 8000b78:	607a      	str	r2, [r7, #4]
 8000b7a:	f007 fd47 	bl	800860c <__errno>
 8000b7e:	4602      	mov	r2, r0
 8000b80:	2309      	movs	r3, #9
 8000b82:	6013      	str	r3, [r2, #0]
 8000b84:	f04f 33ff 	mov.w	r3, #4294967295
 8000b88:	4618      	mov	r0, r3
 8000b8a:	3710      	adds	r7, #16
 8000b8c:	46bd      	mov	sp, r7
 8000b8e:	bd80      	pop	{r7, pc}

08000b90 <_read>:
 8000b90:	b580      	push	{r7, lr}
 8000b92:	b086      	sub	sp, #24
 8000b94:	af00      	add	r7, sp, #0
 8000b96:	60f8      	str	r0, [r7, #12]
 8000b98:	60b9      	str	r1, [r7, #8]
 8000b9a:	607a      	str	r2, [r7, #4]
 8000b9c:	68fb      	ldr	r3, [r7, #12]
 8000b9e:	2b00      	cmp	r3, #0
 8000ba0:	d110      	bne.n	8000bc4 <_read+0x34>
 8000ba2:	4b0e      	ldr	r3, [pc, #56]	; (8000bdc <_read+0x4c>)
 8000ba4:	6818      	ldr	r0, [r3, #0]
 8000ba6:	f04f 33ff 	mov.w	r3, #4294967295
 8000baa:	2201      	movs	r2, #1
 8000bac:	68b9      	ldr	r1, [r7, #8]
 8000bae:	f002 fa17 	bl	8002fe0 <HAL_UART_Receive>
 8000bb2:	4603      	mov	r3, r0
 8000bb4:	75fb      	strb	r3, [r7, #23]
 8000bb6:	7dfb      	ldrb	r3, [r7, #23]
 8000bb8:	2b00      	cmp	r3, #0
 8000bba:	d101      	bne.n	8000bc0 <_read+0x30>
 8000bbc:	2301      	movs	r3, #1
 8000bbe:	e008      	b.n	8000bd2 <_read+0x42>
 8000bc0:	2305      	movs	r3, #5
 8000bc2:	e006      	b.n	8000bd2 <_read+0x42>
 8000bc4:	f007 fd22 	bl	800860c <__errno>
 8000bc8:	4602      	mov	r2, r0
 8000bca:	2309      	movs	r3, #9
 8000bcc:	6013      	str	r3, [r2, #0]
 8000bce:	f04f 33ff 	mov.w	r3, #4294967295
 8000bd2:	4618      	mov	r0, r3
 8000bd4:	3718      	adds	r7, #24
 8000bd6:	46bd      	mov	sp, r7
 8000bd8:	bd80      	pop	{r7, pc}
 8000bda:	bf00      	nop
 8000bdc:	200003a8 	.word	0x200003a8

08000be0 <_fstat>:
 8000be0:	b580      	push	{r7, lr}
 8000be2:	b082      	sub	sp, #8
 8000be4:	af00      	add	r7, sp, #0
 8000be6:	6078      	str	r0, [r7, #4]
 8000be8:	6039      	str	r1, [r7, #0]
 8000bea:	687b      	ldr	r3, [r7, #4]
 8000bec:	2b00      	cmp	r3, #0
 8000bee:	db08      	blt.n	8000c02 <_fstat+0x22>
 8000bf0:	687b      	ldr	r3, [r7, #4]
 8000bf2:	2b02      	cmp	r3, #2
 8000bf4:	dc05      	bgt.n	8000c02 <_fstat+0x22>
 8000bf6:	683b      	ldr	r3, [r7, #0]
 8000bf8:	f44f 5200 	mov.w	r2, #8192	; 0x2000
 8000bfc:	605a      	str	r2, [r3, #4]
 8000bfe:	2300      	movs	r3, #0
 8000c00:	e005      	b.n	8000c0e <_fstat+0x2e>
 8000c02:	f007 fd03 	bl	800860c <__errno>
 8000c06:	4602      	mov	r2, r0
 8000c08:	2309      	movs	r3, #9
 8000c0a:	6013      	str	r3, [r2, #0]
 8000c0c:	2300      	movs	r3, #0
 8000c0e:	4618      	mov	r0, r3
 8000c10:	3708      	adds	r7, #8
 8000c12:	46bd      	mov	sp, r7
 8000c14:	bd80      	pop	{r7, pc}
	...

08000c18 <HAL_MspInit>:
 8000c18:	b580      	push	{r7, lr}
 8000c1a:	b082      	sub	sp, #8
 8000c1c:	af00      	add	r7, sp, #0
 8000c1e:	2300      	movs	r3, #0
 8000c20:	607b      	str	r3, [r7, #4]
 8000c22:	4b10      	ldr	r3, [pc, #64]	; (8000c64 <HAL_MspInit+0x4c>)
 8000c24:	6c5b      	ldr	r3, [r3, #68]	; 0x44
 8000c26:	4a0f      	ldr	r2, [pc, #60]	; (8000c64 <HAL_MspInit+0x4c>)
 8000c28:	f443 4380 	orr.w	r3, r3, #16384	; 0x4000
 8000c2c:	6453      	str	r3, [r2, #68]	; 0x44
 8000c2e:	4b0d      	ldr	r3, [pc, #52]	; (8000c64 <HAL_MspInit+0x4c>)
 8000c30:	6c5b      	ldr	r3, [r3, #68]	; 0x44
 8000c32:	f403 4380 	and.w	r3, r3, #16384	; 0x4000
 8000c36:	607b      	str	r3, [r7, #4]
 8000c38:	687b      	ldr	r3, [r7, #4]
 8000c3a:	2300      	movs	r3, #0
 8000c3c:	603b      	str	r3, [r7, #0]
 8000c3e:	4b09      	ldr	r3, [pc, #36]	; (8000c64 <HAL_MspInit+0x4c>)
 8000c40:	6c1b      	ldr	r3, [r3, #64]	; 0x40
 8000c42:	4a08      	ldr	r2, [pc, #32]	; (8000c64 <HAL_MspInit+0x4c>)
 8000c44:	f043 5380 	orr.w	r3, r3, #268435456	; 0x10000000
 8000c48:	6413      	str	r3, [r2, #64]	; 0x40
 8000c4a:	4b06      	ldr	r3, [pc, #24]	; (8000c64 <HAL_MspInit+0x4c>)
 8000c4c:	6c1b      	ldr	r3, [r3, #64]	; 0x40
 8000c4e:	f003 5380 	and.w	r3, r3, #268435456	; 0x10000000
 8000c52:	603b      	str	r3, [r7, #0]
 8000c54:	683b      	ldr	r3, [r7, #0]
 8000c56:	2007      	movs	r0, #7
 8000c58:	f000 fa5e 	bl	8001118 <HAL_NVIC_SetPriorityGrouping>
 8000c5c:	bf00      	nop
 8000c5e:	3708      	adds	r7, #8
 8000c60:	46bd      	mov	sp, r7
 8000c62:	bd80      	pop	{r7, pc}
 8000c64:	40023800 	.word	0x40023800

08000c68 <NMI_Handler>:
 8000c68:	b480      	push	{r7}
 8000c6a:	af00      	add	r7, sp, #0
 8000c6c:	e7fe      	b.n	8000c6c <NMI_Handler+0x4>

08000c6e <HardFault_Handler>:
 8000c6e:	b480      	push	{r7}
 8000c70:	af00      	add	r7, sp, #0
 8000c72:	e7fe      	b.n	8000c72 <HardFault_Handler+0x4>

08000c74 <MemManage_Handler>:
 8000c74:	b480      	push	{r7}
 8000c76:	af00      	add	r7, sp, #0
 8000c78:	e7fe      	b.n	8000c78 <MemManage_Handler+0x4>

08000c7a <BusFault_Handler>:
 8000c7a:	b480      	push	{r7}
 8000c7c:	af00      	add	r7, sp, #0
 8000c7e:	e7fe      	b.n	8000c7e <BusFault_Handler+0x4>

08000c80 <UsageFault_Handler>:
 8000c80:	b480      	push	{r7}
 8000c82:	af00      	add	r7, sp, #0
 8000c84:	e7fe      	b.n	8000c84 <UsageFault_Handler+0x4>

08000c86 <SVC_Handler>:
 8000c86:	b480      	push	{r7}
 8000c88:	af00      	add	r7, sp, #0
 8000c8a:	bf00      	nop
 8000c8c:	46bd      	mov	sp, r7
 8000c8e:	f85d 7b04 	ldr.w	r7, [sp], #4
 8000c92:	4770      	bx	lr

08000c94 <DebugMon_Handler>:
 8000c94:	b480      	push	{r7}
 8000c96:	af00      	add	r7, sp, #0
 8000c98:	bf00      	nop
 8000c9a:	46bd      	mov	sp, r7
 8000c9c:	f85d 7b04 	ldr.w	r7, [sp], #4
 8000ca0:	4770      	bx	lr

08000ca2 <PendSV_Handler>:
 8000ca2:	b480      	push	{r7}
 8000ca4:	af00      	add	r7, sp, #0
 8000ca6:	bf00      	nop
 8000ca8:	46bd      	mov	sp, r7
 8000caa:	f85d 7b04 	ldr.w	r7, [sp], #4
 8000cae:	4770      	bx	lr

08000cb0 <SysTick_Handler>:
 8000cb0:	b580      	push	{r7, lr}
 8000cb2:	af00      	add	r7, sp, #0
 8000cb4:	f000 f93c 	bl	8000f30 <HAL_IncTick>
 8000cb8:	bf00      	nop
 8000cba:	bd80      	pop	{r7, pc}

08000cbc <_sbrk>:
 8000cbc:	b580      	push	{r7, lr}
 8000cbe:	b086      	sub	sp, #24
 8000cc0:	af00      	add	r7, sp, #0
 8000cc2:	6078      	str	r0, [r7, #4]
 8000cc4:	4a14      	ldr	r2, [pc, #80]	; (8000d18 <_sbrk+0x5c>)
 8000cc6:	4b15      	ldr	r3, [pc, #84]	; (8000d1c <_sbrk+0x60>)
 8000cc8:	1ad3      	subs	r3, r2, r3
 8000cca:	617b      	str	r3, [r7, #20]
 8000ccc:	697b      	ldr	r3, [r7, #20]
 8000cce:	613b      	str	r3, [r7, #16]
 8000cd0:	4b13      	ldr	r3, [pc, #76]	; (8000d20 <_sbrk+0x64>)
 8000cd2:	681b      	ldr	r3, [r3, #0]
 8000cd4:	2b00      	cmp	r3, #0
 8000cd6:	d102      	bne.n	8000cde <_sbrk+0x22>
 8000cd8:	4b11      	ldr	r3, [pc, #68]	; (8000d20 <_sbrk+0x64>)
 8000cda:	4a12      	ldr	r2, [pc, #72]	; (8000d24 <_sbrk+0x68>)
 8000cdc:	601a      	str	r2, [r3, #0]
 8000cde:	4b10      	ldr	r3, [pc, #64]	; (8000d20 <_sbrk+0x64>)
 8000ce0:	681a      	ldr	r2, [r3, #0]
 8000ce2:	687b      	ldr	r3, [r7, #4]
 8000ce4:	4413      	add	r3, r2
 8000ce6:	693a      	ldr	r2, [r7, #16]
 8000ce8:	429a      	cmp	r2, r3
 8000cea:	d207      	bcs.n	8000cfc <_sbrk+0x40>
 8000cec:	f007 fc8e 	bl	800860c <__errno>
 8000cf0:	4602      	mov	r2, r0
 8000cf2:	230c      	movs	r3, #12
 8000cf4:	6013      	str	r3, [r2, #0]
 8000cf6:	f04f 33ff 	mov.w	r3, #4294967295
 8000cfa:	e009      	b.n	8000d10 <_sbrk+0x54>
 8000cfc:	4b08      	ldr	r3, [pc, #32]	; (8000d20 <_sbrk+0x64>)
 8000cfe:	681b      	ldr	r3, [r3, #0]
 8000d00:	60fb      	str	r3, [r7, #12]
 8000d02:	4b07      	ldr	r3, [pc, #28]	; (8000d20 <_sbrk+0x64>)
 8000d04:	681a      	ldr	r2, [r3, #0]
 8000d06:	687b      	ldr	r3, [r7, #4]
 8000d08:	4413      	add	r3, r2
 8000d0a:	4a05      	ldr	r2, [pc, #20]	; (8000d20 <_sbrk+0x64>)
 8000d0c:	6013      	str	r3, [r2, #0]
 8000d0e:	68fb      	ldr	r3, [r7, #12]
 8000d10:	4618      	mov	r0, r3
 8000d12:	3718      	adds	r7, #24
 8000d14:	46bd      	mov	sp, r7
 8000d16:	bd80      	pop	{r7, pc}
 8000d18:	20020000 	.word	0x20020000
 8000d1c:	00000400 	.word	0x00000400
 8000d20:	20000348 	.word	0x20000348
 8000d24:	20000438 	.word	0x20000438

08000d28 <SystemInit>:
 8000d28:	b480      	push	{r7}
 8000d2a:	af00      	add	r7, sp, #0
 8000d2c:	4b08      	ldr	r3, [pc, #32]	; (8000d50 <SystemInit+0x28>)
 8000d2e:	f8d3 3088 	ldr.w	r3, [r3, #136]	; 0x88
 8000d32:	4a07      	ldr	r2, [pc, #28]	; (8000d50 <SystemInit+0x28>)
 8000d34:	f443 0370 	orr.w	r3, r3, #15728640	; 0xf00000
 8000d38:	f8c2 3088 	str.w	r3, [r2, #136]	; 0x88
 8000d3c:	4b04      	ldr	r3, [pc, #16]	; (8000d50 <SystemInit+0x28>)
 8000d3e:	f04f 6200 	mov.w	r2, #134217728	; 0x8000000
 8000d42:	609a      	str	r2, [r3, #8]
 8000d44:	bf00      	nop
 8000d46:	46bd      	mov	sp, r7
 8000d48:	f85d 7b04 	ldr.w	r7, [sp], #4
 8000d4c:	4770      	bx	lr
 8000d4e:	bf00      	nop
 8000d50:	e000ed00 	.word	0xe000ed00

08000d54 <MX_USART2_UART_Init>:
 8000d54:	b580      	push	{r7, lr}
 8000d56:	af00      	add	r7, sp, #0
 8000d58:	4b11      	ldr	r3, [pc, #68]	; (8000da0 <MX_USART2_UART_Init+0x4c>)
 8000d5a:	4a12      	ldr	r2, [pc, #72]	; (8000da4 <MX_USART2_UART_Init+0x50>)
 8000d5c:	601a      	str	r2, [r3, #0]
 8000d5e:	4b10      	ldr	r3, [pc, #64]	; (8000da0 <MX_USART2_UART_Init+0x4c>)
 8000d60:	f44f 5216 	mov.w	r2, #9600	; 0x2580
 8000d64:	605a      	str	r2, [r3, #4]
 8000d66:	4b0e      	ldr	r3, [pc, #56]	; (8000da0 <MX_USART2_UART_Init+0x4c>)
 8000d68:	2200      	movs	r2, #0
 8000d6a:	609a      	str	r2, [r3, #8]
 8000d6c:	4b0c      	ldr	r3, [pc, #48]	; (8000da0 <MX_USART2_UART_Init+0x4c>)
 8000d6e:	2200      	movs	r2, #0
 8000d70:	60da      	str	r2, [r3, #12]
 8000d72:	4b0b      	ldr	r3, [pc, #44]	; (8000da0 <MX_USART2_UART_Init+0x4c>)
 8000d74:	2200      	movs	r2, #0
 8000d76:	611a      	str	r2, [r3, #16]
 8000d78:	4b09      	ldr	r3, [pc, #36]	; (8000da0 <MX_USART2_UART_Init+0x4c>)
 8000d7a:	220c      	movs	r2, #12
 8000d7c:	615a      	str	r2, [r3, #20]
 8000d7e:	4b08      	ldr	r3, [pc, #32]	; (8000da0 <MX_USART2_UART_Init+0x4c>)
 8000d80:	2200      	movs	r2, #0
 8000d82:	619a      	str	r2, [r3, #24]
 8000d84:	4b06      	ldr	r3, [pc, #24]	; (8000da0 <MX_USART2_UART_Init+0x4c>)
 8000d86:	2200      	movs	r2, #0
 8000d88:	61da      	str	r2, [r3, #28]
 8000d8a:	4805      	ldr	r0, [pc, #20]	; (8000da0 <MX_USART2_UART_Init+0x4c>)
 8000d8c:	f002 f842 	bl	8002e14 <HAL_UART_Init>
 8000d90:	4603      	mov	r3, r0
 8000d92:	2b00      	cmp	r3, #0
 8000d94:	d001      	beq.n	8000d9a <MX_USART2_UART_Init+0x46>
 8000d96:	f7ff fe75 	bl	8000a84 <Error_Handler>
 8000d9a:	bf00      	nop
 8000d9c:	bd80      	pop	{r7, pc}
 8000d9e:	bf00      	nop
 8000da0:	200003ac 	.word	0x200003ac
 8000da4:	40004400 	.word	0x40004400

08000da8 <HAL_UART_MspInit>:
 8000da8:	b580      	push	{r7, lr}
 8000daa:	b08a      	sub	sp, #40	; 0x28
 8000dac:	af00      	add	r7, sp, #0
 8000dae:	6078      	str	r0, [r7, #4]
 8000db0:	f107 0314 	add.w	r3, r7, #20
 8000db4:	2200      	movs	r2, #0
 8000db6:	601a      	str	r2, [r3, #0]
 8000db8:	605a      	str	r2, [r3, #4]
 8000dba:	609a      	str	r2, [r3, #8]
 8000dbc:	60da      	str	r2, [r3, #12]
 8000dbe:	611a      	str	r2, [r3, #16]
 8000dc0:	687b      	ldr	r3, [r7, #4]
 8000dc2:	681b      	ldr	r3, [r3, #0]
 8000dc4:	4a19      	ldr	r2, [pc, #100]	; (8000e2c <HAL_UART_MspInit+0x84>)
 8000dc6:	4293      	cmp	r3, r2
 8000dc8:	d12b      	bne.n	8000e22 <HAL_UART_MspInit+0x7a>
 8000dca:	2300      	movs	r3, #0
 8000dcc:	613b      	str	r3, [r7, #16]
 8000dce:	4b18      	ldr	r3, [pc, #96]	; (8000e30 <HAL_UART_MspInit+0x88>)
 8000dd0:	6c1b      	ldr	r3, [r3, #64]	; 0x40
 8000dd2:	4a17      	ldr	r2, [pc, #92]	; (8000e30 <HAL_UART_MspInit+0x88>)
 8000dd4:	f443 3300 	orr.w	r3, r3, #131072	; 0x20000
 8000dd8:	6413      	str	r3, [r2, #64]	; 0x40
 8000dda:	4b15      	ldr	r3, [pc, #84]	; (8000e30 <HAL_UART_MspInit+0x88>)
 8000ddc:	6c1b      	ldr	r3, [r3, #64]	; 0x40
 8000dde:	f403 3300 	and.w	r3, r3, #131072	; 0x20000
 8000de2:	613b      	str	r3, [r7, #16]
 8000de4:	693b      	ldr	r3, [r7, #16]
 8000de6:	2300      	movs	r3, #0
 8000de8:	60fb      	str	r3, [r7, #12]
 8000dea:	4b11      	ldr	r3, [pc, #68]	; (8000e30 <HAL_UART_MspInit+0x88>)
 8000dec:	6b1b      	ldr	r3, [r3, #48]	; 0x30
 8000dee:	4a10      	ldr	r2, [pc, #64]	; (8000e30 <HAL_UART_MspInit+0x88>)
 8000df0:	f043 0301 	orr.w	r3, r3, #1
 8000df4:	6313      	str	r3, [r2, #48]	; 0x30
 8000df6:	4b0e      	ldr	r3, [pc, #56]	; (8000e30 <HAL_UART_MspInit+0x88>)
 8000df8:	6b1b      	ldr	r3, [r3, #48]	; 0x30
 8000dfa:	f003 0301 	and.w	r3, r3, #1
 8000dfe:	60fb      	str	r3, [r7, #12]
 8000e00:	68fb      	ldr	r3, [r7, #12]
 8000e02:	230c      	movs	r3, #12
 8000e04:	617b      	str	r3, [r7, #20]
 8000e06:	2302      	movs	r3, #2
 8000e08:	61bb      	str	r3, [r7, #24]
 8000e0a:	2300      	movs	r3, #0
 8000e0c:	61fb      	str	r3, [r7, #28]
 8000e0e:	2303      	movs	r3, #3
 8000e10:	623b      	str	r3, [r7, #32]
 8000e12:	2307      	movs	r3, #7
 8000e14:	627b      	str	r3, [r7, #36]	; 0x24
 8000e16:	f107 0314 	add.w	r3, r7, #20
 8000e1a:	4619      	mov	r1, r3
 8000e1c:	4805      	ldr	r0, [pc, #20]	; (8000e34 <HAL_UART_MspInit+0x8c>)
 8000e1e:	f000 f9af 	bl	8001180 <HAL_GPIO_Init>
 8000e22:	bf00      	nop
 8000e24:	3728      	adds	r7, #40	; 0x28
 8000e26:	46bd      	mov	sp, r7
 8000e28:	bd80      	pop	{r7, pc}
 8000e2a:	bf00      	nop
 8000e2c:	40004400 	.word	0x40004400
 8000e30:	40023800 	.word	0x40023800
 8000e34:	40020000 	.word	0x40020000

08000e38 <Reset_Handler>:
 8000e38:	f8df d034 	ldr.w	sp, [pc, #52]	; 8000e70 <LoopFillZerobss+0x14>
 8000e3c:	2100      	movs	r1, #0
 8000e3e:	e003      	b.n	8000e48 <LoopCopyDataInit>

08000e40 <CopyDataInit>:
 8000e40:	4b0c      	ldr	r3, [pc, #48]	; (8000e74 <LoopFillZerobss+0x18>)
 8000e42:	585b      	ldr	r3, [r3, r1]
 8000e44:	5043      	str	r3, [r0, r1]
 8000e46:	3104      	adds	r1, #4

08000e48 <LoopCopyDataInit>:
 8000e48:	480b      	ldr	r0, [pc, #44]	; (8000e78 <LoopFillZerobss+0x1c>)
 8000e4a:	4b0c      	ldr	r3, [pc, #48]	; (8000e7c <LoopFillZerobss+0x20>)
 8000e4c:	1842      	adds	r2, r0, r1
 8000e4e:	429a      	cmp	r2, r3
 8000e50:	d3f6      	bcc.n	8000e40 <CopyDataInit>
 8000e52:	4a0b      	ldr	r2, [pc, #44]	; (8000e80 <LoopFillZerobss+0x24>)
 8000e54:	e002      	b.n	8000e5c <LoopFillZerobss>

08000e56 <FillZerobss>:
 8000e56:	2300      	movs	r3, #0
 8000e58:	f842 3b04 	str.w	r3, [r2], #4

08000e5c <LoopFillZerobss>:
 8000e5c:	4b09      	ldr	r3, [pc, #36]	; (8000e84 <LoopFillZerobss+0x28>)
 8000e5e:	429a      	cmp	r2, r3
 8000e60:	d3f9      	bcc.n	8000e56 <FillZerobss>
 8000e62:	f7ff ff61 	bl	8000d28 <SystemInit>
 8000e66:	f007 fbd7 	bl	8008618 <__libc_init_array>
 8000e6a:	f7ff fc87 	bl	800077c <main>
 8000e6e:	4770      	bx	lr
 8000e70:	20020000 	.word	0x20020000
 8000e74:	08009d68 	.word	0x08009d68
 8000e78:	20000000 	.word	0x20000000
 8000e7c:	2000032c 	.word	0x2000032c
 8000e80:	2000032c 	.word	0x2000032c
 8000e84:	20000434 	.word	0x20000434

08000e88 <ADC_IRQHandler>:
 8000e88:	e7fe      	b.n	8000e88 <ADC_IRQHandler>
	...

08000e8c <HAL_Init>:
 8000e8c:	b580      	push	{r7, lr}
 8000e8e:	af00      	add	r7, sp, #0
 8000e90:	4b0e      	ldr	r3, [pc, #56]	; (8000ecc <HAL_Init+0x40>)
 8000e92:	681b      	ldr	r3, [r3, #0]
 8000e94:	4a0d      	ldr	r2, [pc, #52]	; (8000ecc <HAL_Init+0x40>)
 8000e96:	f443 7300 	orr.w	r3, r3, #512	; 0x200
 8000e9a:	6013      	str	r3, [r2, #0]
 8000e9c:	4b0b      	ldr	r3, [pc, #44]	; (8000ecc <HAL_Init+0x40>)
 8000e9e:	681b      	ldr	r3, [r3, #0]
 8000ea0:	4a0a      	ldr	r2, [pc, #40]	; (8000ecc <HAL_Init+0x40>)
 8000ea2:	f443 6380 	orr.w	r3, r3, #1024	; 0x400
 8000ea6:	6013      	str	r3, [r2, #0]
 8000ea8:	4b08      	ldr	r3, [pc, #32]	; (8000ecc <HAL_Init+0x40>)
 8000eaa:	681b      	ldr	r3, [r3, #0]
 8000eac:	4a07      	ldr	r2, [pc, #28]	; (8000ecc <HAL_Init+0x40>)
 8000eae:	f443 7380 	orr.w	r3, r3, #256	; 0x100
 8000eb2:	6013      	str	r3, [r2, #0]
 8000eb4:	2003      	movs	r0, #3
 8000eb6:	f000 f92f 	bl	8001118 <HAL_NVIC_SetPriorityGrouping>
 8000eba:	2000      	movs	r0, #0
 8000ebc:	f000 f808 	bl	8000ed0 <HAL_InitTick>
 8000ec0:	f7ff feaa 	bl	8000c18 <HAL_MspInit>
 8000ec4:	2300      	movs	r3, #0
 8000ec6:	4618      	mov	r0, r3
 8000ec8:	bd80      	pop	{r7, pc}
 8000eca:	bf00      	nop
 8000ecc:	40023c00 	.word	0x40023c00

08000ed0 <HAL_InitTick>:
 8000ed0:	b580      	push	{r7, lr}
 8000ed2:	b082      	sub	sp, #8
 8000ed4:	af00      	add	r7, sp, #0
 8000ed6:	6078      	str	r0, [r7, #4]
 8000ed8:	4b12      	ldr	r3, [pc, #72]	; (8000f24 <HAL_InitTick+0x54>)
 8000eda:	681a      	ldr	r2, [r3, #0]
 8000edc:	4b12      	ldr	r3, [pc, #72]	; (8000f28 <HAL_InitTick+0x58>)
 8000ede:	781b      	ldrb	r3, [r3, #0]
 8000ee0:	4619      	mov	r1, r3
 8000ee2:	f44f 737a 	mov.w	r3, #1000	; 0x3e8
 8000ee6:	fbb3 f3f1 	udiv	r3, r3, r1
 8000eea:	fbb2 f3f3 	udiv	r3, r2, r3
 8000eee:	4618      	mov	r0, r3
 8000ef0:	f000 f939 	bl	8001166 <HAL_SYSTICK_Config>
 8000ef4:	4603      	mov	r3, r0
 8000ef6:	2b00      	cmp	r3, #0
 8000ef8:	d001      	beq.n	8000efe <HAL_InitTick+0x2e>
 8000efa:	2301      	movs	r3, #1
 8000efc:	e00e      	b.n	8000f1c <HAL_InitTick+0x4c>
 8000efe:	687b      	ldr	r3, [r7, #4]
 8000f00:	2b0f      	cmp	r3, #15
 8000f02:	d80a      	bhi.n	8000f1a <HAL_InitTick+0x4a>
 8000f04:	2200      	movs	r2, #0
 8000f06:	6879      	ldr	r1, [r7, #4]
 8000f08:	f04f 30ff 	mov.w	r0, #4294967295
 8000f0c:	f000 f90f 	bl	800112e <HAL_NVIC_SetPriority>
 8000f10:	4a06      	ldr	r2, [pc, #24]	; (8000f2c <HAL_InitTick+0x5c>)
 8000f12:	687b      	ldr	r3, [r7, #4]
 8000f14:	6013      	str	r3, [r2, #0]
 8000f16:	2300      	movs	r3, #0
 8000f18:	e000      	b.n	8000f1c <HAL_InitTick+0x4c>
 8000f1a:	2301      	movs	r3, #1
 8000f1c:	4618      	mov	r0, r3
 8000f1e:	3708      	adds	r7, #8
 8000f20:	46bd      	mov	sp, r7
 8000f22:	bd80      	pop	{r7, pc}
 8000f24:	20000000 	.word	0x20000000
 8000f28:	20000008 	.word	0x20000008
 8000f2c:	20000004 	.word	0x20000004

08000f30 <HAL_IncTick>:
 8000f30:	b480      	push	{r7}
 8000f32:	af00      	add	r7, sp, #0
 8000f34:	4b06      	ldr	r3, [pc, #24]	; (8000f50 <HAL_IncTick+0x20>)
 8000f36:	781b      	ldrb	r3, [r3, #0]
 8000f38:	461a      	mov	r2, r3
 8000f3a:	4b06      	ldr	r3, [pc, #24]	; (8000f54 <HAL_IncTick+0x24>)
 8000f3c:	681b      	ldr	r3, [r3, #0]
 8000f3e:	4413      	add	r3, r2
 8000f40:	4a04      	ldr	r2, [pc, #16]	; (8000f54 <HAL_IncTick+0x24>)
 8000f42:	6013      	str	r3, [r2, #0]
 8000f44:	bf00      	nop
 8000f46:	46bd      	mov	sp, r7
 8000f48:	f85d 7b04 	ldr.w	r7, [sp], #4
 8000f4c:	4770      	bx	lr
 8000f4e:	bf00      	nop
 8000f50:	20000008 	.word	0x20000008
 8000f54:	200003ec 	.word	0x200003ec

08000f58 <HAL_GetTick>:
 8000f58:	b480      	push	{r7}
 8000f5a:	af00      	add	r7, sp, #0
 8000f5c:	4b03      	ldr	r3, [pc, #12]	; (8000f6c <HAL_GetTick+0x14>)
 8000f5e:	681b      	ldr	r3, [r3, #0]
 8000f60:	4618      	mov	r0, r3
 8000f62:	46bd      	mov	sp, r7
 8000f64:	f85d 7b04 	ldr.w	r7, [sp], #4
 8000f68:	4770      	bx	lr
 8000f6a:	bf00      	nop
 8000f6c:	200003ec 	.word	0x200003ec

08000f70 <HAL_Delay>:
 8000f70:	b580      	push	{r7, lr}
 8000f72:	b084      	sub	sp, #16
 8000f74:	af00      	add	r7, sp, #0
 8000f76:	6078      	str	r0, [r7, #4]
 8000f78:	f7ff ffee 	bl	8000f58 <HAL_GetTick>
 8000f7c:	60b8      	str	r0, [r7, #8]
 8000f7e:	687b      	ldr	r3, [r7, #4]
 8000f80:	60fb      	str	r3, [r7, #12]
 8000f82:	68fb      	ldr	r3, [r7, #12]
 8000f84:	f1b3 3fff 	cmp.w	r3, #4294967295
 8000f88:	d005      	beq.n	8000f96 <HAL_Delay+0x26>
 8000f8a:	4b09      	ldr	r3, [pc, #36]	; (8000fb0 <HAL_Delay+0x40>)
 8000f8c:	781b      	ldrb	r3, [r3, #0]
 8000f8e:	461a      	mov	r2, r3
 8000f90:	68fb      	ldr	r3, [r7, #12]
 8000f92:	4413      	add	r3, r2
 8000f94:	60fb      	str	r3, [r7, #12]
 8000f96:	bf00      	nop
 8000f98:	f7ff ffde 	bl	8000f58 <HAL_GetTick>
 8000f9c:	4602      	mov	r2, r0
 8000f9e:	68bb      	ldr	r3, [r7, #8]
 8000fa0:	1ad3      	subs	r3, r2, r3
 8000fa2:	68fa      	ldr	r2, [r7, #12]
 8000fa4:	429a      	cmp	r2, r3
 8000fa6:	d8f7      	bhi.n	8000f98 <HAL_Delay+0x28>
 8000fa8:	bf00      	nop
 8000faa:	3710      	adds	r7, #16
 8000fac:	46bd      	mov	sp, r7
 8000fae:	bd80      	pop	{r7, pc}
 8000fb0:	20000008 	.word	0x20000008

08000fb4 <__NVIC_SetPriorityGrouping>:
 8000fb4:	b480      	push	{r7}
 8000fb6:	b085      	sub	sp, #20
 8000fb8:	af00      	add	r7, sp, #0
 8000fba:	6078      	str	r0, [r7, #4]
 8000fbc:	687b      	ldr	r3, [r7, #4]
 8000fbe:	f003 0307 	and.w	r3, r3, #7
 8000fc2:	60fb      	str	r3, [r7, #12]
 8000fc4:	4b0c      	ldr	r3, [pc, #48]	; (8000ff8 <__NVIC_SetPriorityGrouping+0x44>)
 8000fc6:	68db      	ldr	r3, [r3, #12]
 8000fc8:	60bb      	str	r3, [r7, #8]
 8000fca:	68ba      	ldr	r2, [r7, #8]
 8000fcc:	f64f 03ff 	movw	r3, #63743	; 0xf8ff
 8000fd0:	4013      	ands	r3, r2
 8000fd2:	60bb      	str	r3, [r7, #8]
 8000fd4:	68fb      	ldr	r3, [r7, #12]
 8000fd6:	021a      	lsls	r2, r3, #8
 8000fd8:	68bb      	ldr	r3, [r7, #8]
 8000fda:	4313      	orrs	r3, r2
 8000fdc:	f043 63bf 	orr.w	r3, r3, #100139008	; 0x5f80000
 8000fe0:	f443 3300 	orr.w	r3, r3, #131072	; 0x20000
 8000fe4:	60bb      	str	r3, [r7, #8]
 8000fe6:	4a04      	ldr	r2, [pc, #16]	; (8000ff8 <__NVIC_SetPriorityGrouping+0x44>)
 8000fe8:	68bb      	ldr	r3, [r7, #8]
 8000fea:	60d3      	str	r3, [r2, #12]
 8000fec:	bf00      	nop
 8000fee:	3714      	adds	r7, #20
 8000ff0:	46bd      	mov	sp, r7
 8000ff2:	f85d 7b04 	ldr.w	r7, [sp], #4
 8000ff6:	4770      	bx	lr
 8000ff8:	e000ed00 	.word	0xe000ed00

08000ffc <__NVIC_GetPriorityGrouping>:
 8000ffc:	b480      	push	{r7}
 8000ffe:	af00      	add	r7, sp, #0
 8001000:	4b04      	ldr	r3, [pc, #16]	; (8001014 <__NVIC_GetPriorityGrouping+0x18>)
 8001002:	68db      	ldr	r3, [r3, #12]
 8001004:	0a1b      	lsrs	r3, r3, #8
 8001006:	f003 0307 	and.w	r3, r3, #7
 800100a:	4618      	mov	r0, r3
 800100c:	46bd      	mov	sp, r7
 800100e:	f85d 7b04 	ldr.w	r7, [sp], #4
 8001012:	4770      	bx	lr
 8001014:	e000ed00 	.word	0xe000ed00

08001018 <__NVIC_SetPriority>:
 8001018:	b480      	push	{r7}
 800101a:	b083      	sub	sp, #12
 800101c:	af00      	add	r7, sp, #0
 800101e:	4603      	mov	r3, r0
 8001020:	6039      	str	r1, [r7, #0]
 8001022:	71fb      	strb	r3, [r7, #7]
 8001024:	f997 3007 	ldrsb.w	r3, [r7, #7]
 8001028:	2b00      	cmp	r3, #0
 800102a:	db0a      	blt.n	8001042 <__NVIC_SetPriority+0x2a>
 800102c:	683b      	ldr	r3, [r7, #0]
 800102e:	b2da      	uxtb	r2, r3
 8001030:	490c      	ldr	r1, [pc, #48]	; (8001064 <__NVIC_SetPriority+0x4c>)
 8001032:	f997 3007 	ldrsb.w	r3, [r7, #7]
 8001036:	0112      	lsls	r2, r2, #4
 8001038:	b2d2      	uxtb	r2, r2
 800103a:	440b      	add	r3, r1
 800103c:	f883 2300 	strb.w	r2, [r3, #768]	; 0x300
 8001040:	e00a      	b.n	8001058 <__NVIC_SetPriority+0x40>
 8001042:	683b      	ldr	r3, [r7, #0]
 8001044:	b2da      	uxtb	r2, r3
 8001046:	4908      	ldr	r1, [pc, #32]	; (8001068 <__NVIC_SetPriority+0x50>)
 8001048:	79fb      	ldrb	r3, [r7, #7]
 800104a:	f003 030f 	and.w	r3, r3, #15
 800104e:	3b04      	subs	r3, #4
 8001050:	0112      	lsls	r2, r2, #4
 8001052:	b2d2      	uxtb	r2, r2
 8001054:	440b      	add	r3, r1
 8001056:	761a      	strb	r2, [r3, #24]
 8001058:	bf00      	nop
 800105a:	370c      	adds	r7, #12
 800105c:	46bd      	mov	sp, r7
 800105e:	f85d 7b04 	ldr.w	r7, [sp], #4
 8001062:	4770      	bx	lr
 8001064:	e000e100 	.word	0xe000e100
 8001068:	e000ed00 	.word	0xe000ed00

0800106c <NVIC_EncodePriority>:
 800106c:	b480      	push	{r7}
 800106e:	b089      	sub	sp, #36	; 0x24
 8001070:	af00      	add	r7, sp, #0
 8001072:	60f8      	str	r0, [r7, #12]
 8001074:	60b9      	str	r1, [r7, #8]
 8001076:	607a      	str	r2, [r7, #4]
 8001078:	68fb      	ldr	r3, [r7, #12]
 800107a:	f003 0307 	and.w	r3, r3, #7
 800107e:	61fb      	str	r3, [r7, #28]
 8001080:	69fb      	ldr	r3, [r7, #28]
 8001082:	f1c3 0307 	rsb	r3, r3, #7
 8001086:	2b04      	cmp	r3, #4
 8001088:	bf28      	it	cs
 800108a:	2304      	movcs	r3, #4
 800108c:	61bb      	str	r3, [r7, #24]
 800108e:	69fb      	ldr	r3, [r7, #28]
 8001090:	3304      	adds	r3, #4
 8001092:	2b06      	cmp	r3, #6
 8001094:	d902      	bls.n	800109c <NVIC_EncodePriority+0x30>
 8001096:	69fb      	ldr	r3, [r7, #28]
 8001098:	3b03      	subs	r3, #3
 800109a:	e000      	b.n	800109e <NVIC_EncodePriority+0x32>
 800109c:	2300      	movs	r3, #0
 800109e:	617b      	str	r3, [r7, #20]
 80010a0:	f04f 32ff 	mov.w	r2, #4294967295
 80010a4:	69bb      	ldr	r3, [r7, #24]
 80010a6:	fa02 f303 	lsl.w	r3, r2, r3
 80010aa:	43da      	mvns	r2, r3
 80010ac:	68bb      	ldr	r3, [r7, #8]
 80010ae:	401a      	ands	r2, r3
 80010b0:	697b      	ldr	r3, [r7, #20]
 80010b2:	409a      	lsls	r2, r3
 80010b4:	f04f 31ff 	mov.w	r1, #4294967295
 80010b8:	697b      	ldr	r3, [r7, #20]
 80010ba:	fa01 f303 	lsl.w	r3, r1, r3
 80010be:	43d9      	mvns	r1, r3
 80010c0:	687b      	ldr	r3, [r7, #4]
 80010c2:	400b      	ands	r3, r1
 80010c4:	4313      	orrs	r3, r2
 80010c6:	4618      	mov	r0, r3
 80010c8:	3724      	adds	r7, #36	; 0x24
 80010ca:	46bd      	mov	sp, r7
 80010cc:	f85d 7b04 	ldr.w	r7, [sp], #4
 80010d0:	4770      	bx	lr
	...

080010d4 <SysTick_Config>:
 80010d4:	b580      	push	{r7, lr}
 80010d6:	b082      	sub	sp, #8
 80010d8:	af00      	add	r7, sp, #0
 80010da:	6078      	str	r0, [r7, #4]
 80010dc:	687b      	ldr	r3, [r7, #4]
 80010de:	3b01      	subs	r3, #1
 80010e0:	f1b3 7f80 	cmp.w	r3, #16777216	; 0x1000000
 80010e4:	d301      	bcc.n	80010ea <SysTick_Config+0x16>
 80010e6:	2301      	movs	r3, #1
 80010e8:	e00f      	b.n	800110a <SysTick_Config+0x36>
 80010ea:	4a0a      	ldr	r2, [pc, #40]	; (8001114 <SysTick_Config+0x40>)
 80010ec:	687b      	ldr	r3, [r7, #4]
 80010ee:	3b01      	subs	r3, #1
 80010f0:	6053      	str	r3, [r2, #4]
 80010f2:	210f      	movs	r1, #15
 80010f4:	f04f 30ff 	mov.w	r0, #4294967295
 80010f8:	f7ff ff8e 	bl	8001018 <__NVIC_SetPriority>
 80010fc:	4b05      	ldr	r3, [pc, #20]	; (8001114 <SysTick_Config+0x40>)
 80010fe:	2200      	movs	r2, #0
 8001100:	609a      	str	r2, [r3, #8]
 8001102:	4b04      	ldr	r3, [pc, #16]	; (8001114 <SysTick_Config+0x40>)
 8001104:	2207      	movs	r2, #7
 8001106:	601a      	str	r2, [r3, #0]
 8001108:	2300      	movs	r3, #0
 800110a:	4618      	mov	r0, r3
 800110c:	3708      	adds	r7, #8
 800110e:	46bd      	mov	sp, r7
 8001110:	bd80      	pop	{r7, pc}
 8001112:	bf00      	nop
 8001114:	e000e010 	.word	0xe000e010

08001118 <HAL_NVIC_SetPriorityGrouping>:
 8001118:	b580      	push	{r7, lr}
 800111a:	b082      	sub	sp, #8
 800111c:	af00      	add	r7, sp, #0
 800111e:	6078      	str	r0, [r7, #4]
 8001120:	6878      	ldr	r0, [r7, #4]
 8001122:	f7ff ff47 	bl	8000fb4 <__NVIC_SetPriorityGrouping>
 8001126:	bf00      	nop
 8001128:	3708      	adds	r7, #8
 800112a:	46bd      	mov	sp, r7
 800112c:	bd80      	pop	{r7, pc}

0800112e <HAL_NVIC_SetPriority>:
 800112e:	b580      	push	{r7, lr}
 8001130:	b086      	sub	sp, #24
 8001132:	af00      	add	r7, sp, #0
 8001134:	4603      	mov	r3, r0
 8001136:	60b9      	str	r1, [r7, #8]
 8001138:	607a      	str	r2, [r7, #4]
 800113a:	73fb      	strb	r3, [r7, #15]
 800113c:	2300      	movs	r3, #0
 800113e:	617b      	str	r3, [r7, #20]
 8001140:	f7ff ff5c 	bl	8000ffc <__NVIC_GetPriorityGrouping>
 8001144:	6178      	str	r0, [r7, #20]
 8001146:	687a      	ldr	r2, [r7, #4]
 8001148:	68b9      	ldr	r1, [r7, #8]
 800114a:	6978      	ldr	r0, [r7, #20]
 800114c:	f7ff ff8e 	bl	800106c <NVIC_EncodePriority>
 8001150:	4602      	mov	r2, r0
 8001152:	f997 300f 	ldrsb.w	r3, [r7, #15]
 8001156:	4611      	mov	r1, r2
 8001158:	4618      	mov	r0, r3
 800115a:	f7ff ff5d 	bl	8001018 <__NVIC_SetPriority>
 800115e:	bf00      	nop
 8001160:	3718      	adds	r7, #24
 8001162:	46bd      	mov	sp, r7
 8001164:	bd80      	pop	{r7, pc}

08001166 <HAL_SYSTICK_Config>:
 8001166:	b580      	push	{r7, lr}
 8001168:	b082      	sub	sp, #8
 800116a:	af00      	add	r7, sp, #0
 800116c:	6078      	str	r0, [r7, #4]
 800116e:	6878      	ldr	r0, [r7, #4]
 8001170:	f7ff ffb0 	bl	80010d4 <SysTick_Config>
 8001174:	4603      	mov	r3, r0
 8001176:	4618      	mov	r0, r3
 8001178:	3708      	adds	r7, #8
 800117a:	46bd      	mov	sp, r7
 800117c:	bd80      	pop	{r7, pc}
	...

08001180 <HAL_GPIO_Init>:
 8001180:	b480      	push	{r7}
 8001182:	b089      	sub	sp, #36	; 0x24
 8001184:	af00      	add	r7, sp, #0
 8001186:	6078      	str	r0, [r7, #4]
 8001188:	6039      	str	r1, [r7, #0]
 800118a:	2300      	movs	r3, #0
 800118c:	617b      	str	r3, [r7, #20]
 800118e:	2300      	movs	r3, #0
 8001190:	613b      	str	r3, [r7, #16]
 8001192:	2300      	movs	r3, #0
 8001194:	61bb      	str	r3, [r7, #24]
 8001196:	2300      	movs	r3, #0
 8001198:	61fb      	str	r3, [r7, #28]
 800119a:	e165      	b.n	8001468 <HAL_GPIO_Init+0x2e8>
 800119c:	2201      	movs	r2, #1
 800119e:	69fb      	ldr	r3, [r7, #28]
 80011a0:	fa02 f303 	lsl.w	r3, r2, r3
 80011a4:	617b      	str	r3, [r7, #20]
 80011a6:	683b      	ldr	r3, [r7, #0]
 80011a8:	681b      	ldr	r3, [r3, #0]
 80011aa:	697a      	ldr	r2, [r7, #20]
 80011ac:	4013      	ands	r3, r2
 80011ae:	613b      	str	r3, [r7, #16]
 80011b0:	693a      	ldr	r2, [r7, #16]
 80011b2:	697b      	ldr	r3, [r7, #20]
 80011b4:	429a      	cmp	r2, r3
 80011b6:	f040 8154 	bne.w	8001462 <HAL_GPIO_Init+0x2e2>
 80011ba:	683b      	ldr	r3, [r7, #0]
 80011bc:	685b      	ldr	r3, [r3, #4]
 80011be:	2b01      	cmp	r3, #1
 80011c0:	d00b      	beq.n	80011da <HAL_GPIO_Init+0x5a>
 80011c2:	683b      	ldr	r3, [r7, #0]
 80011c4:	685b      	ldr	r3, [r3, #4]
 80011c6:	2b02      	cmp	r3, #2
 80011c8:	d007      	beq.n	80011da <HAL_GPIO_Init+0x5a>
 80011ca:	683b      	ldr	r3, [r7, #0]
 80011cc:	685b      	ldr	r3, [r3, #4]
 80011ce:	2b11      	cmp	r3, #17
 80011d0:	d003      	beq.n	80011da <HAL_GPIO_Init+0x5a>
 80011d2:	683b      	ldr	r3, [r7, #0]
 80011d4:	685b      	ldr	r3, [r3, #4]
 80011d6:	2b12      	cmp	r3, #18
 80011d8:	d130      	bne.n	800123c <HAL_GPIO_Init+0xbc>
 80011da:	687b      	ldr	r3, [r7, #4]
 80011dc:	689b      	ldr	r3, [r3, #8]
 80011de:	61bb      	str	r3, [r7, #24]
 80011e0:	69fb      	ldr	r3, [r7, #28]
 80011e2:	005b      	lsls	r3, r3, #1
 80011e4:	2203      	movs	r2, #3
 80011e6:	fa02 f303 	lsl.w	r3, r2, r3
 80011ea:	43db      	mvns	r3, r3
 80011ec:	69ba      	ldr	r2, [r7, #24]
 80011ee:	4013      	ands	r3, r2
 80011f0:	61bb      	str	r3, [r7, #24]
 80011f2:	683b      	ldr	r3, [r7, #0]
 80011f4:	68da      	ldr	r2, [r3, #12]
 80011f6:	69fb      	ldr	r3, [r7, #28]
 80011f8:	005b      	lsls	r3, r3, #1
 80011fa:	fa02 f303 	lsl.w	r3, r2, r3
 80011fe:	69ba      	ldr	r2, [r7, #24]
 8001200:	4313      	orrs	r3, r2
 8001202:	61bb      	str	r3, [r7, #24]
 8001204:	687b      	ldr	r3, [r7, #4]
 8001206:	69ba      	ldr	r2, [r7, #24]
 8001208:	609a      	str	r2, [r3, #8]
 800120a:	687b      	ldr	r3, [r7, #4]
 800120c:	685b      	ldr	r3, [r3, #4]
 800120e:	61bb      	str	r3, [r7, #24]
 8001210:	2201      	movs	r2, #1
 8001212:	69fb      	ldr	r3, [r7, #28]
 8001214:	fa02 f303 	lsl.w	r3, r2, r3
 8001218:	43db      	mvns	r3, r3
 800121a:	69ba      	ldr	r2, [r7, #24]
 800121c:	4013      	ands	r3, r2
 800121e:	61bb      	str	r3, [r7, #24]
 8001220:	683b      	ldr	r3, [r7, #0]
 8001222:	685b      	ldr	r3, [r3, #4]
 8001224:	091b      	lsrs	r3, r3, #4
 8001226:	f003 0201 	and.w	r2, r3, #1
 800122a:	69fb      	ldr	r3, [r7, #28]
 800122c:	fa02 f303 	lsl.w	r3, r2, r3
 8001230:	69ba      	ldr	r2, [r7, #24]
 8001232:	4313      	orrs	r3, r2
 8001234:	61bb      	str	r3, [r7, #24]
 8001236:	687b      	ldr	r3, [r7, #4]
 8001238:	69ba      	ldr	r2, [r7, #24]
 800123a:	605a      	str	r2, [r3, #4]
 800123c:	687b      	ldr	r3, [r7, #4]
 800123e:	68db      	ldr	r3, [r3, #12]
 8001240:	61bb      	str	r3, [r7, #24]
 8001242:	69fb      	ldr	r3, [r7, #28]
 8001244:	005b      	lsls	r3, r3, #1
 8001246:	2203      	movs	r2, #3
 8001248:	fa02 f303 	lsl.w	r3, r2, r3
 800124c:	43db      	mvns	r3, r3
 800124e:	69ba      	ldr	r2, [r7, #24]
 8001250:	4013      	ands	r3, r2
 8001252:	61bb      	str	r3, [r7, #24]
 8001254:	683b      	ldr	r3, [r7, #0]
 8001256:	689a      	ldr	r2, [r3, #8]
 8001258:	69fb      	ldr	r3, [r7, #28]
 800125a:	005b      	lsls	r3, r3, #1
 800125c:	fa02 f303 	lsl.w	r3, r2, r3
 8001260:	69ba      	ldr	r2, [r7, #24]
 8001262:	4313      	orrs	r3, r2
 8001264:	61bb      	str	r3, [r7, #24]
 8001266:	687b      	ldr	r3, [r7, #4]
 8001268:	69ba      	ldr	r2, [r7, #24]
 800126a:	60da      	str	r2, [r3, #12]
 800126c:	683b      	ldr	r3, [r7, #0]
 800126e:	685b      	ldr	r3, [r3, #4]
 8001270:	2b02      	cmp	r3, #2
 8001272:	d003      	beq.n	800127c <HAL_GPIO_Init+0xfc>
 8001274:	683b      	ldr	r3, [r7, #0]
 8001276:	685b      	ldr	r3, [r3, #4]
 8001278:	2b12      	cmp	r3, #18
 800127a:	d123      	bne.n	80012c4 <HAL_GPIO_Init+0x144>
 800127c:	69fb      	ldr	r3, [r7, #28]
 800127e:	08da      	lsrs	r2, r3, #3
 8001280:	687b      	ldr	r3, [r7, #4]
 8001282:	3208      	adds	r2, #8
 8001284:	f853 3022 	ldr.w	r3, [r3, r2, lsl #2]
 8001288:	61bb      	str	r3, [r7, #24]
 800128a:	69fb      	ldr	r3, [r7, #28]
 800128c:	f003 0307 	and.w	r3, r3, #7
 8001290:	009b      	lsls	r3, r3, #2
 8001292:	220f      	movs	r2, #15
 8001294:	fa02 f303 	lsl.w	r3, r2, r3
 8001298:	43db      	mvns	r3, r3
 800129a:	69ba      	ldr	r2, [r7, #24]
 800129c:	4013      	ands	r3, r2
 800129e:	61bb      	str	r3, [r7, #24]
 80012a0:	683b      	ldr	r3, [r7, #0]
 80012a2:	691a      	ldr	r2, [r3, #16]
 80012a4:	69fb      	ldr	r3, [r7, #28]
 80012a6:	f003 0307 	and.w	r3, r3, #7
 80012aa:	009b      	lsls	r3, r3, #2
 80012ac:	fa02 f303 	lsl.w	r3, r2, r3
 80012b0:	69ba      	ldr	r2, [r7, #24]
 80012b2:	4313      	orrs	r3, r2
 80012b4:	61bb      	str	r3, [r7, #24]
 80012b6:	69fb      	ldr	r3, [r7, #28]
 80012b8:	08da      	lsrs	r2, r3, #3
 80012ba:	687b      	ldr	r3, [r7, #4]
 80012bc:	3208      	adds	r2, #8
 80012be:	69b9      	ldr	r1, [r7, #24]
 80012c0:	f843 1022 	str.w	r1, [r3, r2, lsl #2]
 80012c4:	687b      	ldr	r3, [r7, #4]
 80012c6:	681b      	ldr	r3, [r3, #0]
 80012c8:	61bb      	str	r3, [r7, #24]
 80012ca:	69fb      	ldr	r3, [r7, #28]
 80012cc:	005b      	lsls	r3, r3, #1
 80012ce:	2203      	movs	r2, #3
 80012d0:	fa02 f303 	lsl.w	r3, r2, r3
 80012d4:	43db      	mvns	r3, r3
 80012d6:	69ba      	ldr	r2, [r7, #24]
 80012d8:	4013      	ands	r3, r2
 80012da:	61bb      	str	r3, [r7, #24]
 80012dc:	683b      	ldr	r3, [r7, #0]
 80012de:	685b      	ldr	r3, [r3, #4]
 80012e0:	f003 0203 	and.w	r2, r3, #3
 80012e4:	69fb      	ldr	r3, [r7, #28]
 80012e6:	005b      	lsls	r3, r3, #1
 80012e8:	fa02 f303 	lsl.w	r3, r2, r3
 80012ec:	69ba      	ldr	r2, [r7, #24]
 80012ee:	4313      	orrs	r3, r2
 80012f0:	61bb      	str	r3, [r7, #24]
 80012f2:	687b      	ldr	r3, [r7, #4]
 80012f4:	69ba      	ldr	r2, [r7, #24]
 80012f6:	601a      	str	r2, [r3, #0]
 80012f8:	683b      	ldr	r3, [r7, #0]
 80012fa:	685b      	ldr	r3, [r3, #4]
 80012fc:	f003 5380 	and.w	r3, r3, #268435456	; 0x10000000
 8001300:	2b00      	cmp	r3, #0
 8001302:	f000 80ae 	beq.w	8001462 <HAL_GPIO_Init+0x2e2>
 8001306:	2300      	movs	r3, #0
 8001308:	60fb      	str	r3, [r7, #12]
 800130a:	4b5c      	ldr	r3, [pc, #368]	; (800147c <HAL_GPIO_Init+0x2fc>)
 800130c:	6c5b      	ldr	r3, [r3, #68]	; 0x44
 800130e:	4a5b      	ldr	r2, [pc, #364]	; (800147c <HAL_GPIO_Init+0x2fc>)
 8001310:	f443 4380 	orr.w	r3, r3, #16384	; 0x4000
 8001314:	6453      	str	r3, [r2, #68]	; 0x44
 8001316:	4b59      	ldr	r3, [pc, #356]	; (800147c <HAL_GPIO_Init+0x2fc>)
 8001318:	6c5b      	ldr	r3, [r3, #68]	; 0x44
 800131a:	f403 4380 	and.w	r3, r3, #16384	; 0x4000
 800131e:	60fb      	str	r3, [r7, #12]
 8001320:	68fb      	ldr	r3, [r7, #12]
 8001322:	4a57      	ldr	r2, [pc, #348]	; (8001480 <HAL_GPIO_Init+0x300>)
 8001324:	69fb      	ldr	r3, [r7, #28]
 8001326:	089b      	lsrs	r3, r3, #2
 8001328:	3302      	adds	r3, #2
 800132a:	f852 3023 	ldr.w	r3, [r2, r3, lsl #2]
 800132e:	61bb      	str	r3, [r7, #24]
 8001330:	69fb      	ldr	r3, [r7, #28]
 8001332:	f003 0303 	and.w	r3, r3, #3
 8001336:	009b      	lsls	r3, r3, #2
 8001338:	220f      	movs	r2, #15
 800133a:	fa02 f303 	lsl.w	r3, r2, r3
 800133e:	43db      	mvns	r3, r3
 8001340:	69ba      	ldr	r2, [r7, #24]
 8001342:	4013      	ands	r3, r2
 8001344:	61bb      	str	r3, [r7, #24]
 8001346:	687b      	ldr	r3, [r7, #4]
 8001348:	4a4e      	ldr	r2, [pc, #312]	; (8001484 <HAL_GPIO_Init+0x304>)
 800134a:	4293      	cmp	r3, r2
 800134c:	d025      	beq.n	800139a <HAL_GPIO_Init+0x21a>
 800134e:	687b      	ldr	r3, [r7, #4]
 8001350:	4a4d      	ldr	r2, [pc, #308]	; (8001488 <HAL_GPIO_Init+0x308>)
 8001352:	4293      	cmp	r3, r2
 8001354:	d01f      	beq.n	8001396 <HAL_GPIO_Init+0x216>
 8001356:	687b      	ldr	r3, [r7, #4]
 8001358:	4a4c      	ldr	r2, [pc, #304]	; (800148c <HAL_GPIO_Init+0x30c>)
 800135a:	4293      	cmp	r3, r2
 800135c:	d019      	beq.n	8001392 <HAL_GPIO_Init+0x212>
 800135e:	687b      	ldr	r3, [r7, #4]
 8001360:	4a4b      	ldr	r2, [pc, #300]	; (8001490 <HAL_GPIO_Init+0x310>)
 8001362:	4293      	cmp	r3, r2
 8001364:	d013      	beq.n	800138e <HAL_GPIO_Init+0x20e>
 8001366:	687b      	ldr	r3, [r7, #4]
 8001368:	4a4a      	ldr	r2, [pc, #296]	; (8001494 <HAL_GPIO_Init+0x314>)
 800136a:	4293      	cmp	r3, r2
 800136c:	d00d      	beq.n	800138a <HAL_GPIO_Init+0x20a>
 800136e:	687b      	ldr	r3, [r7, #4]
 8001370:	4a49      	ldr	r2, [pc, #292]	; (8001498 <HAL_GPIO_Init+0x318>)
 8001372:	4293      	cmp	r3, r2
 8001374:	d007      	beq.n	8001386 <HAL_GPIO_Init+0x206>
 8001376:	687b      	ldr	r3, [r7, #4]
 8001378:	4a48      	ldr	r2, [pc, #288]	; (800149c <HAL_GPIO_Init+0x31c>)
 800137a:	4293      	cmp	r3, r2
 800137c:	d101      	bne.n	8001382 <HAL_GPIO_Init+0x202>
 800137e:	2306      	movs	r3, #6
 8001380:	e00c      	b.n	800139c <HAL_GPIO_Init+0x21c>
 8001382:	2307      	movs	r3, #7
 8001384:	e00a      	b.n	800139c <HAL_GPIO_Init+0x21c>
 8001386:	2305      	movs	r3, #5
 8001388:	e008      	b.n	800139c <HAL_GPIO_Init+0x21c>
 800138a:	2304      	movs	r3, #4
 800138c:	e006      	b.n	800139c <HAL_GPIO_Init+0x21c>
 800138e:	2303      	movs	r3, #3
 8001390:	e004      	b.n	800139c <HAL_GPIO_Init+0x21c>
 8001392:	2302      	movs	r3, #2
 8001394:	e002      	b.n	800139c <HAL_GPIO_Init+0x21c>
 8001396:	2301      	movs	r3, #1
 8001398:	e000      	b.n	800139c <HAL_GPIO_Init+0x21c>
 800139a:	2300      	movs	r3, #0
 800139c:	69fa      	ldr	r2, [r7, #28]
 800139e:	f002 0203 	and.w	r2, r2, #3
 80013a2:	0092      	lsls	r2, r2, #2
 80013a4:	4093      	lsls	r3, r2
 80013a6:	69ba      	ldr	r2, [r7, #24]
 80013a8:	4313      	orrs	r3, r2
 80013aa:	61bb      	str	r3, [r7, #24]
 80013ac:	4934      	ldr	r1, [pc, #208]	; (8001480 <HAL_GPIO_Init+0x300>)
 80013ae:	69fb      	ldr	r3, [r7, #28]
 80013b0:	089b      	lsrs	r3, r3, #2
 80013b2:	3302      	adds	r3, #2
 80013b4:	69ba      	ldr	r2, [r7, #24]
 80013b6:	f841 2023 	str.w	r2, [r1, r3, lsl #2]
 80013ba:	4b39      	ldr	r3, [pc, #228]	; (80014a0 <HAL_GPIO_Init+0x320>)
 80013bc:	681b      	ldr	r3, [r3, #0]
 80013be:	61bb      	str	r3, [r7, #24]
 80013c0:	693b      	ldr	r3, [r7, #16]
 80013c2:	43db      	mvns	r3, r3
 80013c4:	69ba      	ldr	r2, [r7, #24]
 80013c6:	4013      	ands	r3, r2
 80013c8:	61bb      	str	r3, [r7, #24]
 80013ca:	683b      	ldr	r3, [r7, #0]
 80013cc:	685b      	ldr	r3, [r3, #4]
 80013ce:	f403 3380 	and.w	r3, r3, #65536	; 0x10000
 80013d2:	2b00      	cmp	r3, #0
 80013d4:	d003      	beq.n	80013de <HAL_GPIO_Init+0x25e>
 80013d6:	69ba      	ldr	r2, [r7, #24]
 80013d8:	693b      	ldr	r3, [r7, #16]
 80013da:	4313      	orrs	r3, r2
 80013dc:	61bb      	str	r3, [r7, #24]
 80013de:	4a30      	ldr	r2, [pc, #192]	; (80014a0 <HAL_GPIO_Init+0x320>)
 80013e0:	69bb      	ldr	r3, [r7, #24]
 80013e2:	6013      	str	r3, [r2, #0]
 80013e4:	4b2e      	ldr	r3, [pc, #184]	; (80014a0 <HAL_GPIO_Init+0x320>)
 80013e6:	685b      	ldr	r3, [r3, #4]
 80013e8:	61bb      	str	r3, [r7, #24]
 80013ea:	693b      	ldr	r3, [r7, #16]
 80013ec:	43db      	mvns	r3, r3
 80013ee:	69ba      	ldr	r2, [r7, #24]
 80013f0:	4013      	ands	r3, r2
 80013f2:	61bb      	str	r3, [r7, #24]
 80013f4:	683b      	ldr	r3, [r7, #0]
 80013f6:	685b      	ldr	r3, [r3, #4]
 80013f8:	f403 3300 	and.w	r3, r3, #131072	; 0x20000
 80013fc:	2b00      	cmp	r3, #0
 80013fe:	d003      	beq.n	8001408 <HAL_GPIO_Init+0x288>
 8001400:	69ba      	ldr	r2, [r7, #24]
 8001402:	693b      	ldr	r3, [r7, #16]
 8001404:	4313      	orrs	r3, r2
 8001406:	61bb      	str	r3, [r7, #24]
 8001408:	4a25      	ldr	r2, [pc, #148]	; (80014a0 <HAL_GPIO_Init+0x320>)
 800140a:	69bb      	ldr	r3, [r7, #24]
 800140c:	6053      	str	r3, [r2, #4]
 800140e:	4b24      	ldr	r3, [pc, #144]	; (80014a0 <HAL_GPIO_Init+0x320>)
 8001410:	689b      	ldr	r3, [r3, #8]
 8001412:	61bb      	str	r3, [r7, #24]
 8001414:	693b      	ldr	r3, [r7, #16]
 8001416:	43db      	mvns	r3, r3
 8001418:	69ba      	ldr	r2, [r7, #24]
 800141a:	4013      	ands	r3, r2
 800141c:	61bb      	str	r3, [r7, #24]
 800141e:	683b      	ldr	r3, [r7, #0]
 8001420:	685b      	ldr	r3, [r3, #4]
 8001422:	f403 1380 	and.w	r3, r3, #1048576	; 0x100000
 8001426:	2b00      	cmp	r3, #0
 8001428:	d003      	beq.n	8001432 <HAL_GPIO_Init+0x2b2>
 800142a:	69ba      	ldr	r2, [r7, #24]
 800142c:	693b      	ldr	r3, [r7, #16]
 800142e:	4313      	orrs	r3, r2
 8001430:	61bb      	str	r3, [r7, #24]
 8001432:	4a1b      	ldr	r2, [pc, #108]	; (80014a0 <HAL_GPIO_Init+0x320>)
 8001434:	69bb      	ldr	r3, [r7, #24]
 8001436:	6093      	str	r3, [r2, #8]
 8001438:	4b19      	ldr	r3, [pc, #100]	; (80014a0 <HAL_GPIO_Init+0x320>)
 800143a:	68db      	ldr	r3, [r3, #12]
 800143c:	61bb      	str	r3, [r7, #24]
 800143e:	693b      	ldr	r3, [r7, #16]
 8001440:	43db      	mvns	r3, r3
 8001442:	69ba      	ldr	r2, [r7, #24]
 8001444:	4013      	ands	r3, r2
 8001446:	61bb      	str	r3, [r7, #24]
 8001448:	683b      	ldr	r3, [r7, #0]
 800144a:	685b      	ldr	r3, [r3, #4]
 800144c:	f403 1300 	and.w	r3, r3, #2097152	; 0x200000
 8001450:	2b00      	cmp	r3, #0
 8001452:	d003      	beq.n	800145c <HAL_GPIO_Init+0x2dc>
 8001454:	69ba      	ldr	r2, [r7, #24]
 8001456:	693b      	ldr	r3, [r7, #16]
 8001458:	4313      	orrs	r3, r2
 800145a:	61bb      	str	r3, [r7, #24]
 800145c:	4a10      	ldr	r2, [pc, #64]	; (80014a0 <HAL_GPIO_Init+0x320>)
 800145e:	69bb      	ldr	r3, [r7, #24]
 8001460:	60d3      	str	r3, [r2, #12]
 8001462:	69fb      	ldr	r3, [r7, #28]
 8001464:	3301      	adds	r3, #1
 8001466:	61fb      	str	r3, [r7, #28]
 8001468:	69fb      	ldr	r3, [r7, #28]
 800146a:	2b0f      	cmp	r3, #15
 800146c:	f67f ae96 	bls.w	800119c <HAL_GPIO_Init+0x1c>
 8001470:	bf00      	nop
 8001472:	3724      	adds	r7, #36	; 0x24
 8001474:	46bd      	mov	sp, r7
 8001476:	f85d 7b04 	ldr.w	r7, [sp], #4
 800147a:	4770      	bx	lr
 800147c:	40023800 	.word	0x40023800
 8001480:	40013800 	.word	0x40013800
 8001484:	40020000 	.word	0x40020000
 8001488:	40020400 	.word	0x40020400
 800148c:	40020800 	.word	0x40020800
 8001490:	40020c00 	.word	0x40020c00
 8001494:	40021000 	.word	0x40021000
 8001498:	40021400 	.word	0x40021400
 800149c:	40021800 	.word	0x40021800
 80014a0:	40013c00 	.word	0x40013c00

080014a4 <HAL_GPIO_WritePin>:
 80014a4:	b480      	push	{r7}
 80014a6:	b083      	sub	sp, #12
 80014a8:	af00      	add	r7, sp, #0
 80014aa:	6078      	str	r0, [r7, #4]
 80014ac:	460b      	mov	r3, r1
 80014ae:	807b      	strh	r3, [r7, #2]
 80014b0:	4613      	mov	r3, r2
 80014b2:	707b      	strb	r3, [r7, #1]
 80014b4:	787b      	ldrb	r3, [r7, #1]
 80014b6:	2b00      	cmp	r3, #0
 80014b8:	d003      	beq.n	80014c2 <HAL_GPIO_WritePin+0x1e>
 80014ba:	887a      	ldrh	r2, [r7, #2]
 80014bc:	687b      	ldr	r3, [r7, #4]
 80014be:	619a      	str	r2, [r3, #24]
 80014c0:	e003      	b.n	80014ca <HAL_GPIO_WritePin+0x26>
 80014c2:	887b      	ldrh	r3, [r7, #2]
 80014c4:	041a      	lsls	r2, r3, #16
 80014c6:	687b      	ldr	r3, [r7, #4]
 80014c8:	619a      	str	r2, [r3, #24]
 80014ca:	bf00      	nop
 80014cc:	370c      	adds	r7, #12
 80014ce:	46bd      	mov	sp, r7
 80014d0:	f85d 7b04 	ldr.w	r7, [sp], #4
 80014d4:	4770      	bx	lr
	...

080014d8 <HAL_I2C_Init>:
 80014d8:	b580      	push	{r7, lr}
 80014da:	b084      	sub	sp, #16
 80014dc:	af00      	add	r7, sp, #0
 80014de:	6078      	str	r0, [r7, #4]
 80014e0:	687b      	ldr	r3, [r7, #4]
 80014e2:	2b00      	cmp	r3, #0
 80014e4:	d101      	bne.n	80014ea <HAL_I2C_Init+0x12>
 80014e6:	2301      	movs	r3, #1
 80014e8:	e11f      	b.n	800172a <HAL_I2C_Init+0x252>
 80014ea:	687b      	ldr	r3, [r7, #4]
 80014ec:	f893 303d 	ldrb.w	r3, [r3, #61]	; 0x3d
 80014f0:	b2db      	uxtb	r3, r3
 80014f2:	2b00      	cmp	r3, #0
 80014f4:	d106      	bne.n	8001504 <HAL_I2C_Init+0x2c>
 80014f6:	687b      	ldr	r3, [r7, #4]
 80014f8:	2200      	movs	r2, #0
 80014fa:	f883 203c 	strb.w	r2, [r3, #60]	; 0x3c
 80014fe:	6878      	ldr	r0, [r7, #4]
 8001500:	f7ff f8f4 	bl	80006ec <HAL_I2C_MspInit>
 8001504:	687b      	ldr	r3, [r7, #4]
 8001506:	2224      	movs	r2, #36	; 0x24
 8001508:	f883 203d 	strb.w	r2, [r3, #61]	; 0x3d
 800150c:	687b      	ldr	r3, [r7, #4]
 800150e:	681b      	ldr	r3, [r3, #0]
 8001510:	681a      	ldr	r2, [r3, #0]
 8001512:	687b      	ldr	r3, [r7, #4]
 8001514:	681b      	ldr	r3, [r3, #0]
 8001516:	f022 0201 	bic.w	r2, r2, #1
 800151a:	601a      	str	r2, [r3, #0]
 800151c:	687b      	ldr	r3, [r7, #4]
 800151e:	681b      	ldr	r3, [r3, #0]
 8001520:	681a      	ldr	r2, [r3, #0]
 8001522:	687b      	ldr	r3, [r7, #4]
 8001524:	681b      	ldr	r3, [r3, #0]
 8001526:	f442 4200 	orr.w	r2, r2, #32768	; 0x8000
 800152a:	601a      	str	r2, [r3, #0]
 800152c:	687b      	ldr	r3, [r7, #4]
 800152e:	681b      	ldr	r3, [r3, #0]
 8001530:	681a      	ldr	r2, [r3, #0]
 8001532:	687b      	ldr	r3, [r7, #4]
 8001534:	681b      	ldr	r3, [r3, #0]
 8001536:	f422 4200 	bic.w	r2, r2, #32768	; 0x8000
 800153a:	601a      	str	r2, [r3, #0]
 800153c:	f001 f848 	bl	80025d0 <HAL_RCC_GetPCLK1Freq>
 8001540:	60f8      	str	r0, [r7, #12]
 8001542:	687b      	ldr	r3, [r7, #4]
 8001544:	685b      	ldr	r3, [r3, #4]
 8001546:	4a7b      	ldr	r2, [pc, #492]	; (8001734 <HAL_I2C_Init+0x25c>)
 8001548:	4293      	cmp	r3, r2
 800154a:	d807      	bhi.n	800155c <HAL_I2C_Init+0x84>
 800154c:	68fb      	ldr	r3, [r7, #12]
 800154e:	4a7a      	ldr	r2, [pc, #488]	; (8001738 <HAL_I2C_Init+0x260>)
 8001550:	4293      	cmp	r3, r2
 8001552:	bf94      	ite	ls
 8001554:	2301      	movls	r3, #1
 8001556:	2300      	movhi	r3, #0
 8001558:	b2db      	uxtb	r3, r3
 800155a:	e006      	b.n	800156a <HAL_I2C_Init+0x92>
 800155c:	68fb      	ldr	r3, [r7, #12]
 800155e:	4a77      	ldr	r2, [pc, #476]	; (800173c <HAL_I2C_Init+0x264>)
 8001560:	4293      	cmp	r3, r2
 8001562:	bf94      	ite	ls
 8001564:	2301      	movls	r3, #1
 8001566:	2300      	movhi	r3, #0
 8001568:	b2db      	uxtb	r3, r3
 800156a:	2b00      	cmp	r3, #0
 800156c:	d001      	beq.n	8001572 <HAL_I2C_Init+0x9a>
 800156e:	2301      	movs	r3, #1
 8001570:	e0db      	b.n	800172a <HAL_I2C_Init+0x252>
 8001572:	68fb      	ldr	r3, [r7, #12]
 8001574:	4a72      	ldr	r2, [pc, #456]	; (8001740 <HAL_I2C_Init+0x268>)
 8001576:	fba2 2303 	umull	r2, r3, r2, r3
 800157a:	0c9b      	lsrs	r3, r3, #18
 800157c:	60bb      	str	r3, [r7, #8]
 800157e:	687b      	ldr	r3, [r7, #4]
 8001580:	681b      	ldr	r3, [r3, #0]
 8001582:	685b      	ldr	r3, [r3, #4]
 8001584:	f023 013f 	bic.w	r1, r3, #63	; 0x3f
 8001588:	687b      	ldr	r3, [r7, #4]
 800158a:	681b      	ldr	r3, [r3, #0]
 800158c:	68ba      	ldr	r2, [r7, #8]
 800158e:	430a      	orrs	r2, r1
 8001590:	605a      	str	r2, [r3, #4]
 8001592:	687b      	ldr	r3, [r7, #4]
 8001594:	681b      	ldr	r3, [r3, #0]
 8001596:	6a1b      	ldr	r3, [r3, #32]
 8001598:	f023 013f 	bic.w	r1, r3, #63	; 0x3f
 800159c:	687b      	ldr	r3, [r7, #4]
 800159e:	685b      	ldr	r3, [r3, #4]
 80015a0:	4a64      	ldr	r2, [pc, #400]	; (8001734 <HAL_I2C_Init+0x25c>)
 80015a2:	4293      	cmp	r3, r2
 80015a4:	d802      	bhi.n	80015ac <HAL_I2C_Init+0xd4>
 80015a6:	68bb      	ldr	r3, [r7, #8]
 80015a8:	3301      	adds	r3, #1
 80015aa:	e009      	b.n	80015c0 <HAL_I2C_Init+0xe8>
 80015ac:	68bb      	ldr	r3, [r7, #8]
 80015ae:	f44f 7296 	mov.w	r2, #300	; 0x12c
 80015b2:	fb02 f303 	mul.w	r3, r2, r3
 80015b6:	4a63      	ldr	r2, [pc, #396]	; (8001744 <HAL_I2C_Init+0x26c>)
 80015b8:	fba2 2303 	umull	r2, r3, r2, r3
 80015bc:	099b      	lsrs	r3, r3, #6
 80015be:	3301      	adds	r3, #1
 80015c0:	687a      	ldr	r2, [r7, #4]
 80015c2:	6812      	ldr	r2, [r2, #0]
 80015c4:	430b      	orrs	r3, r1
 80015c6:	6213      	str	r3, [r2, #32]
 80015c8:	687b      	ldr	r3, [r7, #4]
 80015ca:	681b      	ldr	r3, [r3, #0]
 80015cc:	69db      	ldr	r3, [r3, #28]
 80015ce:	f423 424f 	bic.w	r2, r3, #52992	; 0xcf00
 80015d2:	f022 02ff 	bic.w	r2, r2, #255	; 0xff
 80015d6:	687b      	ldr	r3, [r7, #4]
 80015d8:	685b      	ldr	r3, [r3, #4]
 80015da:	4956      	ldr	r1, [pc, #344]	; (8001734 <HAL_I2C_Init+0x25c>)
 80015dc:	428b      	cmp	r3, r1
 80015de:	d80d      	bhi.n	80015fc <HAL_I2C_Init+0x124>
 80015e0:	68fb      	ldr	r3, [r7, #12]
 80015e2:	1e59      	subs	r1, r3, #1
 80015e4:	687b      	ldr	r3, [r7, #4]
 80015e6:	685b      	ldr	r3, [r3, #4]
 80015e8:	005b      	lsls	r3, r3, #1
 80015ea:	fbb1 f3f3 	udiv	r3, r1, r3
 80015ee:	3301      	adds	r3, #1
 80015f0:	f3c3 030b 	ubfx	r3, r3, #0, #12
 80015f4:	2b04      	cmp	r3, #4
 80015f6:	bf38      	it	cc
 80015f8:	2304      	movcc	r3, #4
 80015fa:	e04f      	b.n	800169c <HAL_I2C_Init+0x1c4>
 80015fc:	687b      	ldr	r3, [r7, #4]
 80015fe:	689b      	ldr	r3, [r3, #8]
 8001600:	2b00      	cmp	r3, #0
 8001602:	d111      	bne.n	8001628 <HAL_I2C_Init+0x150>
 8001604:	68fb      	ldr	r3, [r7, #12]
 8001606:	1e58      	subs	r0, r3, #1
 8001608:	687b      	ldr	r3, [r7, #4]
 800160a:	6859      	ldr	r1, [r3, #4]
 800160c:	460b      	mov	r3, r1
 800160e:	005b      	lsls	r3, r3, #1
 8001610:	440b      	add	r3, r1
 8001612:	fbb0 f3f3 	udiv	r3, r0, r3
 8001616:	3301      	adds	r3, #1
 8001618:	f3c3 030b 	ubfx	r3, r3, #0, #12
 800161c:	2b00      	cmp	r3, #0
 800161e:	bf0c      	ite	eq
 8001620:	2301      	moveq	r3, #1
 8001622:	2300      	movne	r3, #0
 8001624:	b2db      	uxtb	r3, r3
 8001626:	e012      	b.n	800164e <HAL_I2C_Init+0x176>
 8001628:	68fb      	ldr	r3, [r7, #12]
 800162a:	1e58      	subs	r0, r3, #1
 800162c:	687b      	ldr	r3, [r7, #4]
 800162e:	6859      	ldr	r1, [r3, #4]
 8001630:	460b      	mov	r3, r1
 8001632:	009b      	lsls	r3, r3, #2
 8001634:	440b      	add	r3, r1
 8001636:	0099      	lsls	r1, r3, #2
 8001638:	440b      	add	r3, r1
 800163a:	fbb0 f3f3 	udiv	r3, r0, r3
 800163e:	3301      	adds	r3, #1
 8001640:	f3c3 030b 	ubfx	r3, r3, #0, #12
 8001644:	2b00      	cmp	r3, #0
 8001646:	bf0c      	ite	eq
 8001648:	2301      	moveq	r3, #1
 800164a:	2300      	movne	r3, #0
 800164c:	b2db      	uxtb	r3, r3
 800164e:	2b00      	cmp	r3, #0
 8001650:	d001      	beq.n	8001656 <HAL_I2C_Init+0x17e>
 8001652:	2301      	movs	r3, #1
 8001654:	e022      	b.n	800169c <HAL_I2C_Init+0x1c4>
 8001656:	687b      	ldr	r3, [r7, #4]
 8001658:	689b      	ldr	r3, [r3, #8]
 800165a:	2b00      	cmp	r3, #0
 800165c:	d10e      	bne.n	800167c <HAL_I2C_Init+0x1a4>
 800165e:	68fb      	ldr	r3, [r7, #12]
 8001660:	1e58      	subs	r0, r3, #1
 8001662:	687b      	ldr	r3, [r7, #4]
 8001664:	6859      	ldr	r1, [r3, #4]
 8001666:	460b      	mov	r3, r1
 8001668:	005b      	lsls	r3, r3, #1
 800166a:	440b      	add	r3, r1
 800166c:	fbb0 f3f3 	udiv	r3, r0, r3
 8001670:	3301      	adds	r3, #1
 8001672:	f3c3 030b 	ubfx	r3, r3, #0, #12
 8001676:	f443 4300 	orr.w	r3, r3, #32768	; 0x8000
 800167a:	e00f      	b.n	800169c <HAL_I2C_Init+0x1c4>
 800167c:	68fb      	ldr	r3, [r7, #12]
 800167e:	1e58      	subs	r0, r3, #1
 8001680:	687b      	ldr	r3, [r7, #4]
 8001682:	6859      	ldr	r1, [r3, #4]
 8001684:	460b      	mov	r3, r1
 8001686:	009b      	lsls	r3, r3, #2
 8001688:	440b      	add	r3, r1
 800168a:	0099      	lsls	r1, r3, #2
 800168c:	440b      	add	r3, r1
 800168e:	fbb0 f3f3 	udiv	r3, r0, r3
 8001692:	3301      	adds	r3, #1
 8001694:	f3c3 030b 	ubfx	r3, r3, #0, #12
 8001698:	f443 4340 	orr.w	r3, r3, #49152	; 0xc000
 800169c:	6879      	ldr	r1, [r7, #4]
 800169e:	6809      	ldr	r1, [r1, #0]
 80016a0:	4313      	orrs	r3, r2
 80016a2:	61cb      	str	r3, [r1, #28]
 80016a4:	687b      	ldr	r3, [r7, #4]
 80016a6:	681b      	ldr	r3, [r3, #0]
 80016a8:	681b      	ldr	r3, [r3, #0]
 80016aa:	f023 01c0 	bic.w	r1, r3, #192	; 0xc0
 80016ae:	687b      	ldr	r3, [r7, #4]
 80016b0:	69da      	ldr	r2, [r3, #28]
 80016b2:	687b      	ldr	r3, [r7, #4]
 80016b4:	6a1b      	ldr	r3, [r3, #32]
 80016b6:	431a      	orrs	r2, r3
 80016b8:	687b      	ldr	r3, [r7, #4]
 80016ba:	681b      	ldr	r3, [r3, #0]
 80016bc:	430a      	orrs	r2, r1
 80016be:	601a      	str	r2, [r3, #0]
 80016c0:	687b      	ldr	r3, [r7, #4]
 80016c2:	681b      	ldr	r3, [r3, #0]
 80016c4:	689b      	ldr	r3, [r3, #8]
 80016c6:	f423 4303 	bic.w	r3, r3, #33536	; 0x8300
 80016ca:	f023 03ff 	bic.w	r3, r3, #255	; 0xff
 80016ce:	687a      	ldr	r2, [r7, #4]
 80016d0:	6911      	ldr	r1, [r2, #16]
 80016d2:	687a      	ldr	r2, [r7, #4]
 80016d4:	68d2      	ldr	r2, [r2, #12]
 80016d6:	4311      	orrs	r1, r2
 80016d8:	687a      	ldr	r2, [r7, #4]
 80016da:	6812      	ldr	r2, [r2, #0]
 80016dc:	430b      	orrs	r3, r1
 80016de:	6093      	str	r3, [r2, #8]
 80016e0:	687b      	ldr	r3, [r7, #4]
 80016e2:	681b      	ldr	r3, [r3, #0]
 80016e4:	68db      	ldr	r3, [r3, #12]
 80016e6:	f023 01ff 	bic.w	r1, r3, #255	; 0xff
 80016ea:	687b      	ldr	r3, [r7, #4]
 80016ec:	695a      	ldr	r2, [r3, #20]
 80016ee:	687b      	ldr	r3, [r7, #4]
 80016f0:	699b      	ldr	r3, [r3, #24]
 80016f2:	431a      	orrs	r2, r3
 80016f4:	687b      	ldr	r3, [r7, #4]
 80016f6:	681b      	ldr	r3, [r3, #0]
 80016f8:	430a      	orrs	r2, r1
 80016fa:	60da      	str	r2, [r3, #12]
 80016fc:	687b      	ldr	r3, [r7, #4]
 80016fe:	681b      	ldr	r3, [r3, #0]
 8001700:	681a      	ldr	r2, [r3, #0]
 8001702:	687b      	ldr	r3, [r7, #4]
 8001704:	681b      	ldr	r3, [r3, #0]
 8001706:	f042 0201 	orr.w	r2, r2, #1
 800170a:	601a      	str	r2, [r3, #0]
 800170c:	687b      	ldr	r3, [r7, #4]
 800170e:	2200      	movs	r2, #0
 8001710:	641a      	str	r2, [r3, #64]	; 0x40
 8001712:	687b      	ldr	r3, [r7, #4]
 8001714:	2220      	movs	r2, #32
 8001716:	f883 203d 	strb.w	r2, [r3, #61]	; 0x3d
 800171a:	687b      	ldr	r3, [r7, #4]
 800171c:	2200      	movs	r2, #0
 800171e:	631a      	str	r2, [r3, #48]	; 0x30
 8001720:	687b      	ldr	r3, [r7, #4]
 8001722:	2200      	movs	r2, #0
 8001724:	f883 203e 	strb.w	r2, [r3, #62]	; 0x3e
 8001728:	2300      	movs	r3, #0
 800172a:	4618      	mov	r0, r3
 800172c:	3710      	adds	r7, #16
 800172e:	46bd      	mov	sp, r7
 8001730:	bd80      	pop	{r7, pc}
 8001732:	bf00      	nop
 8001734:	000186a0 	.word	0x000186a0
 8001738:	001e847f 	.word	0x001e847f
 800173c:	003d08ff 	.word	0x003d08ff
 8001740:	431bde83 	.word	0x431bde83
 8001744:	10624dd3 	.word	0x10624dd3

08001748 <HAL_I2C_Master_Transmit>:
 8001748:	b580      	push	{r7, lr}
 800174a:	b088      	sub	sp, #32
 800174c:	af02      	add	r7, sp, #8
 800174e:	60f8      	str	r0, [r7, #12]
 8001750:	607a      	str	r2, [r7, #4]
 8001752:	461a      	mov	r2, r3
 8001754:	460b      	mov	r3, r1
 8001756:	817b      	strh	r3, [r7, #10]
 8001758:	4613      	mov	r3, r2
 800175a:	813b      	strh	r3, [r7, #8]
 800175c:	f7ff fbfc 	bl	8000f58 <HAL_GetTick>
 8001760:	6178      	str	r0, [r7, #20]
 8001762:	68fb      	ldr	r3, [r7, #12]
 8001764:	f893 303d 	ldrb.w	r3, [r3, #61]	; 0x3d
 8001768:	b2db      	uxtb	r3, r3
 800176a:	2b20      	cmp	r3, #32
 800176c:	f040 80e0 	bne.w	8001930 <HAL_I2C_Master_Transmit+0x1e8>
 8001770:	697b      	ldr	r3, [r7, #20]
 8001772:	9300      	str	r3, [sp, #0]
 8001774:	2319      	movs	r3, #25
 8001776:	2201      	movs	r2, #1
 8001778:	4970      	ldr	r1, [pc, #448]	; (800193c <HAL_I2C_Master_Transmit+0x1f4>)
 800177a:	68f8      	ldr	r0, [r7, #12]
 800177c:	f000 fc58 	bl	8002030 <I2C_WaitOnFlagUntilTimeout>
 8001780:	4603      	mov	r3, r0
 8001782:	2b00      	cmp	r3, #0
 8001784:	d001      	beq.n	800178a <HAL_I2C_Master_Transmit+0x42>
 8001786:	2302      	movs	r3, #2
 8001788:	e0d3      	b.n	8001932 <HAL_I2C_Master_Transmit+0x1ea>
 800178a:	68fb      	ldr	r3, [r7, #12]
 800178c:	f893 303c 	ldrb.w	r3, [r3, #60]	; 0x3c
 8001790:	2b01      	cmp	r3, #1
 8001792:	d101      	bne.n	8001798 <HAL_I2C_Master_Transmit+0x50>
 8001794:	2302      	movs	r3, #2
 8001796:	e0cc      	b.n	8001932 <HAL_I2C_Master_Transmit+0x1ea>
 8001798:	68fb      	ldr	r3, [r7, #12]
 800179a:	2201      	movs	r2, #1
 800179c:	f883 203c 	strb.w	r2, [r3, #60]	; 0x3c
 80017a0:	68fb      	ldr	r3, [r7, #12]
 80017a2:	681b      	ldr	r3, [r3, #0]
 80017a4:	681b      	ldr	r3, [r3, #0]
 80017a6:	f003 0301 	and.w	r3, r3, #1
 80017aa:	2b01      	cmp	r3, #1
 80017ac:	d007      	beq.n	80017be <HAL_I2C_Master_Transmit+0x76>
 80017ae:	68fb      	ldr	r3, [r7, #12]
 80017b0:	681b      	ldr	r3, [r3, #0]
 80017b2:	681a      	ldr	r2, [r3, #0]
 80017b4:	68fb      	ldr	r3, [r7, #12]
 80017b6:	681b      	ldr	r3, [r3, #0]
 80017b8:	f042 0201 	orr.w	r2, r2, #1
 80017bc:	601a      	str	r2, [r3, #0]
 80017be:	68fb      	ldr	r3, [r7, #12]
 80017c0:	681b      	ldr	r3, [r3, #0]
 80017c2:	681a      	ldr	r2, [r3, #0]
 80017c4:	68fb      	ldr	r3, [r7, #12]
 80017c6:	681b      	ldr	r3, [r3, #0]
 80017c8:	f422 6200 	bic.w	r2, r2, #2048	; 0x800
 80017cc:	601a      	str	r2, [r3, #0]
 80017ce:	68fb      	ldr	r3, [r7, #12]
 80017d0:	2221      	movs	r2, #33	; 0x21
 80017d2:	f883 203d 	strb.w	r2, [r3, #61]	; 0x3d
 80017d6:	68fb      	ldr	r3, [r7, #12]
 80017d8:	2210      	movs	r2, #16
 80017da:	f883 203e 	strb.w	r2, [r3, #62]	; 0x3e
 80017de:	68fb      	ldr	r3, [r7, #12]
 80017e0:	2200      	movs	r2, #0
 80017e2:	641a      	str	r2, [r3, #64]	; 0x40
 80017e4:	68fb      	ldr	r3, [r7, #12]
 80017e6:	687a      	ldr	r2, [r7, #4]
 80017e8:	625a      	str	r2, [r3, #36]	; 0x24
 80017ea:	68fb      	ldr	r3, [r7, #12]
 80017ec:	893a      	ldrh	r2, [r7, #8]
 80017ee:	855a      	strh	r2, [r3, #42]	; 0x2a
 80017f0:	68fb      	ldr	r3, [r7, #12]
 80017f2:	8d5b      	ldrh	r3, [r3, #42]	; 0x2a
 80017f4:	b29a      	uxth	r2, r3
 80017f6:	68fb      	ldr	r3, [r7, #12]
 80017f8:	851a      	strh	r2, [r3, #40]	; 0x28
 80017fa:	68fb      	ldr	r3, [r7, #12]
 80017fc:	4a50      	ldr	r2, [pc, #320]	; (8001940 <HAL_I2C_Master_Transmit+0x1f8>)
 80017fe:	62da      	str	r2, [r3, #44]	; 0x2c
 8001800:	8979      	ldrh	r1, [r7, #10]
 8001802:	697b      	ldr	r3, [r7, #20]
 8001804:	6a3a      	ldr	r2, [r7, #32]
 8001806:	68f8      	ldr	r0, [r7, #12]
 8001808:	f000 fac2 	bl	8001d90 <I2C_MasterRequestWrite>
 800180c:	4603      	mov	r3, r0
 800180e:	2b00      	cmp	r3, #0
 8001810:	d001      	beq.n	8001816 <HAL_I2C_Master_Transmit+0xce>
 8001812:	2301      	movs	r3, #1
 8001814:	e08d      	b.n	8001932 <HAL_I2C_Master_Transmit+0x1ea>
 8001816:	2300      	movs	r3, #0
 8001818:	613b      	str	r3, [r7, #16]
 800181a:	68fb      	ldr	r3, [r7, #12]
 800181c:	681b      	ldr	r3, [r3, #0]
 800181e:	695b      	ldr	r3, [r3, #20]
 8001820:	613b      	str	r3, [r7, #16]
 8001822:	68fb      	ldr	r3, [r7, #12]
 8001824:	681b      	ldr	r3, [r3, #0]
 8001826:	699b      	ldr	r3, [r3, #24]
 8001828:	613b      	str	r3, [r7, #16]
 800182a:	693b      	ldr	r3, [r7, #16]
 800182c:	e066      	b.n	80018fc <HAL_I2C_Master_Transmit+0x1b4>
 800182e:	697a      	ldr	r2, [r7, #20]
 8001830:	6a39      	ldr	r1, [r7, #32]
 8001832:	68f8      	ldr	r0, [r7, #12]
 8001834:	f000 fcd2 	bl	80021dc <I2C_WaitOnTXEFlagUntilTimeout>
 8001838:	4603      	mov	r3, r0
 800183a:	2b00      	cmp	r3, #0
 800183c:	d00d      	beq.n	800185a <HAL_I2C_Master_Transmit+0x112>
 800183e:	68fb      	ldr	r3, [r7, #12]
 8001840:	6c1b      	ldr	r3, [r3, #64]	; 0x40
 8001842:	2b04      	cmp	r3, #4
 8001844:	d107      	bne.n	8001856 <HAL_I2C_Master_Transmit+0x10e>
 8001846:	68fb      	ldr	r3, [r7, #12]
 8001848:	681b      	ldr	r3, [r3, #0]
 800184a:	681a      	ldr	r2, [r3, #0]
 800184c:	68fb      	ldr	r3, [r7, #12]
 800184e:	681b      	ldr	r3, [r3, #0]
 8001850:	f442 7200 	orr.w	r2, r2, #512	; 0x200
 8001854:	601a      	str	r2, [r3, #0]
 8001856:	2301      	movs	r3, #1
 8001858:	e06b      	b.n	8001932 <HAL_I2C_Master_Transmit+0x1ea>
 800185a:	68fb      	ldr	r3, [r7, #12]
 800185c:	6a5b      	ldr	r3, [r3, #36]	; 0x24
 800185e:	781a      	ldrb	r2, [r3, #0]
 8001860:	68fb      	ldr	r3, [r7, #12]
 8001862:	681b      	ldr	r3, [r3, #0]
 8001864:	611a      	str	r2, [r3, #16]
 8001866:	68fb      	ldr	r3, [r7, #12]
 8001868:	6a5b      	ldr	r3, [r3, #36]	; 0x24
 800186a:	1c5a      	adds	r2, r3, #1
 800186c:	68fb      	ldr	r3, [r7, #12]
 800186e:	625a      	str	r2, [r3, #36]	; 0x24
 8001870:	68fb      	ldr	r3, [r7, #12]
 8001872:	8d5b      	ldrh	r3, [r3, #42]	; 0x2a
 8001874:	b29b      	uxth	r3, r3
 8001876:	3b01      	subs	r3, #1
 8001878:	b29a      	uxth	r2, r3
 800187a:	68fb      	ldr	r3, [r7, #12]
 800187c:	855a      	strh	r2, [r3, #42]	; 0x2a
 800187e:	68fb      	ldr	r3, [r7, #12]
 8001880:	8d1b      	ldrh	r3, [r3, #40]	; 0x28
 8001882:	3b01      	subs	r3, #1
 8001884:	b29a      	uxth	r2, r3
 8001886:	68fb      	ldr	r3, [r7, #12]
 8001888:	851a      	strh	r2, [r3, #40]	; 0x28
 800188a:	68fb      	ldr	r3, [r7, #12]
 800188c:	681b      	ldr	r3, [r3, #0]
 800188e:	695b      	ldr	r3, [r3, #20]
 8001890:	f003 0304 	and.w	r3, r3, #4
 8001894:	2b04      	cmp	r3, #4
 8001896:	d11b      	bne.n	80018d0 <HAL_I2C_Master_Transmit+0x188>
 8001898:	68fb      	ldr	r3, [r7, #12]
 800189a:	8d1b      	ldrh	r3, [r3, #40]	; 0x28
 800189c:	2b00      	cmp	r3, #0
 800189e:	d017      	beq.n	80018d0 <HAL_I2C_Master_Transmit+0x188>
 80018a0:	68fb      	ldr	r3, [r7, #12]
 80018a2:	6a5b      	ldr	r3, [r3, #36]	; 0x24
 80018a4:	781a      	ldrb	r2, [r3, #0]
 80018a6:	68fb      	ldr	r3, [r7, #12]
 80018a8:	681b      	ldr	r3, [r3, #0]
 80018aa:	611a      	str	r2, [r3, #16]
 80018ac:	68fb      	ldr	r3, [r7, #12]
 80018ae:	6a5b      	ldr	r3, [r3, #36]	; 0x24
 80018b0:	1c5a      	adds	r2, r3, #1
 80018b2:	68fb      	ldr	r3, [r7, #12]
 80018b4:	625a      	str	r2, [r3, #36]	; 0x24
 80018b6:	68fb      	ldr	r3, [r7, #12]
 80018b8:	8d5b      	ldrh	r3, [r3, #42]	; 0x2a
 80018ba:	b29b      	uxth	r3, r3
 80018bc:	3b01      	subs	r3, #1
 80018be:	b29a      	uxth	r2, r3
 80018c0:	68fb      	ldr	r3, [r7, #12]
 80018c2:	855a      	strh	r2, [r3, #42]	; 0x2a
 80018c4:	68fb      	ldr	r3, [r7, #12]
 80018c6:	8d1b      	ldrh	r3, [r3, #40]	; 0x28
 80018c8:	3b01      	subs	r3, #1
 80018ca:	b29a      	uxth	r2, r3
 80018cc:	68fb      	ldr	r3, [r7, #12]
 80018ce:	851a      	strh	r2, [r3, #40]	; 0x28
 80018d0:	697a      	ldr	r2, [r7, #20]
 80018d2:	6a39      	ldr	r1, [r7, #32]
 80018d4:	68f8      	ldr	r0, [r7, #12]
 80018d6:	f000 fcc2 	bl	800225e <I2C_WaitOnBTFFlagUntilTimeout>
 80018da:	4603      	mov	r3, r0
 80018dc:	2b00      	cmp	r3, #0
 80018de:	d00d      	beq.n	80018fc <HAL_I2C_Master_Transmit+0x1b4>
 80018e0:	68fb      	ldr	r3, [r7, #12]
 80018e2:	6c1b      	ldr	r3, [r3, #64]	; 0x40
 80018e4:	2b04      	cmp	r3, #4
 80018e6:	d107      	bne.n	80018f8 <HAL_I2C_Master_Transmit+0x1b0>
 80018e8:	68fb      	ldr	r3, [r7, #12]
 80018ea:	681b      	ldr	r3, [r3, #0]
 80018ec:	681a      	ldr	r2, [r3, #0]
 80018ee:	68fb      	ldr	r3, [r7, #12]
 80018f0:	681b      	ldr	r3, [r3, #0]
 80018f2:	f442 7200 	orr.w	r2, r2, #512	; 0x200
 80018f6:	601a      	str	r2, [r3, #0]
 80018f8:	2301      	movs	r3, #1
 80018fa:	e01a      	b.n	8001932 <HAL_I2C_Master_Transmit+0x1ea>
 80018fc:	68fb      	ldr	r3, [r7, #12]
 80018fe:	8d1b      	ldrh	r3, [r3, #40]	; 0x28
 8001900:	2b00      	cmp	r3, #0
 8001902:	d194      	bne.n	800182e <HAL_I2C_Master_Transmit+0xe6>
 8001904:	68fb      	ldr	r3, [r7, #12]
 8001906:	681b      	ldr	r3, [r3, #0]
 8001908:	681a      	ldr	r2, [r3, #0]
 800190a:	68fb      	ldr	r3, [r7, #12]
 800190c:	681b      	ldr	r3, [r3, #0]
 800190e:	f442 7200 	orr.w	r2, r2, #512	; 0x200
 8001912:	601a      	str	r2, [r3, #0]
 8001914:	68fb      	ldr	r3, [r7, #12]
 8001916:	2220      	movs	r2, #32
 8001918:	f883 203d 	strb.w	r2, [r3, #61]	; 0x3d
 800191c:	68fb      	ldr	r3, [r7, #12]
 800191e:	2200      	movs	r2, #0
 8001920:	f883 203e 	strb.w	r2, [r3, #62]	; 0x3e
 8001924:	68fb      	ldr	r3, [r7, #12]
 8001926:	2200      	movs	r2, #0
 8001928:	f883 203c 	strb.w	r2, [r3, #60]	; 0x3c
 800192c:	2300      	movs	r3, #0
 800192e:	e000      	b.n	8001932 <HAL_I2C_Master_Transmit+0x1ea>
 8001930:	2302      	movs	r3, #2
 8001932:	4618      	mov	r0, r3
 8001934:	3718      	adds	r7, #24
 8001936:	46bd      	mov	sp, r7
 8001938:	bd80      	pop	{r7, pc}
 800193a:	bf00      	nop
 800193c:	00100002 	.word	0x00100002
 8001940:	ffff0000 	.word	0xffff0000

08001944 <HAL_I2C_Master_Receive>:
 8001944:	b580      	push	{r7, lr}
 8001946:	b08c      	sub	sp, #48	; 0x30
 8001948:	af02      	add	r7, sp, #8
 800194a:	60f8      	str	r0, [r7, #12]
 800194c:	607a      	str	r2, [r7, #4]
 800194e:	461a      	mov	r2, r3
 8001950:	460b      	mov	r3, r1
 8001952:	817b      	strh	r3, [r7, #10]
 8001954:	4613      	mov	r3, r2
 8001956:	813b      	strh	r3, [r7, #8]
 8001958:	f7ff fafe 	bl	8000f58 <HAL_GetTick>
 800195c:	6278      	str	r0, [r7, #36]	; 0x24
 800195e:	68fb      	ldr	r3, [r7, #12]
 8001960:	f893 303d 	ldrb.w	r3, [r3, #61]	; 0x3d
 8001964:	b2db      	uxtb	r3, r3
 8001966:	2b20      	cmp	r3, #32
 8001968:	f040 820b 	bne.w	8001d82 <HAL_I2C_Master_Receive+0x43e>
 800196c:	6a7b      	ldr	r3, [r7, #36]	; 0x24
 800196e:	9300      	str	r3, [sp, #0]
 8001970:	2319      	movs	r3, #25
 8001972:	2201      	movs	r2, #1
 8001974:	497c      	ldr	r1, [pc, #496]	; (8001b68 <HAL_I2C_Master_Receive+0x224>)
 8001976:	68f8      	ldr	r0, [r7, #12]
 8001978:	f000 fb5a 	bl	8002030 <I2C_WaitOnFlagUntilTimeout>
 800197c:	4603      	mov	r3, r0
 800197e:	2b00      	cmp	r3, #0
 8001980:	d001      	beq.n	8001986 <HAL_I2C_Master_Receive+0x42>
 8001982:	2302      	movs	r3, #2
 8001984:	e1fe      	b.n	8001d84 <HAL_I2C_Master_Receive+0x440>
 8001986:	68fb      	ldr	r3, [r7, #12]
 8001988:	f893 303c 	ldrb.w	r3, [r3, #60]	; 0x3c
 800198c:	2b01      	cmp	r3, #1
 800198e:	d101      	bne.n	8001994 <HAL_I2C_Master_Receive+0x50>
 8001990:	2302      	movs	r3, #2
 8001992:	e1f7      	b.n	8001d84 <HAL_I2C_Master_Receive+0x440>
 8001994:	68fb      	ldr	r3, [r7, #12]
 8001996:	2201      	movs	r2, #1
 8001998:	f883 203c 	strb.w	r2, [r3, #60]	; 0x3c
 800199c:	68fb      	ldr	r3, [r7, #12]
 800199e:	681b      	ldr	r3, [r3, #0]
 80019a0:	681b      	ldr	r3, [r3, #0]
 80019a2:	f003 0301 	and.w	r3, r3, #1
 80019a6:	2b01      	cmp	r3, #1
 80019a8:	d007      	beq.n	80019ba <HAL_I2C_Master_Receive+0x76>
 80019aa:	68fb      	ldr	r3, [r7, #12]
 80019ac:	681b      	ldr	r3, [r3, #0]
 80019ae:	681a      	ldr	r2, [r3, #0]
 80019b0:	68fb      	ldr	r3, [r7, #12]
 80019b2:	681b      	ldr	r3, [r3, #0]
 80019b4:	f042 0201 	orr.w	r2, r2, #1
 80019b8:	601a      	str	r2, [r3, #0]
 80019ba:	68fb      	ldr	r3, [r7, #12]
 80019bc:	681b      	ldr	r3, [r3, #0]
 80019be:	681a      	ldr	r2, [r3, #0]
 80019c0:	68fb      	ldr	r3, [r7, #12]
 80019c2:	681b      	ldr	r3, [r3, #0]
 80019c4:	f422 6200 	bic.w	r2, r2, #2048	; 0x800
 80019c8:	601a      	str	r2, [r3, #0]
 80019ca:	68fb      	ldr	r3, [r7, #12]
 80019cc:	2222      	movs	r2, #34	; 0x22
 80019ce:	f883 203d 	strb.w	r2, [r3, #61]	; 0x3d
 80019d2:	68fb      	ldr	r3, [r7, #12]
 80019d4:	2210      	movs	r2, #16
 80019d6:	f883 203e 	strb.w	r2, [r3, #62]	; 0x3e
 80019da:	68fb      	ldr	r3, [r7, #12]
 80019dc:	2200      	movs	r2, #0
 80019de:	641a      	str	r2, [r3, #64]	; 0x40
 80019e0:	68fb      	ldr	r3, [r7, #12]
 80019e2:	687a      	ldr	r2, [r7, #4]
 80019e4:	625a      	str	r2, [r3, #36]	; 0x24
 80019e6:	68fb      	ldr	r3, [r7, #12]
 80019e8:	893a      	ldrh	r2, [r7, #8]
 80019ea:	855a      	strh	r2, [r3, #42]	; 0x2a
 80019ec:	68fb      	ldr	r3, [r7, #12]
 80019ee:	8d5b      	ldrh	r3, [r3, #42]	; 0x2a
 80019f0:	b29a      	uxth	r2, r3
 80019f2:	68fb      	ldr	r3, [r7, #12]
 80019f4:	851a      	strh	r2, [r3, #40]	; 0x28
 80019f6:	68fb      	ldr	r3, [r7, #12]
 80019f8:	4a5c      	ldr	r2, [pc, #368]	; (8001b6c <HAL_I2C_Master_Receive+0x228>)
 80019fa:	62da      	str	r2, [r3, #44]	; 0x2c
 80019fc:	8979      	ldrh	r1, [r7, #10]
 80019fe:	6a7b      	ldr	r3, [r7, #36]	; 0x24
 8001a00:	6b3a      	ldr	r2, [r7, #48]	; 0x30
 8001a02:	68f8      	ldr	r0, [r7, #12]
 8001a04:	f000 fa46 	bl	8001e94 <I2C_MasterRequestRead>
 8001a08:	4603      	mov	r3, r0
 8001a0a:	2b00      	cmp	r3, #0
 8001a0c:	d001      	beq.n	8001a12 <HAL_I2C_Master_Receive+0xce>
 8001a0e:	2301      	movs	r3, #1
 8001a10:	e1b8      	b.n	8001d84 <HAL_I2C_Master_Receive+0x440>
 8001a12:	68fb      	ldr	r3, [r7, #12]
 8001a14:	8d1b      	ldrh	r3, [r3, #40]	; 0x28
 8001a16:	2b00      	cmp	r3, #0
 8001a18:	d113      	bne.n	8001a42 <HAL_I2C_Master_Receive+0xfe>
 8001a1a:	2300      	movs	r3, #0
 8001a1c:	623b      	str	r3, [r7, #32]
 8001a1e:	68fb      	ldr	r3, [r7, #12]
 8001a20:	681b      	ldr	r3, [r3, #0]
 8001a22:	695b      	ldr	r3, [r3, #20]
 8001a24:	623b      	str	r3, [r7, #32]
 8001a26:	68fb      	ldr	r3, [r7, #12]
 8001a28:	681b      	ldr	r3, [r3, #0]
 8001a2a:	699b      	ldr	r3, [r3, #24]
 8001a2c:	623b      	str	r3, [r7, #32]
 8001a2e:	6a3b      	ldr	r3, [r7, #32]
 8001a30:	68fb      	ldr	r3, [r7, #12]
 8001a32:	681b      	ldr	r3, [r3, #0]
 8001a34:	681a      	ldr	r2, [r3, #0]
 8001a36:	68fb      	ldr	r3, [r7, #12]
 8001a38:	681b      	ldr	r3, [r3, #0]
 8001a3a:	f442 7200 	orr.w	r2, r2, #512	; 0x200
 8001a3e:	601a      	str	r2, [r3, #0]
 8001a40:	e18c      	b.n	8001d5c <HAL_I2C_Master_Receive+0x418>
 8001a42:	68fb      	ldr	r3, [r7, #12]
 8001a44:	8d1b      	ldrh	r3, [r3, #40]	; 0x28
 8001a46:	2b01      	cmp	r3, #1
 8001a48:	d11b      	bne.n	8001a82 <HAL_I2C_Master_Receive+0x13e>
 8001a4a:	68fb      	ldr	r3, [r7, #12]
 8001a4c:	681b      	ldr	r3, [r3, #0]
 8001a4e:	681a      	ldr	r2, [r3, #0]
 8001a50:	68fb      	ldr	r3, [r7, #12]
 8001a52:	681b      	ldr	r3, [r3, #0]
 8001a54:	f422 6280 	bic.w	r2, r2, #1024	; 0x400
 8001a58:	601a      	str	r2, [r3, #0]
 8001a5a:	2300      	movs	r3, #0
 8001a5c:	61fb      	str	r3, [r7, #28]
 8001a5e:	68fb      	ldr	r3, [r7, #12]
 8001a60:	681b      	ldr	r3, [r3, #0]
 8001a62:	695b      	ldr	r3, [r3, #20]
 8001a64:	61fb      	str	r3, [r7, #28]
 8001a66:	68fb      	ldr	r3, [r7, #12]
 8001a68:	681b      	ldr	r3, [r3, #0]
 8001a6a:	699b      	ldr	r3, [r3, #24]
 8001a6c:	61fb      	str	r3, [r7, #28]
 8001a6e:	69fb      	ldr	r3, [r7, #28]
 8001a70:	68fb      	ldr	r3, [r7, #12]
 8001a72:	681b      	ldr	r3, [r3, #0]
 8001a74:	681a      	ldr	r2, [r3, #0]
 8001a76:	68fb      	ldr	r3, [r7, #12]
 8001a78:	681b      	ldr	r3, [r3, #0]
 8001a7a:	f442 7200 	orr.w	r2, r2, #512	; 0x200
 8001a7e:	601a      	str	r2, [r3, #0]
 8001a80:	e16c      	b.n	8001d5c <HAL_I2C_Master_Receive+0x418>
 8001a82:	68fb      	ldr	r3, [r7, #12]
 8001a84:	8d1b      	ldrh	r3, [r3, #40]	; 0x28
 8001a86:	2b02      	cmp	r3, #2
 8001a88:	d11b      	bne.n	8001ac2 <HAL_I2C_Master_Receive+0x17e>
 8001a8a:	68fb      	ldr	r3, [r7, #12]
 8001a8c:	681b      	ldr	r3, [r3, #0]
 8001a8e:	681a      	ldr	r2, [r3, #0]
 8001a90:	68fb      	ldr	r3, [r7, #12]
 8001a92:	681b      	ldr	r3, [r3, #0]
 8001a94:	f422 6280 	bic.w	r2, r2, #1024	; 0x400
 8001a98:	601a      	str	r2, [r3, #0]
 8001a9a:	68fb      	ldr	r3, [r7, #12]
 8001a9c:	681b      	ldr	r3, [r3, #0]
 8001a9e:	681a      	ldr	r2, [r3, #0]
 8001aa0:	68fb      	ldr	r3, [r7, #12]
 8001aa2:	681b      	ldr	r3, [r3, #0]
 8001aa4:	f442 6200 	orr.w	r2, r2, #2048	; 0x800
 8001aa8:	601a      	str	r2, [r3, #0]
 8001aaa:	2300      	movs	r3, #0
 8001aac:	61bb      	str	r3, [r7, #24]
 8001aae:	68fb      	ldr	r3, [r7, #12]
 8001ab0:	681b      	ldr	r3, [r3, #0]
 8001ab2:	695b      	ldr	r3, [r3, #20]
 8001ab4:	61bb      	str	r3, [r7, #24]
 8001ab6:	68fb      	ldr	r3, [r7, #12]
 8001ab8:	681b      	ldr	r3, [r3, #0]
 8001aba:	699b      	ldr	r3, [r3, #24]
 8001abc:	61bb      	str	r3, [r7, #24]
 8001abe:	69bb      	ldr	r3, [r7, #24]
 8001ac0:	e14c      	b.n	8001d5c <HAL_I2C_Master_Receive+0x418>
 8001ac2:	68fb      	ldr	r3, [r7, #12]
 8001ac4:	681b      	ldr	r3, [r3, #0]
 8001ac6:	681a      	ldr	r2, [r3, #0]
 8001ac8:	68fb      	ldr	r3, [r7, #12]
 8001aca:	681b      	ldr	r3, [r3, #0]
 8001acc:	f442 6280 	orr.w	r2, r2, #1024	; 0x400
 8001ad0:	601a      	str	r2, [r3, #0]
 8001ad2:	2300      	movs	r3, #0
 8001ad4:	617b      	str	r3, [r7, #20]
 8001ad6:	68fb      	ldr	r3, [r7, #12]
 8001ad8:	681b      	ldr	r3, [r3, #0]
 8001ada:	695b      	ldr	r3, [r3, #20]
 8001adc:	617b      	str	r3, [r7, #20]
 8001ade:	68fb      	ldr	r3, [r7, #12]
 8001ae0:	681b      	ldr	r3, [r3, #0]
 8001ae2:	699b      	ldr	r3, [r3, #24]
 8001ae4:	617b      	str	r3, [r7, #20]
 8001ae6:	697b      	ldr	r3, [r7, #20]
 8001ae8:	e138      	b.n	8001d5c <HAL_I2C_Master_Receive+0x418>
 8001aea:	68fb      	ldr	r3, [r7, #12]
 8001aec:	8d1b      	ldrh	r3, [r3, #40]	; 0x28
 8001aee:	2b03      	cmp	r3, #3
 8001af0:	f200 80f1 	bhi.w	8001cd6 <HAL_I2C_Master_Receive+0x392>
 8001af4:	68fb      	ldr	r3, [r7, #12]
 8001af6:	8d1b      	ldrh	r3, [r3, #40]	; 0x28
 8001af8:	2b01      	cmp	r3, #1
 8001afa:	d123      	bne.n	8001b44 <HAL_I2C_Master_Receive+0x200>
 8001afc:	6a7a      	ldr	r2, [r7, #36]	; 0x24
 8001afe:	6b39      	ldr	r1, [r7, #48]	; 0x30
 8001b00:	68f8      	ldr	r0, [r7, #12]
 8001b02:	f000 fbed 	bl	80022e0 <I2C_WaitOnRXNEFlagUntilTimeout>
 8001b06:	4603      	mov	r3, r0
 8001b08:	2b00      	cmp	r3, #0
 8001b0a:	d001      	beq.n	8001b10 <HAL_I2C_Master_Receive+0x1cc>
 8001b0c:	2301      	movs	r3, #1
 8001b0e:	e139      	b.n	8001d84 <HAL_I2C_Master_Receive+0x440>
 8001b10:	68fb      	ldr	r3, [r7, #12]
 8001b12:	681b      	ldr	r3, [r3, #0]
 8001b14:	691a      	ldr	r2, [r3, #16]
 8001b16:	68fb      	ldr	r3, [r7, #12]
 8001b18:	6a5b      	ldr	r3, [r3, #36]	; 0x24
 8001b1a:	b2d2      	uxtb	r2, r2
 8001b1c:	701a      	strb	r2, [r3, #0]
 8001b1e:	68fb      	ldr	r3, [r7, #12]
 8001b20:	6a5b      	ldr	r3, [r3, #36]	; 0x24
 8001b22:	1c5a      	adds	r2, r3, #1
 8001b24:	68fb      	ldr	r3, [r7, #12]
 8001b26:	625a      	str	r2, [r3, #36]	; 0x24
 8001b28:	68fb      	ldr	r3, [r7, #12]
 8001b2a:	8d1b      	ldrh	r3, [r3, #40]	; 0x28
 8001b2c:	3b01      	subs	r3, #1
 8001b2e:	b29a      	uxth	r2, r3
 8001b30:	68fb      	ldr	r3, [r7, #12]
 8001b32:	851a      	strh	r2, [r3, #40]	; 0x28
 8001b34:	68fb      	ldr	r3, [r7, #12]
 8001b36:	8d5b      	ldrh	r3, [r3, #42]	; 0x2a
 8001b38:	b29b      	uxth	r3, r3
 8001b3a:	3b01      	subs	r3, #1
 8001b3c:	b29a      	uxth	r2, r3
 8001b3e:	68fb      	ldr	r3, [r7, #12]
 8001b40:	855a      	strh	r2, [r3, #42]	; 0x2a
 8001b42:	e10b      	b.n	8001d5c <HAL_I2C_Master_Receive+0x418>
 8001b44:	68fb      	ldr	r3, [r7, #12]
 8001b46:	8d1b      	ldrh	r3, [r3, #40]	; 0x28
 8001b48:	2b02      	cmp	r3, #2
 8001b4a:	d14e      	bne.n	8001bea <HAL_I2C_Master_Receive+0x2a6>
 8001b4c:	6a7b      	ldr	r3, [r7, #36]	; 0x24
 8001b4e:	9300      	str	r3, [sp, #0]
 8001b50:	6b3b      	ldr	r3, [r7, #48]	; 0x30
 8001b52:	2200      	movs	r2, #0
 8001b54:	4906      	ldr	r1, [pc, #24]	; (8001b70 <HAL_I2C_Master_Receive+0x22c>)
 8001b56:	68f8      	ldr	r0, [r7, #12]
 8001b58:	f000 fa6a 	bl	8002030 <I2C_WaitOnFlagUntilTimeout>
 8001b5c:	4603      	mov	r3, r0
 8001b5e:	2b00      	cmp	r3, #0
 8001b60:	d008      	beq.n	8001b74 <HAL_I2C_Master_Receive+0x230>
 8001b62:	2301      	movs	r3, #1
 8001b64:	e10e      	b.n	8001d84 <HAL_I2C_Master_Receive+0x440>
 8001b66:	bf00      	nop
 8001b68:	00100002 	.word	0x00100002
 8001b6c:	ffff0000 	.word	0xffff0000
 8001b70:	00010004 	.word	0x00010004
 8001b74:	68fb      	ldr	r3, [r7, #12]
 8001b76:	681b      	ldr	r3, [r3, #0]
 8001b78:	681a      	ldr	r2, [r3, #0]
 8001b7a:	68fb      	ldr	r3, [r7, #12]
 8001b7c:	681b      	ldr	r3, [r3, #0]
 8001b7e:	f442 7200 	orr.w	r2, r2, #512	; 0x200
 8001b82:	601a      	str	r2, [r3, #0]
 8001b84:	68fb      	ldr	r3, [r7, #12]
 8001b86:	681b      	ldr	r3, [r3, #0]
 8001b88:	691a      	ldr	r2, [r3, #16]
 8001b8a:	68fb      	ldr	r3, [r7, #12]
 8001b8c:	6a5b      	ldr	r3, [r3, #36]	; 0x24
 8001b8e:	b2d2      	uxtb	r2, r2
 8001b90:	701a      	strb	r2, [r3, #0]
 8001b92:	68fb      	ldr	r3, [r7, #12]
 8001b94:	6a5b      	ldr	r3, [r3, #36]	; 0x24
 8001b96:	1c5a      	adds	r2, r3, #1
 8001b98:	68fb      	ldr	r3, [r7, #12]
 8001b9a:	625a      	str	r2, [r3, #36]	; 0x24
 8001b9c:	68fb      	ldr	r3, [r7, #12]
 8001b9e:	8d1b      	ldrh	r3, [r3, #40]	; 0x28
 8001ba0:	3b01      	subs	r3, #1
 8001ba2:	b29a      	uxth	r2, r3
 8001ba4:	68fb      	ldr	r3, [r7, #12]
 8001ba6:	851a      	strh	r2, [r3, #40]	; 0x28
 8001ba8:	68fb      	ldr	r3, [r7, #12]
 8001baa:	8d5b      	ldrh	r3, [r3, #42]	; 0x2a
 8001bac:	b29b      	uxth	r3, r3
 8001bae:	3b01      	subs	r3, #1
 8001bb0:	b29a      	uxth	r2, r3
 8001bb2:	68fb      	ldr	r3, [r7, #12]
 8001bb4:	855a      	strh	r2, [r3, #42]	; 0x2a
 8001bb6:	68fb      	ldr	r3, [r7, #12]
 8001bb8:	681b      	ldr	r3, [r3, #0]
 8001bba:	691a      	ldr	r2, [r3, #16]
 8001bbc:	68fb      	ldr	r3, [r7, #12]
 8001bbe:	6a5b      	ldr	r3, [r3, #36]	; 0x24
 8001bc0:	b2d2      	uxtb	r2, r2
 8001bc2:	701a      	strb	r2, [r3, #0]
 8001bc4:	68fb      	ldr	r3, [r7, #12]
 8001bc6:	6a5b      	ldr	r3, [r3, #36]	; 0x24
 8001bc8:	1c5a      	adds	r2, r3, #1
 8001bca:	68fb      	ldr	r3, [r7, #12]
 8001bcc:	625a      	str	r2, [r3, #36]	; 0x24
 8001bce:	68fb      	ldr	r3, [r7, #12]
 8001bd0:	8d1b      	ldrh	r3, [r3, #40]	; 0x28
 8001bd2:	3b01      	subs	r3, #1
 8001bd4:	b29a      	uxth	r2, r3
 8001bd6:	68fb      	ldr	r3, [r7, #12]
 8001bd8:	851a      	strh	r2, [r3, #40]	; 0x28
 8001bda:	68fb      	ldr	r3, [r7, #12]
 8001bdc:	8d5b      	ldrh	r3, [r3, #42]	; 0x2a
 8001bde:	b29b      	uxth	r3, r3
 8001be0:	3b01      	subs	r3, #1
 8001be2:	b29a      	uxth	r2, r3
 8001be4:	68fb      	ldr	r3, [r7, #12]
 8001be6:	855a      	strh	r2, [r3, #42]	; 0x2a
 8001be8:	e0b8      	b.n	8001d5c <HAL_I2C_Master_Receive+0x418>
 8001bea:	6a7b      	ldr	r3, [r7, #36]	; 0x24
 8001bec:	9300      	str	r3, [sp, #0]
 8001bee:	6b3b      	ldr	r3, [r7, #48]	; 0x30
 8001bf0:	2200      	movs	r2, #0
 8001bf2:	4966      	ldr	r1, [pc, #408]	; (8001d8c <HAL_I2C_Master_Receive+0x448>)
 8001bf4:	68f8      	ldr	r0, [r7, #12]
 8001bf6:	f000 fa1b 	bl	8002030 <I2C_WaitOnFlagUntilTimeout>
 8001bfa:	4603      	mov	r3, r0
 8001bfc:	2b00      	cmp	r3, #0
 8001bfe:	d001      	beq.n	8001c04 <HAL_I2C_Master_Receive+0x2c0>
 8001c00:	2301      	movs	r3, #1
 8001c02:	e0bf      	b.n	8001d84 <HAL_I2C_Master_Receive+0x440>
 8001c04:	68fb      	ldr	r3, [r7, #12]
 8001c06:	681b      	ldr	r3, [r3, #0]
 8001c08:	681a      	ldr	r2, [r3, #0]
 8001c0a:	68fb      	ldr	r3, [r7, #12]
 8001c0c:	681b      	ldr	r3, [r3, #0]
 8001c0e:	f422 6280 	bic.w	r2, r2, #1024	; 0x400
 8001c12:	601a      	str	r2, [r3, #0]
 8001c14:	68fb      	ldr	r3, [r7, #12]
 8001c16:	681b      	ldr	r3, [r3, #0]
 8001c18:	691a      	ldr	r2, [r3, #16]
 8001c1a:	68fb      	ldr	r3, [r7, #12]
 8001c1c:	6a5b      	ldr	r3, [r3, #36]	; 0x24
 8001c1e:	b2d2      	uxtb	r2, r2
 8001c20:	701a      	strb	r2, [r3, #0]
 8001c22:	68fb      	ldr	r3, [r7, #12]
 8001c24:	6a5b      	ldr	r3, [r3, #36]	; 0x24
 8001c26:	1c5a      	adds	r2, r3, #1
 8001c28:	68fb      	ldr	r3, [r7, #12]
 8001c2a:	625a      	str	r2, [r3, #36]	; 0x24
 8001c2c:	68fb      	ldr	r3, [r7, #12]
 8001c2e:	8d1b      	ldrh	r3, [r3, #40]	; 0x28
 8001c30:	3b01      	subs	r3, #1
 8001c32:	b29a      	uxth	r2, r3
 8001c34:	68fb      	ldr	r3, [r7, #12]
 8001c36:	851a      	strh	r2, [r3, #40]	; 0x28
 8001c38:	68fb      	ldr	r3, [r7, #12]
 8001c3a:	8d5b      	ldrh	r3, [r3, #42]	; 0x2a
 8001c3c:	b29b      	uxth	r3, r3
 8001c3e:	3b01      	subs	r3, #1
 8001c40:	b29a      	uxth	r2, r3
 8001c42:	68fb      	ldr	r3, [r7, #12]
 8001c44:	855a      	strh	r2, [r3, #42]	; 0x2a
 8001c46:	6a7b      	ldr	r3, [r7, #36]	; 0x24
 8001c48:	9300      	str	r3, [sp, #0]
 8001c4a:	6b3b      	ldr	r3, [r7, #48]	; 0x30
 8001c4c:	2200      	movs	r2, #0
 8001c4e:	494f      	ldr	r1, [pc, #316]	; (8001d8c <HAL_I2C_Master_Receive+0x448>)
 8001c50:	68f8      	ldr	r0, [r7, #12]
 8001c52:	f000 f9ed 	bl	8002030 <I2C_WaitOnFlagUntilTimeout>
 8001c56:	4603      	mov	r3, r0
 8001c58:	2b00      	cmp	r3, #0
 8001c5a:	d001      	beq.n	8001c60 <HAL_I2C_Master_Receive+0x31c>
 8001c5c:	2301      	movs	r3, #1
 8001c5e:	e091      	b.n	8001d84 <HAL_I2C_Master_Receive+0x440>
 8001c60:	68fb      	ldr	r3, [r7, #12]
 8001c62:	681b      	ldr	r3, [r3, #0]
 8001c64:	681a      	ldr	r2, [r3, #0]
 8001c66:	68fb      	ldr	r3, [r7, #12]
 8001c68:	681b      	ldr	r3, [r3, #0]
 8001c6a:	f442 7200 	orr.w	r2, r2, #512	; 0x200
 8001c6e:	601a      	str	r2, [r3, #0]
 8001c70:	68fb      	ldr	r3, [r7, #12]
 8001c72:	681b      	ldr	r3, [r3, #0]
 8001c74:	691a      	ldr	r2, [r3, #16]
 8001c76:	68fb      	ldr	r3, [r7, #12]
 8001c78:	6a5b      	ldr	r3, [r3, #36]	; 0x24
 8001c7a:	b2d2      	uxtb	r2, r2
 8001c7c:	701a      	strb	r2, [r3, #0]
 8001c7e:	68fb      	ldr	r3, [r7, #12]
 8001c80:	6a5b      	ldr	r3, [r3, #36]	; 0x24
 8001c82:	1c5a      	adds	r2, r3, #1
 8001c84:	68fb      	ldr	r3, [r7, #12]
 8001c86:	625a      	str	r2, [r3, #36]	; 0x24
 8001c88:	68fb      	ldr	r3, [r7, #12]
 8001c8a:	8d1b      	ldrh	r3, [r3, #40]	; 0x28
 8001c8c:	3b01      	subs	r3, #1
 8001c8e:	b29a      	uxth	r2, r3
 8001c90:	68fb      	ldr	r3, [r7, #12]
 8001c92:	851a      	strh	r2, [r3, #40]	; 0x28
 8001c94:	68fb      	ldr	r3, [r7, #12]
 8001c96:	8d5b      	ldrh	r3, [r3, #42]	; 0x2a
 8001c98:	b29b      	uxth	r3, r3
 8001c9a:	3b01      	subs	r3, #1
 8001c9c:	b29a      	uxth	r2, r3
 8001c9e:	68fb      	ldr	r3, [r7, #12]
 8001ca0:	855a      	strh	r2, [r3, #42]	; 0x2a
 8001ca2:	68fb      	ldr	r3, [r7, #12]
 8001ca4:	681b      	ldr	r3, [r3, #0]
 8001ca6:	691a      	ldr	r2, [r3, #16]
 8001ca8:	68fb      	ldr	r3, [r7, #12]
 8001caa:	6a5b      	ldr	r3, [r3, #36]	; 0x24
 8001cac:	b2d2      	uxtb	r2, r2
 8001cae:	701a      	strb	r2, [r3, #0]
 8001cb0:	68fb      	ldr	r3, [r7, #12]
 8001cb2:	6a5b      	ldr	r3, [r3, #36]	; 0x24
 8001cb4:	1c5a      	adds	r2, r3, #1
 8001cb6:	68fb      	ldr	r3, [r7, #12]
 8001cb8:	625a      	str	r2, [r3, #36]	; 0x24
 8001cba:	68fb      	ldr	r3, [r7, #12]
 8001cbc:	8d1b      	ldrh	r3, [r3, #40]	; 0x28
 8001cbe:	3b01      	subs	r3, #1
 8001cc0:	b29a      	uxth	r2, r3
 8001cc2:	68fb      	ldr	r3, [r7, #12]
 8001cc4:	851a      	strh	r2, [r3, #40]	; 0x28
 8001cc6:	68fb      	ldr	r3, [r7, #12]
 8001cc8:	8d5b      	ldrh	r3, [r3, #42]	; 0x2a
 8001cca:	b29b      	uxth	r3, r3
 8001ccc:	3b01      	subs	r3, #1
 8001cce:	b29a      	uxth	r2, r3
 8001cd0:	68fb      	ldr	r3, [r7, #12]
 8001cd2:	855a      	strh	r2, [r3, #42]	; 0x2a
 8001cd4:	e042      	b.n	8001d5c <HAL_I2C_Master_Receive+0x418>
 8001cd6:	6a7a      	ldr	r2, [r7, #36]	; 0x24
 8001cd8:	6b39      	ldr	r1, [r7, #48]	; 0x30
 8001cda:	68f8      	ldr	r0, [r7, #12]
 8001cdc:	f000 fb00 	bl	80022e0 <I2C_WaitOnRXNEFlagUntilTimeout>
 8001ce0:	4603      	mov	r3, r0
 8001ce2:	2b00      	cmp	r3, #0
 8001ce4:	d001      	beq.n	8001cea <HAL_I2C_Master_Receive+0x3a6>
 8001ce6:	2301      	movs	r3, #1
 8001ce8:	e04c      	b.n	8001d84 <HAL_I2C_Master_Receive+0x440>
 8001cea:	68fb      	ldr	r3, [r7, #12]
 8001cec:	681b      	ldr	r3, [r3, #0]
 8001cee:	691a      	ldr	r2, [r3, #16]
 8001cf0:	68fb      	ldr	r3, [r7, #12]
 8001cf2:	6a5b      	ldr	r3, [r3, #36]	; 0x24
 8001cf4:	b2d2      	uxtb	r2, r2
 8001cf6:	701a      	strb	r2, [r3, #0]
 8001cf8:	68fb      	ldr	r3, [r7, #12]
 8001cfa:	6a5b      	ldr	r3, [r3, #36]	; 0x24
 8001cfc:	1c5a      	adds	r2, r3, #1
 8001cfe:	68fb      	ldr	r3, [r7, #12]
 8001d00:	625a      	str	r2, [r3, #36]	; 0x24
 8001d02:	68fb      	ldr	r3, [r7, #12]
 8001d04:	8d1b      	ldrh	r3, [r3, #40]	; 0x28
 8001d06:	3b01      	subs	r3, #1
 8001d08:	b29a      	uxth	r2, r3
 8001d0a:	68fb      	ldr	r3, [r7, #12]
 8001d0c:	851a      	strh	r2, [r3, #40]	; 0x28
 8001d0e:	68fb      	ldr	r3, [r7, #12]
 8001d10:	8d5b      	ldrh	r3, [r3, #42]	; 0x2a
 8001d12:	b29b      	uxth	r3, r3
 8001d14:	3b01      	subs	r3, #1
 8001d16:	b29a      	uxth	r2, r3
 8001d18:	68fb      	ldr	r3, [r7, #12]
 8001d1a:	855a      	strh	r2, [r3, #42]	; 0x2a
 8001d1c:	68fb      	ldr	r3, [r7, #12]
 8001d1e:	681b      	ldr	r3, [r3, #0]
 8001d20:	695b      	ldr	r3, [r3, #20]
 8001d22:	f003 0304 	and.w	r3, r3, #4
 8001d26:	2b04      	cmp	r3, #4
 8001d28:	d118      	bne.n	8001d5c <HAL_I2C_Master_Receive+0x418>
 8001d2a:	68fb      	ldr	r3, [r7, #12]
 8001d2c:	681b      	ldr	r3, [r3, #0]
 8001d2e:	691a      	ldr	r2, [r3, #16]
 8001d30:	68fb      	ldr	r3, [r7, #12]
 8001d32:	6a5b      	ldr	r3, [r3, #36]	; 0x24
 8001d34:	b2d2      	uxtb	r2, r2
 8001d36:	701a      	strb	r2, [r3, #0]
 8001d38:	68fb      	ldr	r3, [r7, #12]
 8001d3a:	6a5b      	ldr	r3, [r3, #36]	; 0x24
 8001d3c:	1c5a      	adds	r2, r3, #1
 8001d3e:	68fb      	ldr	r3, [r7, #12]
 8001d40:	625a      	str	r2, [r3, #36]	; 0x24
 8001d42:	68fb      	ldr	r3, [r7, #12]
 8001d44:	8d1b      	ldrh	r3, [r3, #40]	; 0x28
 8001d46:	3b01      	subs	r3, #1
 8001d48:	b29a      	uxth	r2, r3
 8001d4a:	68fb      	ldr	r3, [r7, #12]
 8001d4c:	851a      	strh	r2, [r3, #40]	; 0x28
 8001d4e:	68fb      	ldr	r3, [r7, #12]
 8001d50:	8d5b      	ldrh	r3, [r3, #42]	; 0x2a
 8001d52:	b29b      	uxth	r3, r3
 8001d54:	3b01      	subs	r3, #1
 8001d56:	b29a      	uxth	r2, r3
 8001d58:	68fb      	ldr	r3, [r7, #12]
 8001d5a:	855a      	strh	r2, [r3, #42]	; 0x2a
 8001d5c:	68fb      	ldr	r3, [r7, #12]
 8001d5e:	8d1b      	ldrh	r3, [r3, #40]	; 0x28
 8001d60:	2b00      	cmp	r3, #0
 8001d62:	f47f aec2 	bne.w	8001aea <HAL_I2C_Master_Receive+0x1a6>
 8001d66:	68fb      	ldr	r3, [r7, #12]
 8001d68:	2220      	movs	r2, #32
 8001d6a:	f883 203d 	strb.w	r2, [r3, #61]	; 0x3d
 8001d6e:	68fb      	ldr	r3, [r7, #12]
 8001d70:	2200      	movs	r2, #0
 8001d72:	f883 203e 	strb.w	r2, [r3, #62]	; 0x3e
 8001d76:	68fb      	ldr	r3, [r7, #12]
 8001d78:	2200      	movs	r2, #0
 8001d7a:	f883 203c 	strb.w	r2, [r3, #60]	; 0x3c
 8001d7e:	2300      	movs	r3, #0
 8001d80:	e000      	b.n	8001d84 <HAL_I2C_Master_Receive+0x440>
 8001d82:	2302      	movs	r3, #2
 8001d84:	4618      	mov	r0, r3
 8001d86:	3728      	adds	r7, #40	; 0x28
 8001d88:	46bd      	mov	sp, r7
 8001d8a:	bd80      	pop	{r7, pc}
 8001d8c:	00010004 	.word	0x00010004

08001d90 <I2C_MasterRequestWrite>:
 8001d90:	b580      	push	{r7, lr}
 8001d92:	b088      	sub	sp, #32
 8001d94:	af02      	add	r7, sp, #8
 8001d96:	60f8      	str	r0, [r7, #12]
 8001d98:	607a      	str	r2, [r7, #4]
 8001d9a:	603b      	str	r3, [r7, #0]
 8001d9c:	460b      	mov	r3, r1
 8001d9e:	817b      	strh	r3, [r7, #10]
 8001da0:	68fb      	ldr	r3, [r7, #12]
 8001da2:	6adb      	ldr	r3, [r3, #44]	; 0x2c
 8001da4:	617b      	str	r3, [r7, #20]
 8001da6:	697b      	ldr	r3, [r7, #20]
 8001da8:	2b08      	cmp	r3, #8
 8001daa:	d006      	beq.n	8001dba <I2C_MasterRequestWrite+0x2a>
 8001dac:	697b      	ldr	r3, [r7, #20]
 8001dae:	2b01      	cmp	r3, #1
 8001db0:	d003      	beq.n	8001dba <I2C_MasterRequestWrite+0x2a>
 8001db2:	697b      	ldr	r3, [r7, #20]
 8001db4:	f513 3f80 	cmn.w	r3, #65536	; 0x10000
 8001db8:	d108      	bne.n	8001dcc <I2C_MasterRequestWrite+0x3c>
 8001dba:	68fb      	ldr	r3, [r7, #12]
 8001dbc:	681b      	ldr	r3, [r3, #0]
 8001dbe:	681a      	ldr	r2, [r3, #0]
 8001dc0:	68fb      	ldr	r3, [r7, #12]
 8001dc2:	681b      	ldr	r3, [r3, #0]
 8001dc4:	f442 7280 	orr.w	r2, r2, #256	; 0x100
 8001dc8:	601a      	str	r2, [r3, #0]
 8001dca:	e00b      	b.n	8001de4 <I2C_MasterRequestWrite+0x54>
 8001dcc:	68fb      	ldr	r3, [r7, #12]
 8001dce:	6b1b      	ldr	r3, [r3, #48]	; 0x30
 8001dd0:	2b12      	cmp	r3, #18
 8001dd2:	d107      	bne.n	8001de4 <I2C_MasterRequestWrite+0x54>
 8001dd4:	68fb      	ldr	r3, [r7, #12]
 8001dd6:	681b      	ldr	r3, [r3, #0]
 8001dd8:	681a      	ldr	r2, [r3, #0]
 8001dda:	68fb      	ldr	r3, [r7, #12]
 8001ddc:	681b      	ldr	r3, [r3, #0]
 8001dde:	f442 7280 	orr.w	r2, r2, #256	; 0x100
 8001de2:	601a      	str	r2, [r3, #0]
 8001de4:	683b      	ldr	r3, [r7, #0]
 8001de6:	9300      	str	r3, [sp, #0]
 8001de8:	687b      	ldr	r3, [r7, #4]
 8001dea:	2200      	movs	r2, #0
 8001dec:	f04f 1101 	mov.w	r1, #65537	; 0x10001
 8001df0:	68f8      	ldr	r0, [r7, #12]
 8001df2:	f000 f91d 	bl	8002030 <I2C_WaitOnFlagUntilTimeout>
 8001df6:	4603      	mov	r3, r0
 8001df8:	2b00      	cmp	r3, #0
 8001dfa:	d00d      	beq.n	8001e18 <I2C_MasterRequestWrite+0x88>
 8001dfc:	68fb      	ldr	r3, [r7, #12]
 8001dfe:	681b      	ldr	r3, [r3, #0]
 8001e00:	681b      	ldr	r3, [r3, #0]
 8001e02:	f403 7380 	and.w	r3, r3, #256	; 0x100
 8001e06:	f5b3 7f80 	cmp.w	r3, #256	; 0x100
 8001e0a:	d103      	bne.n	8001e14 <I2C_MasterRequestWrite+0x84>
 8001e0c:	68fb      	ldr	r3, [r7, #12]
 8001e0e:	f44f 7200 	mov.w	r2, #512	; 0x200
 8001e12:	641a      	str	r2, [r3, #64]	; 0x40
 8001e14:	2303      	movs	r3, #3
 8001e16:	e035      	b.n	8001e84 <I2C_MasterRequestWrite+0xf4>
 8001e18:	68fb      	ldr	r3, [r7, #12]
 8001e1a:	691b      	ldr	r3, [r3, #16]
 8001e1c:	f5b3 4f80 	cmp.w	r3, #16384	; 0x4000
 8001e20:	d108      	bne.n	8001e34 <I2C_MasterRequestWrite+0xa4>
 8001e22:	897b      	ldrh	r3, [r7, #10]
 8001e24:	b2db      	uxtb	r3, r3
 8001e26:	461a      	mov	r2, r3
 8001e28:	68fb      	ldr	r3, [r7, #12]
 8001e2a:	681b      	ldr	r3, [r3, #0]
 8001e2c:	f002 02fe 	and.w	r2, r2, #254	; 0xfe
 8001e30:	611a      	str	r2, [r3, #16]
 8001e32:	e01b      	b.n	8001e6c <I2C_MasterRequestWrite+0xdc>
 8001e34:	897b      	ldrh	r3, [r7, #10]
 8001e36:	11db      	asrs	r3, r3, #7
 8001e38:	b2db      	uxtb	r3, r3
 8001e3a:	f003 0306 	and.w	r3, r3, #6
 8001e3e:	b2db      	uxtb	r3, r3
 8001e40:	f063 030f 	orn	r3, r3, #15
 8001e44:	b2da      	uxtb	r2, r3
 8001e46:	68fb      	ldr	r3, [r7, #12]
 8001e48:	681b      	ldr	r3, [r3, #0]
 8001e4a:	611a      	str	r2, [r3, #16]
 8001e4c:	683b      	ldr	r3, [r7, #0]
 8001e4e:	687a      	ldr	r2, [r7, #4]
 8001e50:	490e      	ldr	r1, [pc, #56]	; (8001e8c <I2C_MasterRequestWrite+0xfc>)
 8001e52:	68f8      	ldr	r0, [r7, #12]
 8001e54:	f000 f943 	bl	80020de <I2C_WaitOnMasterAddressFlagUntilTimeout>
 8001e58:	4603      	mov	r3, r0
 8001e5a:	2b00      	cmp	r3, #0
 8001e5c:	d001      	beq.n	8001e62 <I2C_MasterRequestWrite+0xd2>
 8001e5e:	2301      	movs	r3, #1
 8001e60:	e010      	b.n	8001e84 <I2C_MasterRequestWrite+0xf4>
 8001e62:	897b      	ldrh	r3, [r7, #10]
 8001e64:	b2da      	uxtb	r2, r3
 8001e66:	68fb      	ldr	r3, [r7, #12]
 8001e68:	681b      	ldr	r3, [r3, #0]
 8001e6a:	611a      	str	r2, [r3, #16]
 8001e6c:	683b      	ldr	r3, [r7, #0]
 8001e6e:	687a      	ldr	r2, [r7, #4]
 8001e70:	4907      	ldr	r1, [pc, #28]	; (8001e90 <I2C_MasterRequestWrite+0x100>)
 8001e72:	68f8      	ldr	r0, [r7, #12]
 8001e74:	f000 f933 	bl	80020de <I2C_WaitOnMasterAddressFlagUntilTimeout>
 8001e78:	4603      	mov	r3, r0
 8001e7a:	2b00      	cmp	r3, #0
 8001e7c:	d001      	beq.n	8001e82 <I2C_MasterRequestWrite+0xf2>
 8001e7e:	2301      	movs	r3, #1
 8001e80:	e000      	b.n	8001e84 <I2C_MasterRequestWrite+0xf4>
 8001e82:	2300      	movs	r3, #0
 8001e84:	4618      	mov	r0, r3
 8001e86:	3718      	adds	r7, #24
 8001e88:	46bd      	mov	sp, r7
 8001e8a:	bd80      	pop	{r7, pc}
 8001e8c:	00010008 	.word	0x00010008
 8001e90:	00010002 	.word	0x00010002

08001e94 <I2C_MasterRequestRead>:
 8001e94:	b580      	push	{r7, lr}
 8001e96:	b088      	sub	sp, #32
 8001e98:	af02      	add	r7, sp, #8
 8001e9a:	60f8      	str	r0, [r7, #12]
 8001e9c:	607a      	str	r2, [r7, #4]
 8001e9e:	603b      	str	r3, [r7, #0]
 8001ea0:	460b      	mov	r3, r1
 8001ea2:	817b      	strh	r3, [r7, #10]
 8001ea4:	68fb      	ldr	r3, [r7, #12]
 8001ea6:	6adb      	ldr	r3, [r3, #44]	; 0x2c
 8001ea8:	617b      	str	r3, [r7, #20]
 8001eaa:	68fb      	ldr	r3, [r7, #12]
 8001eac:	681b      	ldr	r3, [r3, #0]
 8001eae:	681a      	ldr	r2, [r3, #0]
 8001eb0:	68fb      	ldr	r3, [r7, #12]
 8001eb2:	681b      	ldr	r3, [r3, #0]
 8001eb4:	f442 6280 	orr.w	r2, r2, #1024	; 0x400
 8001eb8:	601a      	str	r2, [r3, #0]
 8001eba:	697b      	ldr	r3, [r7, #20]
 8001ebc:	2b08      	cmp	r3, #8
 8001ebe:	d006      	beq.n	8001ece <I2C_MasterRequestRead+0x3a>
 8001ec0:	697b      	ldr	r3, [r7, #20]
 8001ec2:	2b01      	cmp	r3, #1
 8001ec4:	d003      	beq.n	8001ece <I2C_MasterRequestRead+0x3a>
 8001ec6:	697b      	ldr	r3, [r7, #20]
 8001ec8:	f513 3f80 	cmn.w	r3, #65536	; 0x10000
 8001ecc:	d108      	bne.n	8001ee0 <I2C_MasterRequestRead+0x4c>
 8001ece:	68fb      	ldr	r3, [r7, #12]
 8001ed0:	681b      	ldr	r3, [r3, #0]
 8001ed2:	681a      	ldr	r2, [r3, #0]
 8001ed4:	68fb      	ldr	r3, [r7, #12]
 8001ed6:	681b      	ldr	r3, [r3, #0]
 8001ed8:	f442 7280 	orr.w	r2, r2, #256	; 0x100
 8001edc:	601a      	str	r2, [r3, #0]
 8001ede:	e00b      	b.n	8001ef8 <I2C_MasterRequestRead+0x64>
 8001ee0:	68fb      	ldr	r3, [r7, #12]
 8001ee2:	6b1b      	ldr	r3, [r3, #48]	; 0x30
 8001ee4:	2b11      	cmp	r3, #17
 8001ee6:	d107      	bne.n	8001ef8 <I2C_MasterRequestRead+0x64>
 8001ee8:	68fb      	ldr	r3, [r7, #12]
 8001eea:	681b      	ldr	r3, [r3, #0]
 8001eec:	681a      	ldr	r2, [r3, #0]
 8001eee:	68fb      	ldr	r3, [r7, #12]
 8001ef0:	681b      	ldr	r3, [r3, #0]
 8001ef2:	f442 7280 	orr.w	r2, r2, #256	; 0x100
 8001ef6:	601a      	str	r2, [r3, #0]
 8001ef8:	683b      	ldr	r3, [r7, #0]
 8001efa:	9300      	str	r3, [sp, #0]
 8001efc:	687b      	ldr	r3, [r7, #4]
 8001efe:	2200      	movs	r2, #0
 8001f00:	f04f 1101 	mov.w	r1, #65537	; 0x10001
 8001f04:	68f8      	ldr	r0, [r7, #12]
 8001f06:	f000 f893 	bl	8002030 <I2C_WaitOnFlagUntilTimeout>
 8001f0a:	4603      	mov	r3, r0
 8001f0c:	2b00      	cmp	r3, #0
 8001f0e:	d00d      	beq.n	8001f2c <I2C_MasterRequestRead+0x98>
 8001f10:	68fb      	ldr	r3, [r7, #12]
 8001f12:	681b      	ldr	r3, [r3, #0]
 8001f14:	681b      	ldr	r3, [r3, #0]
 8001f16:	f403 7380 	and.w	r3, r3, #256	; 0x100
 8001f1a:	f5b3 7f80 	cmp.w	r3, #256	; 0x100
 8001f1e:	d103      	bne.n	8001f28 <I2C_MasterRequestRead+0x94>
 8001f20:	68fb      	ldr	r3, [r7, #12]
 8001f22:	f44f 7200 	mov.w	r2, #512	; 0x200
 8001f26:	641a      	str	r2, [r3, #64]	; 0x40
 8001f28:	2303      	movs	r3, #3
 8001f2a:	e079      	b.n	8002020 <I2C_MasterRequestRead+0x18c>
 8001f2c:	68fb      	ldr	r3, [r7, #12]
 8001f2e:	691b      	ldr	r3, [r3, #16]
 8001f30:	f5b3 4f80 	cmp.w	r3, #16384	; 0x4000
 8001f34:	d108      	bne.n	8001f48 <I2C_MasterRequestRead+0xb4>
 8001f36:	897b      	ldrh	r3, [r7, #10]
 8001f38:	b2db      	uxtb	r3, r3
 8001f3a:	f043 0301 	orr.w	r3, r3, #1
 8001f3e:	b2da      	uxtb	r2, r3
 8001f40:	68fb      	ldr	r3, [r7, #12]
 8001f42:	681b      	ldr	r3, [r3, #0]
 8001f44:	611a      	str	r2, [r3, #16]
 8001f46:	e05f      	b.n	8002008 <I2C_MasterRequestRead+0x174>
 8001f48:	897b      	ldrh	r3, [r7, #10]
 8001f4a:	11db      	asrs	r3, r3, #7
 8001f4c:	b2db      	uxtb	r3, r3
 8001f4e:	f003 0306 	and.w	r3, r3, #6
 8001f52:	b2db      	uxtb	r3, r3
 8001f54:	f063 030f 	orn	r3, r3, #15
 8001f58:	b2da      	uxtb	r2, r3
 8001f5a:	68fb      	ldr	r3, [r7, #12]
 8001f5c:	681b      	ldr	r3, [r3, #0]
 8001f5e:	611a      	str	r2, [r3, #16]
 8001f60:	683b      	ldr	r3, [r7, #0]
 8001f62:	687a      	ldr	r2, [r7, #4]
 8001f64:	4930      	ldr	r1, [pc, #192]	; (8002028 <I2C_MasterRequestRead+0x194>)
 8001f66:	68f8      	ldr	r0, [r7, #12]
 8001f68:	f000 f8b9 	bl	80020de <I2C_WaitOnMasterAddressFlagUntilTimeout>
 8001f6c:	4603      	mov	r3, r0
 8001f6e:	2b00      	cmp	r3, #0
 8001f70:	d001      	beq.n	8001f76 <I2C_MasterRequestRead+0xe2>
 8001f72:	2301      	movs	r3, #1
 8001f74:	e054      	b.n	8002020 <I2C_MasterRequestRead+0x18c>
 8001f76:	897b      	ldrh	r3, [r7, #10]
 8001f78:	b2da      	uxtb	r2, r3
 8001f7a:	68fb      	ldr	r3, [r7, #12]
 8001f7c:	681b      	ldr	r3, [r3, #0]
 8001f7e:	611a      	str	r2, [r3, #16]
 8001f80:	683b      	ldr	r3, [r7, #0]
 8001f82:	687a      	ldr	r2, [r7, #4]
 8001f84:	4929      	ldr	r1, [pc, #164]	; (800202c <I2C_MasterRequestRead+0x198>)
 8001f86:	68f8      	ldr	r0, [r7, #12]
 8001f88:	f000 f8a9 	bl	80020de <I2C_WaitOnMasterAddressFlagUntilTimeout>
 8001f8c:	4603      	mov	r3, r0
 8001f8e:	2b00      	cmp	r3, #0
 8001f90:	d001      	beq.n	8001f96 <I2C_MasterRequestRead+0x102>
 8001f92:	2301      	movs	r3, #1
 8001f94:	e044      	b.n	8002020 <I2C_MasterRequestRead+0x18c>
 8001f96:	2300      	movs	r3, #0
 8001f98:	613b      	str	r3, [r7, #16]
 8001f9a:	68fb      	ldr	r3, [r7, #12]
 8001f9c:	681b      	ldr	r3, [r3, #0]
 8001f9e:	695b      	ldr	r3, [r3, #20]
 8001fa0:	613b      	str	r3, [r7, #16]
 8001fa2:	68fb      	ldr	r3, [r7, #12]
 8001fa4:	681b      	ldr	r3, [r3, #0]
 8001fa6:	699b      	ldr	r3, [r3, #24]
 8001fa8:	613b      	str	r3, [r7, #16]
 8001faa:	693b      	ldr	r3, [r7, #16]
 8001fac:	68fb      	ldr	r3, [r7, #12]
 8001fae:	681b      	ldr	r3, [r3, #0]
 8001fb0:	681a      	ldr	r2, [r3, #0]
 8001fb2:	68fb      	ldr	r3, [r7, #12]
 8001fb4:	681b      	ldr	r3, [r3, #0]
 8001fb6:	f442 7280 	orr.w	r2, r2, #256	; 0x100
 8001fba:	601a      	str	r2, [r3, #0]
 8001fbc:	683b      	ldr	r3, [r7, #0]
 8001fbe:	9300      	str	r3, [sp, #0]
 8001fc0:	687b      	ldr	r3, [r7, #4]
 8001fc2:	2200      	movs	r2, #0
 8001fc4:	f04f 1101 	mov.w	r1, #65537	; 0x10001
 8001fc8:	68f8      	ldr	r0, [r7, #12]
 8001fca:	f000 f831 	bl	8002030 <I2C_WaitOnFlagUntilTimeout>
 8001fce:	4603      	mov	r3, r0
 8001fd0:	2b00      	cmp	r3, #0
 8001fd2:	d00d      	beq.n	8001ff0 <I2C_MasterRequestRead+0x15c>
 8001fd4:	68fb      	ldr	r3, [r7, #12]
 8001fd6:	681b      	ldr	r3, [r3, #0]
 8001fd8:	681b      	ldr	r3, [r3, #0]
 8001fda:	f403 7380 	and.w	r3, r3, #256	; 0x100
 8001fde:	f5b3 7f80 	cmp.w	r3, #256	; 0x100
 8001fe2:	d103      	bne.n	8001fec <I2C_MasterRequestRead+0x158>
 8001fe4:	68fb      	ldr	r3, [r7, #12]
 8001fe6:	f44f 7200 	mov.w	r2, #512	; 0x200
 8001fea:	641a      	str	r2, [r3, #64]	; 0x40
 8001fec:	2303      	movs	r3, #3
 8001fee:	e017      	b.n	8002020 <I2C_MasterRequestRead+0x18c>
 8001ff0:	897b      	ldrh	r3, [r7, #10]
 8001ff2:	11db      	asrs	r3, r3, #7
 8001ff4:	b2db      	uxtb	r3, r3
 8001ff6:	f003 0306 	and.w	r3, r3, #6
 8001ffa:	b2db      	uxtb	r3, r3
 8001ffc:	f063 030e 	orn	r3, r3, #14
 8002000:	b2da      	uxtb	r2, r3
 8002002:	68fb      	ldr	r3, [r7, #12]
 8002004:	681b      	ldr	r3, [r3, #0]
 8002006:	611a      	str	r2, [r3, #16]
 8002008:	683b      	ldr	r3, [r7, #0]
 800200a:	687a      	ldr	r2, [r7, #4]
 800200c:	4907      	ldr	r1, [pc, #28]	; (800202c <I2C_MasterRequestRead+0x198>)
 800200e:	68f8      	ldr	r0, [r7, #12]
 8002010:	f000 f865 	bl	80020de <I2C_WaitOnMasterAddressFlagUntilTimeout>
 8002014:	4603      	mov	r3, r0
 8002016:	2b00      	cmp	r3, #0
 8002018:	d001      	beq.n	800201e <I2C_MasterRequestRead+0x18a>
 800201a:	2301      	movs	r3, #1
 800201c:	e000      	b.n	8002020 <I2C_MasterRequestRead+0x18c>
 800201e:	2300      	movs	r3, #0
 8002020:	4618      	mov	r0, r3
 8002022:	3718      	adds	r7, #24
 8002024:	46bd      	mov	sp, r7
 8002026:	bd80      	pop	{r7, pc}
 8002028:	00010008 	.word	0x00010008
 800202c:	00010002 	.word	0x00010002

08002030 <I2C_WaitOnFlagUntilTimeout>:
 8002030:	b580      	push	{r7, lr}
 8002032:	b084      	sub	sp, #16
 8002034:	af00      	add	r7, sp, #0
 8002036:	60f8      	str	r0, [r7, #12]
 8002038:	60b9      	str	r1, [r7, #8]
 800203a:	603b      	str	r3, [r7, #0]
 800203c:	4613      	mov	r3, r2
 800203e:	71fb      	strb	r3, [r7, #7]
 8002040:	e025      	b.n	800208e <I2C_WaitOnFlagUntilTimeout+0x5e>
 8002042:	683b      	ldr	r3, [r7, #0]
 8002044:	f1b3 3fff 	cmp.w	r3, #4294967295
 8002048:	d021      	beq.n	800208e <I2C_WaitOnFlagUntilTimeout+0x5e>
 800204a:	f7fe ff85 	bl	8000f58 <HAL_GetTick>
 800204e:	4602      	mov	r2, r0
 8002050:	69bb      	ldr	r3, [r7, #24]
 8002052:	1ad3      	subs	r3, r2, r3
 8002054:	683a      	ldr	r2, [r7, #0]
 8002056:	429a      	cmp	r2, r3
 8002058:	d302      	bcc.n	8002060 <I2C_WaitOnFlagUntilTimeout+0x30>
 800205a:	683b      	ldr	r3, [r7, #0]
 800205c:	2b00      	cmp	r3, #0
 800205e:	d116      	bne.n	800208e <I2C_WaitOnFlagUntilTimeout+0x5e>
 8002060:	68fb      	ldr	r3, [r7, #12]
 8002062:	2200      	movs	r2, #0
 8002064:	631a      	str	r2, [r3, #48]	; 0x30
 8002066:	68fb      	ldr	r3, [r7, #12]
 8002068:	2220      	movs	r2, #32
 800206a:	f883 203d 	strb.w	r2, [r3, #61]	; 0x3d
 800206e:	68fb      	ldr	r3, [r7, #12]
 8002070:	2200      	movs	r2, #0
 8002072:	f883 203e 	strb.w	r2, [r3, #62]	; 0x3e
 8002076:	68fb      	ldr	r3, [r7, #12]
 8002078:	6c1b      	ldr	r3, [r3, #64]	; 0x40
 800207a:	f043 0220 	orr.w	r2, r3, #32
 800207e:	68fb      	ldr	r3, [r7, #12]
 8002080:	641a      	str	r2, [r3, #64]	; 0x40
 8002082:	68fb      	ldr	r3, [r7, #12]
 8002084:	2200      	movs	r2, #0
 8002086:	f883 203c 	strb.w	r2, [r3, #60]	; 0x3c
 800208a:	2301      	movs	r3, #1
 800208c:	e023      	b.n	80020d6 <I2C_WaitOnFlagUntilTimeout+0xa6>
 800208e:	68bb      	ldr	r3, [r7, #8]
 8002090:	0c1b      	lsrs	r3, r3, #16
 8002092:	b2db      	uxtb	r3, r3
 8002094:	2b01      	cmp	r3, #1
 8002096:	d10d      	bne.n	80020b4 <I2C_WaitOnFlagUntilTimeout+0x84>
 8002098:	68fb      	ldr	r3, [r7, #12]
 800209a:	681b      	ldr	r3, [r3, #0]
 800209c:	695b      	ldr	r3, [r3, #20]
 800209e:	43da      	mvns	r2, r3
 80020a0:	68bb      	ldr	r3, [r7, #8]
 80020a2:	4013      	ands	r3, r2
 80020a4:	b29b      	uxth	r3, r3
 80020a6:	2b00      	cmp	r3, #0
 80020a8:	bf0c      	ite	eq
 80020aa:	2301      	moveq	r3, #1
 80020ac:	2300      	movne	r3, #0
 80020ae:	b2db      	uxtb	r3, r3
 80020b0:	461a      	mov	r2, r3
 80020b2:	e00c      	b.n	80020ce <I2C_WaitOnFlagUntilTimeout+0x9e>
 80020b4:	68fb      	ldr	r3, [r7, #12]
 80020b6:	681b      	ldr	r3, [r3, #0]
 80020b8:	699b      	ldr	r3, [r3, #24]
 80020ba:	43da      	mvns	r2, r3
 80020bc:	68bb      	ldr	r3, [r7, #8]
 80020be:	4013      	ands	r3, r2
 80020c0:	b29b      	uxth	r3, r3
 80020c2:	2b00      	cmp	r3, #0
 80020c4:	bf0c      	ite	eq
 80020c6:	2301      	moveq	r3, #1
 80020c8:	2300      	movne	r3, #0
 80020ca:	b2db      	uxtb	r3, r3
 80020cc:	461a      	mov	r2, r3
 80020ce:	79fb      	ldrb	r3, [r7, #7]
 80020d0:	429a      	cmp	r2, r3
 80020d2:	d0b6      	beq.n	8002042 <I2C_WaitOnFlagUntilTimeout+0x12>
 80020d4:	2300      	movs	r3, #0
 80020d6:	4618      	mov	r0, r3
 80020d8:	3710      	adds	r7, #16
 80020da:	46bd      	mov	sp, r7
 80020dc:	bd80      	pop	{r7, pc}

080020de <I2C_WaitOnMasterAddressFlagUntilTimeout>:
 80020de:	b580      	push	{r7, lr}
 80020e0:	b084      	sub	sp, #16
 80020e2:	af00      	add	r7, sp, #0
 80020e4:	60f8      	str	r0, [r7, #12]
 80020e6:	60b9      	str	r1, [r7, #8]
 80020e8:	607a      	str	r2, [r7, #4]
 80020ea:	603b      	str	r3, [r7, #0]
 80020ec:	e051      	b.n	8002192 <I2C_WaitOnMasterAddressFlagUntilTimeout+0xb4>
 80020ee:	68fb      	ldr	r3, [r7, #12]
 80020f0:	681b      	ldr	r3, [r3, #0]
 80020f2:	695b      	ldr	r3, [r3, #20]
 80020f4:	f403 6380 	and.w	r3, r3, #1024	; 0x400
 80020f8:	f5b3 6f80 	cmp.w	r3, #1024	; 0x400
 80020fc:	d123      	bne.n	8002146 <I2C_WaitOnMasterAddressFlagUntilTimeout+0x68>
 80020fe:	68fb      	ldr	r3, [r7, #12]
 8002100:	681b      	ldr	r3, [r3, #0]
 8002102:	681a      	ldr	r2, [r3, #0]
 8002104:	68fb      	ldr	r3, [r7, #12]
 8002106:	681b      	ldr	r3, [r3, #0]
 8002108:	f442 7200 	orr.w	r2, r2, #512	; 0x200
 800210c:	601a      	str	r2, [r3, #0]
 800210e:	68fb      	ldr	r3, [r7, #12]
 8002110:	681b      	ldr	r3, [r3, #0]
 8002112:	f46f 6280 	mvn.w	r2, #1024	; 0x400
 8002116:	615a      	str	r2, [r3, #20]
 8002118:	68fb      	ldr	r3, [r7, #12]
 800211a:	2200      	movs	r2, #0
 800211c:	631a      	str	r2, [r3, #48]	; 0x30
 800211e:	68fb      	ldr	r3, [r7, #12]
 8002120:	2220      	movs	r2, #32
 8002122:	f883 203d 	strb.w	r2, [r3, #61]	; 0x3d
 8002126:	68fb      	ldr	r3, [r7, #12]
 8002128:	2200      	movs	r2, #0
 800212a:	f883 203e 	strb.w	r2, [r3, #62]	; 0x3e
 800212e:	68fb      	ldr	r3, [r7, #12]
 8002130:	6c1b      	ldr	r3, [r3, #64]	; 0x40
 8002132:	f043 0204 	orr.w	r2, r3, #4
 8002136:	68fb      	ldr	r3, [r7, #12]
 8002138:	641a      	str	r2, [r3, #64]	; 0x40
 800213a:	68fb      	ldr	r3, [r7, #12]
 800213c:	2200      	movs	r2, #0
 800213e:	f883 203c 	strb.w	r2, [r3, #60]	; 0x3c
 8002142:	2301      	movs	r3, #1
 8002144:	e046      	b.n	80021d4 <I2C_WaitOnMasterAddressFlagUntilTimeout+0xf6>
 8002146:	687b      	ldr	r3, [r7, #4]
 8002148:	f1b3 3fff 	cmp.w	r3, #4294967295
 800214c:	d021      	beq.n	8002192 <I2C_WaitOnMasterAddressFlagUntilTimeout+0xb4>
 800214e:	f7fe ff03 	bl	8000f58 <HAL_GetTick>
 8002152:	4602      	mov	r2, r0
 8002154:	683b      	ldr	r3, [r7, #0]
 8002156:	1ad3      	subs	r3, r2, r3
 8002158:	687a      	ldr	r2, [r7, #4]
 800215a:	429a      	cmp	r2, r3
 800215c:	d302      	bcc.n	8002164 <I2C_WaitOnMasterAddressFlagUntilTimeout+0x86>
 800215e:	687b      	ldr	r3, [r7, #4]
 8002160:	2b00      	cmp	r3, #0
 8002162:	d116      	bne.n	8002192 <I2C_WaitOnMasterAddressFlagUntilTimeout+0xb4>
 8002164:	68fb      	ldr	r3, [r7, #12]
 8002166:	2200      	movs	r2, #0
 8002168:	631a      	str	r2, [r3, #48]	; 0x30
 800216a:	68fb      	ldr	r3, [r7, #12]
 800216c:	2220      	movs	r2, #32
 800216e:	f883 203d 	strb.w	r2, [r3, #61]	; 0x3d
 8002172:	68fb      	ldr	r3, [r7, #12]
 8002174:	2200      	movs	r2, #0
 8002176:	f883 203e 	strb.w	r2, [r3, #62]	; 0x3e
 800217a:	68fb      	ldr	r3, [r7, #12]
 800217c:	6c1b      	ldr	r3, [r3, #64]	; 0x40
 800217e:	f043 0220 	orr.w	r2, r3, #32
 8002182:	68fb      	ldr	r3, [r7, #12]
 8002184:	641a      	str	r2, [r3, #64]	; 0x40
 8002186:	68fb      	ldr	r3, [r7, #12]
 8002188:	2200      	movs	r2, #0
 800218a:	f883 203c 	strb.w	r2, [r3, #60]	; 0x3c
 800218e:	2301      	movs	r3, #1
 8002190:	e020      	b.n	80021d4 <I2C_WaitOnMasterAddressFlagUntilTimeout+0xf6>
 8002192:	68bb      	ldr	r3, [r7, #8]
 8002194:	0c1b      	lsrs	r3, r3, #16
 8002196:	b2db      	uxtb	r3, r3
 8002198:	2b01      	cmp	r3, #1
 800219a:	d10c      	bne.n	80021b6 <I2C_WaitOnMasterAddressFlagUntilTimeout+0xd8>
 800219c:	68fb      	ldr	r3, [r7, #12]
 800219e:	681b      	ldr	r3, [r3, #0]
 80021a0:	695b      	ldr	r3, [r3, #20]
 80021a2:	43da      	mvns	r2, r3
 80021a4:	68bb      	ldr	r3, [r7, #8]
 80021a6:	4013      	ands	r3, r2
 80021a8:	b29b      	uxth	r3, r3
 80021aa:	2b00      	cmp	r3, #0
 80021ac:	bf14      	ite	ne
 80021ae:	2301      	movne	r3, #1
 80021b0:	2300      	moveq	r3, #0
 80021b2:	b2db      	uxtb	r3, r3
 80021b4:	e00b      	b.n	80021ce <I2C_WaitOnMasterAddressFlagUntilTimeout+0xf0>
 80021b6:	68fb      	ldr	r3, [r7, #12]
 80021b8:	681b      	ldr	r3, [r3, #0]
 80021ba:	699b      	ldr	r3, [r3, #24]
 80021bc:	43da      	mvns	r2, r3
 80021be:	68bb      	ldr	r3, [r7, #8]
 80021c0:	4013      	ands	r3, r2
 80021c2:	b29b      	uxth	r3, r3
 80021c4:	2b00      	cmp	r3, #0
 80021c6:	bf14      	ite	ne
 80021c8:	2301      	movne	r3, #1
 80021ca:	2300      	moveq	r3, #0
 80021cc:	b2db      	uxtb	r3, r3
 80021ce:	2b00      	cmp	r3, #0
 80021d0:	d18d      	bne.n	80020ee <I2C_WaitOnMasterAddressFlagUntilTimeout+0x10>
 80021d2:	2300      	movs	r3, #0
 80021d4:	4618      	mov	r0, r3
 80021d6:	3710      	adds	r7, #16
 80021d8:	46bd      	mov	sp, r7
 80021da:	bd80      	pop	{r7, pc}

080021dc <I2C_WaitOnTXEFlagUntilTimeout>:
 80021dc:	b580      	push	{r7, lr}
 80021de:	b084      	sub	sp, #16
 80021e0:	af00      	add	r7, sp, #0
 80021e2:	60f8      	str	r0, [r7, #12]
 80021e4:	60b9      	str	r1, [r7, #8]
 80021e6:	607a      	str	r2, [r7, #4]
 80021e8:	e02d      	b.n	8002246 <I2C_WaitOnTXEFlagUntilTimeout+0x6a>
 80021ea:	68f8      	ldr	r0, [r7, #12]
 80021ec:	f000 f8ce 	bl	800238c <I2C_IsAcknowledgeFailed>
 80021f0:	4603      	mov	r3, r0
 80021f2:	2b00      	cmp	r3, #0
 80021f4:	d001      	beq.n	80021fa <I2C_WaitOnTXEFlagUntilTimeout+0x1e>
 80021f6:	2301      	movs	r3, #1
 80021f8:	e02d      	b.n	8002256 <I2C_WaitOnTXEFlagUntilTimeout+0x7a>
 80021fa:	68bb      	ldr	r3, [r7, #8]
 80021fc:	f1b3 3fff 	cmp.w	r3, #4294967295
 8002200:	d021      	beq.n	8002246 <I2C_WaitOnTXEFlagUntilTimeout+0x6a>
 8002202:	f7fe fea9 	bl	8000f58 <HAL_GetTick>
 8002206:	4602      	mov	r2, r0
 8002208:	687b      	ldr	r3, [r7, #4]
 800220a:	1ad3      	subs	r3, r2, r3
 800220c:	68ba      	ldr	r2, [r7, #8]
 800220e:	429a      	cmp	r2, r3
 8002210:	d302      	bcc.n	8002218 <I2C_WaitOnTXEFlagUntilTimeout+0x3c>
 8002212:	68bb      	ldr	r3, [r7, #8]
 8002214:	2b00      	cmp	r3, #0
 8002216:	d116      	bne.n	8002246 <I2C_WaitOnTXEFlagUntilTimeout+0x6a>
 8002218:	68fb      	ldr	r3, [r7, #12]
 800221a:	2200      	movs	r2, #0
 800221c:	631a      	str	r2, [r3, #48]	; 0x30
 800221e:	68fb      	ldr	r3, [r7, #12]
 8002220:	2220      	movs	r2, #32
 8002222:	f883 203d 	strb.w	r2, [r3, #61]	; 0x3d
 8002226:	68fb      	ldr	r3, [r7, #12]
 8002228:	2200      	movs	r2, #0
 800222a:	f883 203e 	strb.w	r2, [r3, #62]	; 0x3e
 800222e:	68fb      	ldr	r3, [r7, #12]
 8002230:	6c1b      	ldr	r3, [r3, #64]	; 0x40
 8002232:	f043 0220 	orr.w	r2, r3, #32
 8002236:	68fb      	ldr	r3, [r7, #12]
 8002238:	641a      	str	r2, [r3, #64]	; 0x40
 800223a:	68fb      	ldr	r3, [r7, #12]
 800223c:	2200      	movs	r2, #0
 800223e:	f883 203c 	strb.w	r2, [r3, #60]	; 0x3c
 8002242:	2301      	movs	r3, #1
 8002244:	e007      	b.n	8002256 <I2C_WaitOnTXEFlagUntilTimeout+0x7a>
 8002246:	68fb      	ldr	r3, [r7, #12]
 8002248:	681b      	ldr	r3, [r3, #0]
 800224a:	695b      	ldr	r3, [r3, #20]
 800224c:	f003 0380 	and.w	r3, r3, #128	; 0x80
 8002250:	2b80      	cmp	r3, #128	; 0x80
 8002252:	d1ca      	bne.n	80021ea <I2C_WaitOnTXEFlagUntilTimeout+0xe>
 8002254:	2300      	movs	r3, #0
 8002256:	4618      	mov	r0, r3
 8002258:	3710      	adds	r7, #16
 800225a:	46bd      	mov	sp, r7
 800225c:	bd80      	pop	{r7, pc}

0800225e <I2C_WaitOnBTFFlagUntilTimeout>:
 800225e:	b580      	push	{r7, lr}
 8002260:	b084      	sub	sp, #16
 8002262:	af00      	add	r7, sp, #0
 8002264:	60f8      	str	r0, [r7, #12]
 8002266:	60b9      	str	r1, [r7, #8]
 8002268:	607a      	str	r2, [r7, #4]
 800226a:	e02d      	b.n	80022c8 <I2C_WaitOnBTFFlagUntilTimeout+0x6a>
 800226c:	68f8      	ldr	r0, [r7, #12]
 800226e:	f000 f88d 	bl	800238c <I2C_IsAcknowledgeFailed>
 8002272:	4603      	mov	r3, r0
 8002274:	2b00      	cmp	r3, #0
 8002276:	d001      	beq.n	800227c <I2C_WaitOnBTFFlagUntilTimeout+0x1e>
 8002278:	2301      	movs	r3, #1
 800227a:	e02d      	b.n	80022d8 <I2C_WaitOnBTFFlagUntilTimeout+0x7a>
 800227c:	68bb      	ldr	r3, [r7, #8]
 800227e:	f1b3 3fff 	cmp.w	r3, #4294967295
 8002282:	d021      	beq.n	80022c8 <I2C_WaitOnBTFFlagUntilTimeout+0x6a>
 8002284:	f7fe fe68 	bl	8000f58 <HAL_GetTick>
 8002288:	4602      	mov	r2, r0
 800228a:	687b      	ldr	r3, [r7, #4]
 800228c:	1ad3      	subs	r3, r2, r3
 800228e:	68ba      	ldr	r2, [r7, #8]
 8002290:	429a      	cmp	r2, r3
 8002292:	d302      	bcc.n	800229a <I2C_WaitOnBTFFlagUntilTimeout+0x3c>
 8002294:	68bb      	ldr	r3, [r7, #8]
 8002296:	2b00      	cmp	r3, #0
 8002298:	d116      	bne.n	80022c8 <I2C_WaitOnBTFFlagUntilTimeout+0x6a>
 800229a:	68fb      	ldr	r3, [r7, #12]
 800229c:	2200      	movs	r2, #0
 800229e:	631a      	str	r2, [r3, #48]	; 0x30
 80022a0:	68fb      	ldr	r3, [r7, #12]
 80022a2:	2220      	movs	r2, #32
 80022a4:	f883 203d 	strb.w	r2, [r3, #61]	; 0x3d
 80022a8:	68fb      	ldr	r3, [r7, #12]
 80022aa:	2200      	movs	r2, #0
 80022ac:	f883 203e 	strb.w	r2, [r3, #62]	; 0x3e
 80022b0:	68fb      	ldr	r3, [r7, #12]
 80022b2:	6c1b      	ldr	r3, [r3, #64]	; 0x40
 80022b4:	f043 0220 	orr.w	r2, r3, #32
 80022b8:	68fb      	ldr	r3, [r7, #12]
 80022ba:	641a      	str	r2, [r3, #64]	; 0x40
 80022bc:	68fb      	ldr	r3, [r7, #12]
 80022be:	2200      	movs	r2, #0
 80022c0:	f883 203c 	strb.w	r2, [r3, #60]	; 0x3c
 80022c4:	2301      	movs	r3, #1
 80022c6:	e007      	b.n	80022d8 <I2C_WaitOnBTFFlagUntilTimeout+0x7a>
 80022c8:	68fb      	ldr	r3, [r7, #12]
 80022ca:	681b      	ldr	r3, [r3, #0]
 80022cc:	695b      	ldr	r3, [r3, #20]
 80022ce:	f003 0304 	and.w	r3, r3, #4
 80022d2:	2b04      	cmp	r3, #4
 80022d4:	d1ca      	bne.n	800226c <I2C_WaitOnBTFFlagUntilTimeout+0xe>
 80022d6:	2300      	movs	r3, #0
 80022d8:	4618      	mov	r0, r3
 80022da:	3710      	adds	r7, #16
 80022dc:	46bd      	mov	sp, r7
 80022de:	bd80      	pop	{r7, pc}

080022e0 <I2C_WaitOnRXNEFlagUntilTimeout>:
 80022e0:	b580      	push	{r7, lr}
 80022e2:	b084      	sub	sp, #16
 80022e4:	af00      	add	r7, sp, #0
 80022e6:	60f8      	str	r0, [r7, #12]
 80022e8:	60b9      	str	r1, [r7, #8]
 80022ea:	607a      	str	r2, [r7, #4]
 80022ec:	e042      	b.n	8002374 <I2C_WaitOnRXNEFlagUntilTimeout+0x94>
 80022ee:	68fb      	ldr	r3, [r7, #12]
 80022f0:	681b      	ldr	r3, [r3, #0]
 80022f2:	695b      	ldr	r3, [r3, #20]
 80022f4:	f003 0310 	and.w	r3, r3, #16
 80022f8:	2b10      	cmp	r3, #16
 80022fa:	d119      	bne.n	8002330 <I2C_WaitOnRXNEFlagUntilTimeout+0x50>
 80022fc:	68fb      	ldr	r3, [r7, #12]
 80022fe:	681b      	ldr	r3, [r3, #0]
 8002300:	f06f 0210 	mvn.w	r2, #16
 8002304:	615a      	str	r2, [r3, #20]
 8002306:	68fb      	ldr	r3, [r7, #12]
 8002308:	2200      	movs	r2, #0
 800230a:	631a      	str	r2, [r3, #48]	; 0x30
 800230c:	68fb      	ldr	r3, [r7, #12]
 800230e:	2220      	movs	r2, #32
 8002310:	f883 203d 	strb.w	r2, [r3, #61]	; 0x3d
 8002314:	68fb      	ldr	r3, [r7, #12]
 8002316:	2200      	movs	r2, #0
 8002318:	f883 203e 	strb.w	r2, [r3, #62]	; 0x3e
 800231c:	68fb      	ldr	r3, [r7, #12]
 800231e:	6c1a      	ldr	r2, [r3, #64]	; 0x40
 8002320:	68fb      	ldr	r3, [r7, #12]
 8002322:	641a      	str	r2, [r3, #64]	; 0x40
 8002324:	68fb      	ldr	r3, [r7, #12]
 8002326:	2200      	movs	r2, #0
 8002328:	f883 203c 	strb.w	r2, [r3, #60]	; 0x3c
 800232c:	2301      	movs	r3, #1
 800232e:	e029      	b.n	8002384 <I2C_WaitOnRXNEFlagUntilTimeout+0xa4>
 8002330:	f7fe fe12 	bl	8000f58 <HAL_GetTick>
 8002334:	4602      	mov	r2, r0
 8002336:	687b      	ldr	r3, [r7, #4]
 8002338:	1ad3      	subs	r3, r2, r3
 800233a:	68ba      	ldr	r2, [r7, #8]
 800233c:	429a      	cmp	r2, r3
 800233e:	d302      	bcc.n	8002346 <I2C_WaitOnRXNEFlagUntilTimeout+0x66>
 8002340:	68bb      	ldr	r3, [r7, #8]
 8002342:	2b00      	cmp	r3, #0
 8002344:	d116      	bne.n	8002374 <I2C_WaitOnRXNEFlagUntilTimeout+0x94>
 8002346:	68fb      	ldr	r3, [r7, #12]
 8002348:	2200      	movs	r2, #0
 800234a:	631a      	str	r2, [r3, #48]	; 0x30
 800234c:	68fb      	ldr	r3, [r7, #12]
 800234e:	2220      	movs	r2, #32
 8002350:	f883 203d 	strb.w	r2, [r3, #61]	; 0x3d
 8002354:	68fb      	ldr	r3, [r7, #12]
 8002356:	2200      	movs	r2, #0
 8002358:	f883 203e 	strb.w	r2, [r3, #62]	; 0x3e
 800235c:	68fb      	ldr	r3, [r7, #12]
 800235e:	6c1b      	ldr	r3, [r3, #64]	; 0x40
 8002360:	f043 0220 	orr.w	r2, r3, #32
 8002364:	68fb      	ldr	r3, [r7, #12]
 8002366:	641a      	str	r2, [r3, #64]	; 0x40
 8002368:	68fb      	ldr	r3, [r7, #12]
 800236a:	2200      	movs	r2, #0
 800236c:	f883 203c 	strb.w	r2, [r3, #60]	; 0x3c
 8002370:	2301      	movs	r3, #1
 8002372:	e007      	b.n	8002384 <I2C_WaitOnRXNEFlagUntilTimeout+0xa4>
 8002374:	68fb      	ldr	r3, [r7, #12]
 8002376:	681b      	ldr	r3, [r3, #0]
 8002378:	695b      	ldr	r3, [r3, #20]
 800237a:	f003 0340 	and.w	r3, r3, #64	; 0x40
 800237e:	2b40      	cmp	r3, #64	; 0x40
 8002380:	d1b5      	bne.n	80022ee <I2C_WaitOnRXNEFlagUntilTimeout+0xe>
 8002382:	2300      	movs	r3, #0
 8002384:	4618      	mov	r0, r3
 8002386:	3710      	adds	r7, #16
 8002388:	46bd      	mov	sp, r7
 800238a:	bd80      	pop	{r7, pc}

0800238c <I2C_IsAcknowledgeFailed>:
 800238c:	b480      	push	{r7}
 800238e:	b083      	sub	sp, #12
 8002390:	af00      	add	r7, sp, #0
 8002392:	6078      	str	r0, [r7, #4]
 8002394:	687b      	ldr	r3, [r7, #4]
 8002396:	681b      	ldr	r3, [r3, #0]
 8002398:	695b      	ldr	r3, [r3, #20]
 800239a:	f403 6380 	and.w	r3, r3, #1024	; 0x400
 800239e:	f5b3 6f80 	cmp.w	r3, #1024	; 0x400
 80023a2:	d11b      	bne.n	80023dc <I2C_IsAcknowledgeFailed+0x50>
 80023a4:	687b      	ldr	r3, [r7, #4]
 80023a6:	681b      	ldr	r3, [r3, #0]
 80023a8:	f46f 6280 	mvn.w	r2, #1024	; 0x400
 80023ac:	615a      	str	r2, [r3, #20]
 80023ae:	687b      	ldr	r3, [r7, #4]
 80023b0:	2200      	movs	r2, #0
 80023b2:	631a      	str	r2, [r3, #48]	; 0x30
 80023b4:	687b      	ldr	r3, [r7, #4]
 80023b6:	2220      	movs	r2, #32
 80023b8:	f883 203d 	strb.w	r2, [r3, #61]	; 0x3d
 80023bc:	687b      	ldr	r3, [r7, #4]
 80023be:	2200      	movs	r2, #0
 80023c0:	f883 203e 	strb.w	r2, [r3, #62]	; 0x3e
 80023c4:	687b      	ldr	r3, [r7, #4]
 80023c6:	6c1b      	ldr	r3, [r3, #64]	; 0x40
 80023c8:	f043 0204 	orr.w	r2, r3, #4
 80023cc:	687b      	ldr	r3, [r7, #4]
 80023ce:	641a      	str	r2, [r3, #64]	; 0x40
 80023d0:	687b      	ldr	r3, [r7, #4]
 80023d2:	2200      	movs	r2, #0
 80023d4:	f883 203c 	strb.w	r2, [r3, #60]	; 0x3c
 80023d8:	2301      	movs	r3, #1
 80023da:	e000      	b.n	80023de <I2C_IsAcknowledgeFailed+0x52>
 80023dc:	2300      	movs	r3, #0
 80023de:	4618      	mov	r0, r3
 80023e0:	370c      	adds	r7, #12
 80023e2:	46bd      	mov	sp, r7
 80023e4:	f85d 7b04 	ldr.w	r7, [sp], #4
 80023e8:	4770      	bx	lr
	...

080023ec <HAL_RCC_ClockConfig>:
 80023ec:	b580      	push	{r7, lr}
 80023ee:	b084      	sub	sp, #16
 80023f0:	af00      	add	r7, sp, #0
 80023f2:	6078      	str	r0, [r7, #4]
 80023f4:	6039      	str	r1, [r7, #0]
 80023f6:	687b      	ldr	r3, [r7, #4]
 80023f8:	2b00      	cmp	r3, #0
 80023fa:	d101      	bne.n	8002400 <HAL_RCC_ClockConfig+0x14>
 80023fc:	2301      	movs	r3, #1
 80023fe:	e0cc      	b.n	800259a <HAL_RCC_ClockConfig+0x1ae>
 8002400:	4b68      	ldr	r3, [pc, #416]	; (80025a4 <HAL_RCC_ClockConfig+0x1b8>)
 8002402:	681b      	ldr	r3, [r3, #0]
 8002404:	f003 030f 	and.w	r3, r3, #15
 8002408:	683a      	ldr	r2, [r7, #0]
 800240a:	429a      	cmp	r2, r3
 800240c:	d90c      	bls.n	8002428 <HAL_RCC_ClockConfig+0x3c>
 800240e:	4b65      	ldr	r3, [pc, #404]	; (80025a4 <HAL_RCC_ClockConfig+0x1b8>)
 8002410:	683a      	ldr	r2, [r7, #0]
 8002412:	b2d2      	uxtb	r2, r2
 8002414:	701a      	strb	r2, [r3, #0]
 8002416:	4b63      	ldr	r3, [pc, #396]	; (80025a4 <HAL_RCC_ClockConfig+0x1b8>)
 8002418:	681b      	ldr	r3, [r3, #0]
 800241a:	f003 030f 	and.w	r3, r3, #15
 800241e:	683a      	ldr	r2, [r7, #0]
 8002420:	429a      	cmp	r2, r3
 8002422:	d001      	beq.n	8002428 <HAL_RCC_ClockConfig+0x3c>
 8002424:	2301      	movs	r3, #1
 8002426:	e0b8      	b.n	800259a <HAL_RCC_ClockConfig+0x1ae>
 8002428:	687b      	ldr	r3, [r7, #4]
 800242a:	681b      	ldr	r3, [r3, #0]
 800242c:	f003 0302 	and.w	r3, r3, #2
 8002430:	2b00      	cmp	r3, #0
 8002432:	d020      	beq.n	8002476 <HAL_RCC_ClockConfig+0x8a>
 8002434:	687b      	ldr	r3, [r7, #4]
 8002436:	681b      	ldr	r3, [r3, #0]
 8002438:	f003 0304 	and.w	r3, r3, #4
 800243c:	2b00      	cmp	r3, #0
 800243e:	d005      	beq.n	800244c <HAL_RCC_ClockConfig+0x60>
 8002440:	4b59      	ldr	r3, [pc, #356]	; (80025a8 <HAL_RCC_ClockConfig+0x1bc>)
 8002442:	689b      	ldr	r3, [r3, #8]
 8002444:	4a58      	ldr	r2, [pc, #352]	; (80025a8 <HAL_RCC_ClockConfig+0x1bc>)
 8002446:	f443 53e0 	orr.w	r3, r3, #7168	; 0x1c00
 800244a:	6093      	str	r3, [r2, #8]
 800244c:	687b      	ldr	r3, [r7, #4]
 800244e:	681b      	ldr	r3, [r3, #0]
 8002450:	f003 0308 	and.w	r3, r3, #8
 8002454:	2b00      	cmp	r3, #0
 8002456:	d005      	beq.n	8002464 <HAL_RCC_ClockConfig+0x78>
 8002458:	4b53      	ldr	r3, [pc, #332]	; (80025a8 <HAL_RCC_ClockConfig+0x1bc>)
 800245a:	689b      	ldr	r3, [r3, #8]
 800245c:	4a52      	ldr	r2, [pc, #328]	; (80025a8 <HAL_RCC_ClockConfig+0x1bc>)
 800245e:	f443 4360 	orr.w	r3, r3, #57344	; 0xe000
 8002462:	6093      	str	r3, [r2, #8]
 8002464:	4b50      	ldr	r3, [pc, #320]	; (80025a8 <HAL_RCC_ClockConfig+0x1bc>)
 8002466:	689b      	ldr	r3, [r3, #8]
 8002468:	f023 02f0 	bic.w	r2, r3, #240	; 0xf0
 800246c:	687b      	ldr	r3, [r7, #4]
 800246e:	689b      	ldr	r3, [r3, #8]
 8002470:	494d      	ldr	r1, [pc, #308]	; (80025a8 <HAL_RCC_ClockConfig+0x1bc>)
 8002472:	4313      	orrs	r3, r2
 8002474:	608b      	str	r3, [r1, #8]
 8002476:	687b      	ldr	r3, [r7, #4]
 8002478:	681b      	ldr	r3, [r3, #0]
 800247a:	f003 0301 	and.w	r3, r3, #1
 800247e:	2b00      	cmp	r3, #0
 8002480:	d044      	beq.n	800250c <HAL_RCC_ClockConfig+0x120>
 8002482:	687b      	ldr	r3, [r7, #4]
 8002484:	685b      	ldr	r3, [r3, #4]
 8002486:	2b01      	cmp	r3, #1
 8002488:	d107      	bne.n	800249a <HAL_RCC_ClockConfig+0xae>
 800248a:	4b47      	ldr	r3, [pc, #284]	; (80025a8 <HAL_RCC_ClockConfig+0x1bc>)
 800248c:	681b      	ldr	r3, [r3, #0]
 800248e:	f403 3300 	and.w	r3, r3, #131072	; 0x20000
 8002492:	2b00      	cmp	r3, #0
 8002494:	d119      	bne.n	80024ca <HAL_RCC_ClockConfig+0xde>
 8002496:	2301      	movs	r3, #1
 8002498:	e07f      	b.n	800259a <HAL_RCC_ClockConfig+0x1ae>
 800249a:	687b      	ldr	r3, [r7, #4]
 800249c:	685b      	ldr	r3, [r3, #4]
 800249e:	2b02      	cmp	r3, #2
 80024a0:	d003      	beq.n	80024aa <HAL_RCC_ClockConfig+0xbe>
 80024a2:	687b      	ldr	r3, [r7, #4]
 80024a4:	685b      	ldr	r3, [r3, #4]
 80024a6:	2b03      	cmp	r3, #3
 80024a8:	d107      	bne.n	80024ba <HAL_RCC_ClockConfig+0xce>
 80024aa:	4b3f      	ldr	r3, [pc, #252]	; (80025a8 <HAL_RCC_ClockConfig+0x1bc>)
 80024ac:	681b      	ldr	r3, [r3, #0]
 80024ae:	f003 7300 	and.w	r3, r3, #33554432	; 0x2000000
 80024b2:	2b00      	cmp	r3, #0
 80024b4:	d109      	bne.n	80024ca <HAL_RCC_ClockConfig+0xde>
 80024b6:	2301      	movs	r3, #1
 80024b8:	e06f      	b.n	800259a <HAL_RCC_ClockConfig+0x1ae>
 80024ba:	4b3b      	ldr	r3, [pc, #236]	; (80025a8 <HAL_RCC_ClockConfig+0x1bc>)
 80024bc:	681b      	ldr	r3, [r3, #0]
 80024be:	f003 0302 	and.w	r3, r3, #2
 80024c2:	2b00      	cmp	r3, #0
 80024c4:	d101      	bne.n	80024ca <HAL_RCC_ClockConfig+0xde>
 80024c6:	2301      	movs	r3, #1
 80024c8:	e067      	b.n	800259a <HAL_RCC_ClockConfig+0x1ae>
 80024ca:	4b37      	ldr	r3, [pc, #220]	; (80025a8 <HAL_RCC_ClockConfig+0x1bc>)
 80024cc:	689b      	ldr	r3, [r3, #8]
 80024ce:	f023 0203 	bic.w	r2, r3, #3
 80024d2:	687b      	ldr	r3, [r7, #4]
 80024d4:	685b      	ldr	r3, [r3, #4]
 80024d6:	4934      	ldr	r1, [pc, #208]	; (80025a8 <HAL_RCC_ClockConfig+0x1bc>)
 80024d8:	4313      	orrs	r3, r2
 80024da:	608b      	str	r3, [r1, #8]
 80024dc:	f7fe fd3c 	bl	8000f58 <HAL_GetTick>
 80024e0:	60f8      	str	r0, [r7, #12]
 80024e2:	e00a      	b.n	80024fa <HAL_RCC_ClockConfig+0x10e>
 80024e4:	f7fe fd38 	bl	8000f58 <HAL_GetTick>
 80024e8:	4602      	mov	r2, r0
 80024ea:	68fb      	ldr	r3, [r7, #12]
 80024ec:	1ad3      	subs	r3, r2, r3
 80024ee:	f241 3288 	movw	r2, #5000	; 0x1388
 80024f2:	4293      	cmp	r3, r2
 80024f4:	d901      	bls.n	80024fa <HAL_RCC_ClockConfig+0x10e>
 80024f6:	2303      	movs	r3, #3
 80024f8:	e04f      	b.n	800259a <HAL_RCC_ClockConfig+0x1ae>
 80024fa:	4b2b      	ldr	r3, [pc, #172]	; (80025a8 <HAL_RCC_ClockConfig+0x1bc>)
 80024fc:	689b      	ldr	r3, [r3, #8]
 80024fe:	f003 020c 	and.w	r2, r3, #12
 8002502:	687b      	ldr	r3, [r7, #4]
 8002504:	685b      	ldr	r3, [r3, #4]
 8002506:	009b      	lsls	r3, r3, #2
 8002508:	429a      	cmp	r2, r3
 800250a:	d1eb      	bne.n	80024e4 <HAL_RCC_ClockConfig+0xf8>
 800250c:	4b25      	ldr	r3, [pc, #148]	; (80025a4 <HAL_RCC_ClockConfig+0x1b8>)
 800250e:	681b      	ldr	r3, [r3, #0]
 8002510:	f003 030f 	and.w	r3, r3, #15
 8002514:	683a      	ldr	r2, [r7, #0]
 8002516:	429a      	cmp	r2, r3
 8002518:	d20c      	bcs.n	8002534 <HAL_RCC_ClockConfig+0x148>
 800251a:	4b22      	ldr	r3, [pc, #136]	; (80025a4 <HAL_RCC_ClockConfig+0x1b8>)
 800251c:	683a      	ldr	r2, [r7, #0]
 800251e:	b2d2      	uxtb	r2, r2
 8002520:	701a      	strb	r2, [r3, #0]
 8002522:	4b20      	ldr	r3, [pc, #128]	; (80025a4 <HAL_RCC_ClockConfig+0x1b8>)
 8002524:	681b      	ldr	r3, [r3, #0]
 8002526:	f003 030f 	and.w	r3, r3, #15
 800252a:	683a      	ldr	r2, [r7, #0]
 800252c:	429a      	cmp	r2, r3
 800252e:	d001      	beq.n	8002534 <HAL_RCC_ClockConfig+0x148>
 8002530:	2301      	movs	r3, #1
 8002532:	e032      	b.n	800259a <HAL_RCC_ClockConfig+0x1ae>
 8002534:	687b      	ldr	r3, [r7, #4]
 8002536:	681b      	ldr	r3, [r3, #0]
 8002538:	f003 0304 	and.w	r3, r3, #4
 800253c:	2b00      	cmp	r3, #0
 800253e:	d008      	beq.n	8002552 <HAL_RCC_ClockConfig+0x166>
 8002540:	4b19      	ldr	r3, [pc, #100]	; (80025a8 <HAL_RCC_ClockConfig+0x1bc>)
 8002542:	689b      	ldr	r3, [r3, #8]
 8002544:	f423 52e0 	bic.w	r2, r3, #7168	; 0x1c00
 8002548:	687b      	ldr	r3, [r7, #4]
 800254a:	68db      	ldr	r3, [r3, #12]
 800254c:	4916      	ldr	r1, [pc, #88]	; (80025a8 <HAL_RCC_ClockConfig+0x1bc>)
 800254e:	4313      	orrs	r3, r2
 8002550:	608b      	str	r3, [r1, #8]
 8002552:	687b      	ldr	r3, [r7, #4]
 8002554:	681b      	ldr	r3, [r3, #0]
 8002556:	f003 0308 	and.w	r3, r3, #8
 800255a:	2b00      	cmp	r3, #0
 800255c:	d009      	beq.n	8002572 <HAL_RCC_ClockConfig+0x186>
 800255e:	4b12      	ldr	r3, [pc, #72]	; (80025a8 <HAL_RCC_ClockConfig+0x1bc>)
 8002560:	689b      	ldr	r3, [r3, #8]
 8002562:	f423 4260 	bic.w	r2, r3, #57344	; 0xe000
 8002566:	687b      	ldr	r3, [r7, #4]
 8002568:	691b      	ldr	r3, [r3, #16]
 800256a:	00db      	lsls	r3, r3, #3
 800256c:	490e      	ldr	r1, [pc, #56]	; (80025a8 <HAL_RCC_ClockConfig+0x1bc>)
 800256e:	4313      	orrs	r3, r2
 8002570:	608b      	str	r3, [r1, #8]
 8002572:	f000 f855 	bl	8002620 <HAL_RCC_GetSysClockFreq>
 8002576:	4601      	mov	r1, r0
 8002578:	4b0b      	ldr	r3, [pc, #44]	; (80025a8 <HAL_RCC_ClockConfig+0x1bc>)
 800257a:	689b      	ldr	r3, [r3, #8]
 800257c:	091b      	lsrs	r3, r3, #4
 800257e:	f003 030f 	and.w	r3, r3, #15
 8002582:	4a0a      	ldr	r2, [pc, #40]	; (80025ac <HAL_RCC_ClockConfig+0x1c0>)
 8002584:	5cd3      	ldrb	r3, [r2, r3]
 8002586:	fa21 f303 	lsr.w	r3, r1, r3
 800258a:	4a09      	ldr	r2, [pc, #36]	; (80025b0 <HAL_RCC_ClockConfig+0x1c4>)
 800258c:	6013      	str	r3, [r2, #0]
 800258e:	4b09      	ldr	r3, [pc, #36]	; (80025b4 <HAL_RCC_ClockConfig+0x1c8>)
 8002590:	681b      	ldr	r3, [r3, #0]
 8002592:	4618      	mov	r0, r3
 8002594:	f7fe fc9c 	bl	8000ed0 <HAL_InitTick>
 8002598:	2300      	movs	r3, #0
 800259a:	4618      	mov	r0, r3
 800259c:	3710      	adds	r7, #16
 800259e:	46bd      	mov	sp, r7
 80025a0:	bd80      	pop	{r7, pc}
 80025a2:	bf00      	nop
 80025a4:	40023c00 	.word	0x40023c00
 80025a8:	40023800 	.word	0x40023800
 80025ac:	08009ca8 	.word	0x08009ca8
 80025b0:	20000000 	.word	0x20000000
 80025b4:	20000004 	.word	0x20000004

080025b8 <HAL_RCC_GetHCLKFreq>:
 80025b8:	b480      	push	{r7}
 80025ba:	af00      	add	r7, sp, #0
 80025bc:	4b03      	ldr	r3, [pc, #12]	; (80025cc <HAL_RCC_GetHCLKFreq+0x14>)
 80025be:	681b      	ldr	r3, [r3, #0]
 80025c0:	4618      	mov	r0, r3
 80025c2:	46bd      	mov	sp, r7
 80025c4:	f85d 7b04 	ldr.w	r7, [sp], #4
 80025c8:	4770      	bx	lr
 80025ca:	bf00      	nop
 80025cc:	20000000 	.word	0x20000000

080025d0 <HAL_RCC_GetPCLK1Freq>:
 80025d0:	b580      	push	{r7, lr}
 80025d2:	af00      	add	r7, sp, #0
 80025d4:	f7ff fff0 	bl	80025b8 <HAL_RCC_GetHCLKFreq>
 80025d8:	4601      	mov	r1, r0
 80025da:	4b05      	ldr	r3, [pc, #20]	; (80025f0 <HAL_RCC_GetPCLK1Freq+0x20>)
 80025dc:	689b      	ldr	r3, [r3, #8]
 80025de:	0a9b      	lsrs	r3, r3, #10
 80025e0:	f003 0307 	and.w	r3, r3, #7
 80025e4:	4a03      	ldr	r2, [pc, #12]	; (80025f4 <HAL_RCC_GetPCLK1Freq+0x24>)
 80025e6:	5cd3      	ldrb	r3, [r2, r3]
 80025e8:	fa21 f303 	lsr.w	r3, r1, r3
 80025ec:	4618      	mov	r0, r3
 80025ee:	bd80      	pop	{r7, pc}
 80025f0:	40023800 	.word	0x40023800
 80025f4:	08009cb8 	.word	0x08009cb8

080025f8 <HAL_RCC_GetPCLK2Freq>:
 80025f8:	b580      	push	{r7, lr}
 80025fa:	af00      	add	r7, sp, #0
 80025fc:	f7ff ffdc 	bl	80025b8 <HAL_RCC_GetHCLKFreq>
 8002600:	4601      	mov	r1, r0
 8002602:	4b05      	ldr	r3, [pc, #20]	; (8002618 <HAL_RCC_GetPCLK2Freq+0x20>)
 8002604:	689b      	ldr	r3, [r3, #8]
 8002606:	0b5b      	lsrs	r3, r3, #13
 8002608:	f003 0307 	and.w	r3, r3, #7
 800260c:	4a03      	ldr	r2, [pc, #12]	; (800261c <HAL_RCC_GetPCLK2Freq+0x24>)
 800260e:	5cd3      	ldrb	r3, [r2, r3]
 8002610:	fa21 f303 	lsr.w	r3, r1, r3
 8002614:	4618      	mov	r0, r3
 8002616:	bd80      	pop	{r7, pc}
 8002618:	40023800 	.word	0x40023800
 800261c:	08009cb8 	.word	0x08009cb8

08002620 <HAL_RCC_GetSysClockFreq>:
 8002620:	b5f0      	push	{r4, r5, r6, r7, lr}
 8002622:	b087      	sub	sp, #28
 8002624:	af00      	add	r7, sp, #0
 8002626:	2300      	movs	r3, #0
 8002628:	60fb      	str	r3, [r7, #12]
 800262a:	2300      	movs	r3, #0
 800262c:	617b      	str	r3, [r7, #20]
 800262e:	2300      	movs	r3, #0
 8002630:	60bb      	str	r3, [r7, #8]
 8002632:	2300      	movs	r3, #0
 8002634:	607b      	str	r3, [r7, #4]
 8002636:	2300      	movs	r3, #0
 8002638:	613b      	str	r3, [r7, #16]
 800263a:	4bc6      	ldr	r3, [pc, #792]	; (8002954 <HAL_RCC_GetSysClockFreq+0x334>)
 800263c:	689b      	ldr	r3, [r3, #8]
 800263e:	f003 030c 	and.w	r3, r3, #12
 8002642:	2b0c      	cmp	r3, #12
 8002644:	f200 817e 	bhi.w	8002944 <HAL_RCC_GetSysClockFreq+0x324>
 8002648:	a201      	add	r2, pc, #4	; (adr r2, 8002650 <HAL_RCC_GetSysClockFreq+0x30>)
 800264a:	f852 f023 	ldr.w	pc, [r2, r3, lsl #2]
 800264e:	bf00      	nop
 8002650:	08002685 	.word	0x08002685
 8002654:	08002945 	.word	0x08002945
 8002658:	08002945 	.word	0x08002945
 800265c:	08002945 	.word	0x08002945
 8002660:	0800268b 	.word	0x0800268b
 8002664:	08002945 	.word	0x08002945
 8002668:	08002945 	.word	0x08002945
 800266c:	08002945 	.word	0x08002945
 8002670:	08002691 	.word	0x08002691
 8002674:	08002945 	.word	0x08002945
 8002678:	08002945 	.word	0x08002945
 800267c:	08002945 	.word	0x08002945
 8002680:	080027ed 	.word	0x080027ed
 8002684:	4bb4      	ldr	r3, [pc, #720]	; (8002958 <HAL_RCC_GetSysClockFreq+0x338>)
 8002686:	613b      	str	r3, [r7, #16]
 8002688:	e15f      	b.n	800294a <HAL_RCC_GetSysClockFreq+0x32a>
 800268a:	4bb4      	ldr	r3, [pc, #720]	; (800295c <HAL_RCC_GetSysClockFreq+0x33c>)
 800268c:	613b      	str	r3, [r7, #16]
 800268e:	e15c      	b.n	800294a <HAL_RCC_GetSysClockFreq+0x32a>
 8002690:	4bb0      	ldr	r3, [pc, #704]	; (8002954 <HAL_RCC_GetSysClockFreq+0x334>)
 8002692:	685b      	ldr	r3, [r3, #4]
 8002694:	f003 033f 	and.w	r3, r3, #63	; 0x3f
 8002698:	60fb      	str	r3, [r7, #12]
 800269a:	4bae      	ldr	r3, [pc, #696]	; (8002954 <HAL_RCC_GetSysClockFreq+0x334>)
 800269c:	685b      	ldr	r3, [r3, #4]
 800269e:	f403 0380 	and.w	r3, r3, #4194304	; 0x400000
 80026a2:	2b00      	cmp	r3, #0
 80026a4:	d04a      	beq.n	800273c <HAL_RCC_GetSysClockFreq+0x11c>
 80026a6:	4bab      	ldr	r3, [pc, #684]	; (8002954 <HAL_RCC_GetSysClockFreq+0x334>)
 80026a8:	685b      	ldr	r3, [r3, #4]
 80026aa:	099b      	lsrs	r3, r3, #6
 80026ac:	f04f 0400 	mov.w	r4, #0
 80026b0:	f240 11ff 	movw	r1, #511	; 0x1ff
 80026b4:	f04f 0200 	mov.w	r2, #0
 80026b8:	ea03 0501 	and.w	r5, r3, r1
 80026bc:	ea04 0602 	and.w	r6, r4, r2
 80026c0:	4629      	mov	r1, r5
 80026c2:	4632      	mov	r2, r6
 80026c4:	f04f 0300 	mov.w	r3, #0
 80026c8:	f04f 0400 	mov.w	r4, #0
 80026cc:	0154      	lsls	r4, r2, #5
 80026ce:	ea44 64d1 	orr.w	r4, r4, r1, lsr #27
 80026d2:	014b      	lsls	r3, r1, #5
 80026d4:	4619      	mov	r1, r3
 80026d6:	4622      	mov	r2, r4
 80026d8:	1b49      	subs	r1, r1, r5
 80026da:	eb62 0206 	sbc.w	r2, r2, r6
 80026de:	f04f 0300 	mov.w	r3, #0
 80026e2:	f04f 0400 	mov.w	r4, #0
 80026e6:	0194      	lsls	r4, r2, #6
 80026e8:	ea44 6491 	orr.w	r4, r4, r1, lsr #26
 80026ec:	018b      	lsls	r3, r1, #6
 80026ee:	1a5b      	subs	r3, r3, r1
 80026f0:	eb64 0402 	sbc.w	r4, r4, r2
 80026f4:	f04f 0100 	mov.w	r1, #0
 80026f8:	f04f 0200 	mov.w	r2, #0
 80026fc:	00e2      	lsls	r2, r4, #3
 80026fe:	ea42 7253 	orr.w	r2, r2, r3, lsr #29
 8002702:	00d9      	lsls	r1, r3, #3
 8002704:	460b      	mov	r3, r1
 8002706:	4614      	mov	r4, r2
 8002708:	195b      	adds	r3, r3, r5
 800270a:	eb44 0406 	adc.w	r4, r4, r6
 800270e:	f04f 0100 	mov.w	r1, #0
 8002712:	f04f 0200 	mov.w	r2, #0
 8002716:	0262      	lsls	r2, r4, #9
 8002718:	ea42 52d3 	orr.w	r2, r2, r3, lsr #23
 800271c:	0259      	lsls	r1, r3, #9
 800271e:	460b      	mov	r3, r1
 8002720:	4614      	mov	r4, r2
 8002722:	4618      	mov	r0, r3
 8002724:	4621      	mov	r1, r4
 8002726:	68fb      	ldr	r3, [r7, #12]
 8002728:	f04f 0400 	mov.w	r4, #0
 800272c:	461a      	mov	r2, r3
 800272e:	4623      	mov	r3, r4
 8002730:	f7fd fdbe 	bl	80002b0 <__aeabi_uldivmod>
 8002734:	4603      	mov	r3, r0
 8002736:	460c      	mov	r4, r1
 8002738:	617b      	str	r3, [r7, #20]
 800273a:	e049      	b.n	80027d0 <HAL_RCC_GetSysClockFreq+0x1b0>
 800273c:	4b85      	ldr	r3, [pc, #532]	; (8002954 <HAL_RCC_GetSysClockFreq+0x334>)
 800273e:	685b      	ldr	r3, [r3, #4]
 8002740:	099b      	lsrs	r3, r3, #6
 8002742:	f04f 0400 	mov.w	r4, #0
 8002746:	f240 11ff 	movw	r1, #511	; 0x1ff
 800274a:	f04f 0200 	mov.w	r2, #0
 800274e:	ea03 0501 	and.w	r5, r3, r1
 8002752:	ea04 0602 	and.w	r6, r4, r2
 8002756:	4629      	mov	r1, r5
 8002758:	4632      	mov	r2, r6
 800275a:	f04f 0300 	mov.w	r3, #0
 800275e:	f04f 0400 	mov.w	r4, #0
 8002762:	0154      	lsls	r4, r2, #5
 8002764:	ea44 64d1 	orr.w	r4, r4, r1, lsr #27
 8002768:	014b      	lsls	r3, r1, #5
 800276a:	4619      	mov	r1, r3
 800276c:	4622      	mov	r2, r4
 800276e:	1b49      	subs	r1, r1, r5
 8002770:	eb62 0206 	sbc.w	r2, r2, r6
 8002774:	f04f 0300 	mov.w	r3, #0
 8002778:	f04f 0400 	mov.w	r4, #0
 800277c:	0194      	lsls	r4, r2, #6
 800277e:	ea44 6491 	orr.w	r4, r4, r1, lsr #26
 8002782:	018b      	lsls	r3, r1, #6
 8002784:	1a5b      	subs	r3, r3, r1
 8002786:	eb64 0402 	sbc.w	r4, r4, r2
 800278a:	f04f 0100 	mov.w	r1, #0
 800278e:	f04f 0200 	mov.w	r2, #0
 8002792:	00e2      	lsls	r2, r4, #3
 8002794:	ea42 7253 	orr.w	r2, r2, r3, lsr #29
 8002798:	00d9      	lsls	r1, r3, #3
 800279a:	460b      	mov	r3, r1
 800279c:	4614      	mov	r4, r2
 800279e:	195b      	adds	r3, r3, r5
 80027a0:	eb44 0406 	adc.w	r4, r4, r6
 80027a4:	f04f 0100 	mov.w	r1, #0
 80027a8:	f04f 0200 	mov.w	r2, #0
 80027ac:	02a2      	lsls	r2, r4, #10
 80027ae:	ea42 5293 	orr.w	r2, r2, r3, lsr #22
 80027b2:	0299      	lsls	r1, r3, #10
 80027b4:	460b      	mov	r3, r1
 80027b6:	4614      	mov	r4, r2
 80027b8:	4618      	mov	r0, r3
 80027ba:	4621      	mov	r1, r4
 80027bc:	68fb      	ldr	r3, [r7, #12]
 80027be:	f04f 0400 	mov.w	r4, #0
 80027c2:	461a      	mov	r2, r3
 80027c4:	4623      	mov	r3, r4
 80027c6:	f7fd fd73 	bl	80002b0 <__aeabi_uldivmod>
 80027ca:	4603      	mov	r3, r0
 80027cc:	460c      	mov	r4, r1
 80027ce:	617b      	str	r3, [r7, #20]
 80027d0:	4b60      	ldr	r3, [pc, #384]	; (8002954 <HAL_RCC_GetSysClockFreq+0x334>)
 80027d2:	685b      	ldr	r3, [r3, #4]
 80027d4:	0c1b      	lsrs	r3, r3, #16
 80027d6:	f003 0303 	and.w	r3, r3, #3
 80027da:	3301      	adds	r3, #1
 80027dc:	005b      	lsls	r3, r3, #1
 80027de:	60bb      	str	r3, [r7, #8]
 80027e0:	697a      	ldr	r2, [r7, #20]
 80027e2:	68bb      	ldr	r3, [r7, #8]
 80027e4:	fbb2 f3f3 	udiv	r3, r2, r3
 80027e8:	613b      	str	r3, [r7, #16]
 80027ea:	e0ae      	b.n	800294a <HAL_RCC_GetSysClockFreq+0x32a>
 80027ec:	4b59      	ldr	r3, [pc, #356]	; (8002954 <HAL_RCC_GetSysClockFreq+0x334>)
 80027ee:	685b      	ldr	r3, [r3, #4]
 80027f0:	f003 033f 	and.w	r3, r3, #63	; 0x3f
 80027f4:	60fb      	str	r3, [r7, #12]
 80027f6:	4b57      	ldr	r3, [pc, #348]	; (8002954 <HAL_RCC_GetSysClockFreq+0x334>)
 80027f8:	685b      	ldr	r3, [r3, #4]
 80027fa:	f403 0380 	and.w	r3, r3, #4194304	; 0x400000
 80027fe:	2b00      	cmp	r3, #0
 8002800:	d04a      	beq.n	8002898 <HAL_RCC_GetSysClockFreq+0x278>
 8002802:	4b54      	ldr	r3, [pc, #336]	; (8002954 <HAL_RCC_GetSysClockFreq+0x334>)
 8002804:	685b      	ldr	r3, [r3, #4]
 8002806:	099b      	lsrs	r3, r3, #6
 8002808:	f04f 0400 	mov.w	r4, #0
 800280c:	f240 11ff 	movw	r1, #511	; 0x1ff
 8002810:	f04f 0200 	mov.w	r2, #0
 8002814:	ea03 0501 	and.w	r5, r3, r1
 8002818:	ea04 0602 	and.w	r6, r4, r2
 800281c:	4629      	mov	r1, r5
 800281e:	4632      	mov	r2, r6
 8002820:	f04f 0300 	mov.w	r3, #0
 8002824:	f04f 0400 	mov.w	r4, #0
 8002828:	0154      	lsls	r4, r2, #5
 800282a:	ea44 64d1 	orr.w	r4, r4, r1, lsr #27
 800282e:	014b      	lsls	r3, r1, #5
 8002830:	4619      	mov	r1, r3
 8002832:	4622      	mov	r2, r4
 8002834:	1b49      	subs	r1, r1, r5
 8002836:	eb62 0206 	sbc.w	r2, r2, r6
 800283a:	f04f 0300 	mov.w	r3, #0
 800283e:	f04f 0400 	mov.w	r4, #0
 8002842:	0194      	lsls	r4, r2, #6
 8002844:	ea44 6491 	orr.w	r4, r4, r1, lsr #26
 8002848:	018b      	lsls	r3, r1, #6
 800284a:	1a5b      	subs	r3, r3, r1
 800284c:	eb64 0402 	sbc.w	r4, r4, r2
 8002850:	f04f 0100 	mov.w	r1, #0
 8002854:	f04f 0200 	mov.w	r2, #0
 8002858:	00e2      	lsls	r2, r4, #3
 800285a:	ea42 7253 	orr.w	r2, r2, r3, lsr #29
 800285e:	00d9      	lsls	r1, r3, #3
 8002860:	460b      	mov	r3, r1
 8002862:	4614      	mov	r4, r2
 8002864:	195b      	adds	r3, r3, r5
 8002866:	eb44 0406 	adc.w	r4, r4, r6
 800286a:	f04f 0100 	mov.w	r1, #0
 800286e:	f04f 0200 	mov.w	r2, #0
 8002872:	0262      	lsls	r2, r4, #9
 8002874:	ea42 52d3 	orr.w	r2, r2, r3, lsr #23
 8002878:	0259      	lsls	r1, r3, #9
 800287a:	460b      	mov	r3, r1
 800287c:	4614      	mov	r4, r2
 800287e:	4618      	mov	r0, r3
 8002880:	4621      	mov	r1, r4
 8002882:	68fb      	ldr	r3, [r7, #12]
 8002884:	f04f 0400 	mov.w	r4, #0
 8002888:	461a      	mov	r2, r3
 800288a:	4623      	mov	r3, r4
 800288c:	f7fd fd10 	bl	80002b0 <__aeabi_uldivmod>
 8002890:	4603      	mov	r3, r0
 8002892:	460c      	mov	r4, r1
 8002894:	617b      	str	r3, [r7, #20]
 8002896:	e049      	b.n	800292c <HAL_RCC_GetSysClockFreq+0x30c>
 8002898:	4b2e      	ldr	r3, [pc, #184]	; (8002954 <HAL_RCC_GetSysClockFreq+0x334>)
 800289a:	685b      	ldr	r3, [r3, #4]
 800289c:	099b      	lsrs	r3, r3, #6
 800289e:	f04f 0400 	mov.w	r4, #0
 80028a2:	f240 11ff 	movw	r1, #511	; 0x1ff
 80028a6:	f04f 0200 	mov.w	r2, #0
 80028aa:	ea03 0501 	and.w	r5, r3, r1
 80028ae:	ea04 0602 	and.w	r6, r4, r2
 80028b2:	4629      	mov	r1, r5
 80028b4:	4632      	mov	r2, r6
 80028b6:	f04f 0300 	mov.w	r3, #0
 80028ba:	f04f 0400 	mov.w	r4, #0
 80028be:	0154      	lsls	r4, r2, #5
 80028c0:	ea44 64d1 	orr.w	r4, r4, r1, lsr #27
 80028c4:	014b      	lsls	r3, r1, #5
 80028c6:	4619      	mov	r1, r3
 80028c8:	4622      	mov	r2, r4
 80028ca:	1b49      	subs	r1, r1, r5
 80028cc:	eb62 0206 	sbc.w	r2, r2, r6
 80028d0:	f04f 0300 	mov.w	r3, #0
 80028d4:	f04f 0400 	mov.w	r4, #0
 80028d8:	0194      	lsls	r4, r2, #6
 80028da:	ea44 6491 	orr.w	r4, r4, r1, lsr #26
 80028de:	018b      	lsls	r3, r1, #6
 80028e0:	1a5b      	subs	r3, r3, r1
 80028e2:	eb64 0402 	sbc.w	r4, r4, r2
 80028e6:	f04f 0100 	mov.w	r1, #0
 80028ea:	f04f 0200 	mov.w	r2, #0
 80028ee:	00e2      	lsls	r2, r4, #3
 80028f0:	ea42 7253 	orr.w	r2, r2, r3, lsr #29
 80028f4:	00d9      	lsls	r1, r3, #3
 80028f6:	460b      	mov	r3, r1
 80028f8:	4614      	mov	r4, r2
 80028fa:	195b      	adds	r3, r3, r5
 80028fc:	eb44 0406 	adc.w	r4, r4, r6
 8002900:	f04f 0100 	mov.w	r1, #0
 8002904:	f04f 0200 	mov.w	r2, #0
 8002908:	02a2      	lsls	r2, r4, #10
 800290a:	ea42 5293 	orr.w	r2, r2, r3, lsr #22
 800290e:	0299      	lsls	r1, r3, #10
 8002910:	460b      	mov	r3, r1
 8002912:	4614      	mov	r4, r2
 8002914:	4618      	mov	r0, r3
 8002916:	4621      	mov	r1, r4
 8002918:	68fb      	ldr	r3, [r7, #12]
 800291a:	f04f 0400 	mov.w	r4, #0
 800291e:	461a      	mov	r2, r3
 8002920:	4623      	mov	r3, r4
 8002922:	f7fd fcc5 	bl	80002b0 <__aeabi_uldivmod>
 8002926:	4603      	mov	r3, r0
 8002928:	460c      	mov	r4, r1
 800292a:	617b      	str	r3, [r7, #20]
 800292c:	4b09      	ldr	r3, [pc, #36]	; (8002954 <HAL_RCC_GetSysClockFreq+0x334>)
 800292e:	685b      	ldr	r3, [r3, #4]
 8002930:	0f1b      	lsrs	r3, r3, #28
 8002932:	f003 0307 	and.w	r3, r3, #7
 8002936:	607b      	str	r3, [r7, #4]
 8002938:	697a      	ldr	r2, [r7, #20]
 800293a:	687b      	ldr	r3, [r7, #4]
 800293c:	fbb2 f3f3 	udiv	r3, r2, r3
 8002940:	613b      	str	r3, [r7, #16]
 8002942:	e002      	b.n	800294a <HAL_RCC_GetSysClockFreq+0x32a>
 8002944:	4b04      	ldr	r3, [pc, #16]	; (8002958 <HAL_RCC_GetSysClockFreq+0x338>)
 8002946:	613b      	str	r3, [r7, #16]
 8002948:	bf00      	nop
 800294a:	693b      	ldr	r3, [r7, #16]
 800294c:	4618      	mov	r0, r3
 800294e:	371c      	adds	r7, #28
 8002950:	46bd      	mov	sp, r7
 8002952:	bdf0      	pop	{r4, r5, r6, r7, pc}
 8002954:	40023800 	.word	0x40023800
 8002958:	00f42400 	.word	0x00f42400
 800295c:	007a1200 	.word	0x007a1200

08002960 <HAL_RCC_OscConfig>:
 8002960:	b580      	push	{r7, lr}
 8002962:	b086      	sub	sp, #24
 8002964:	af00      	add	r7, sp, #0
 8002966:	6078      	str	r0, [r7, #4]
 8002968:	2300      	movs	r3, #0
 800296a:	613b      	str	r3, [r7, #16]
 800296c:	687b      	ldr	r3, [r7, #4]
 800296e:	681b      	ldr	r3, [r3, #0]
 8002970:	f003 0301 	and.w	r3, r3, #1
 8002974:	2b00      	cmp	r3, #0
 8002976:	f000 8083 	beq.w	8002a80 <HAL_RCC_OscConfig+0x120>
 800297a:	4b95      	ldr	r3, [pc, #596]	; (8002bd0 <HAL_RCC_OscConfig+0x270>)
 800297c:	689b      	ldr	r3, [r3, #8]
 800297e:	f003 030c 	and.w	r3, r3, #12
 8002982:	2b04      	cmp	r3, #4
 8002984:	d019      	beq.n	80029ba <HAL_RCC_OscConfig+0x5a>
 8002986:	4b92      	ldr	r3, [pc, #584]	; (8002bd0 <HAL_RCC_OscConfig+0x270>)
 8002988:	689b      	ldr	r3, [r3, #8]
 800298a:	f003 030c 	and.w	r3, r3, #12
 800298e:	2b08      	cmp	r3, #8
 8002990:	d106      	bne.n	80029a0 <HAL_RCC_OscConfig+0x40>
 8002992:	4b8f      	ldr	r3, [pc, #572]	; (8002bd0 <HAL_RCC_OscConfig+0x270>)
 8002994:	685b      	ldr	r3, [r3, #4]
 8002996:	f403 0380 	and.w	r3, r3, #4194304	; 0x400000
 800299a:	f5b3 0f80 	cmp.w	r3, #4194304	; 0x400000
 800299e:	d00c      	beq.n	80029ba <HAL_RCC_OscConfig+0x5a>
 80029a0:	4b8b      	ldr	r3, [pc, #556]	; (8002bd0 <HAL_RCC_OscConfig+0x270>)
 80029a2:	689b      	ldr	r3, [r3, #8]
 80029a4:	f003 030c 	and.w	r3, r3, #12
 80029a8:	2b0c      	cmp	r3, #12
 80029aa:	d112      	bne.n	80029d2 <HAL_RCC_OscConfig+0x72>
 80029ac:	4b88      	ldr	r3, [pc, #544]	; (8002bd0 <HAL_RCC_OscConfig+0x270>)
 80029ae:	685b      	ldr	r3, [r3, #4]
 80029b0:	f403 0380 	and.w	r3, r3, #4194304	; 0x400000
 80029b4:	f5b3 0f80 	cmp.w	r3, #4194304	; 0x400000
 80029b8:	d10b      	bne.n	80029d2 <HAL_RCC_OscConfig+0x72>
 80029ba:	4b85      	ldr	r3, [pc, #532]	; (8002bd0 <HAL_RCC_OscConfig+0x270>)
 80029bc:	681b      	ldr	r3, [r3, #0]
 80029be:	f403 3300 	and.w	r3, r3, #131072	; 0x20000
 80029c2:	2b00      	cmp	r3, #0
 80029c4:	d05b      	beq.n	8002a7e <HAL_RCC_OscConfig+0x11e>
 80029c6:	687b      	ldr	r3, [r7, #4]
 80029c8:	685b      	ldr	r3, [r3, #4]
 80029ca:	2b00      	cmp	r3, #0
 80029cc:	d157      	bne.n	8002a7e <HAL_RCC_OscConfig+0x11e>
 80029ce:	2301      	movs	r3, #1
 80029d0:	e216      	b.n	8002e00 <HAL_RCC_OscConfig+0x4a0>
 80029d2:	687b      	ldr	r3, [r7, #4]
 80029d4:	685b      	ldr	r3, [r3, #4]
 80029d6:	f5b3 3f80 	cmp.w	r3, #65536	; 0x10000
 80029da:	d106      	bne.n	80029ea <HAL_RCC_OscConfig+0x8a>
 80029dc:	4b7c      	ldr	r3, [pc, #496]	; (8002bd0 <HAL_RCC_OscConfig+0x270>)
 80029de:	681b      	ldr	r3, [r3, #0]
 80029e0:	4a7b      	ldr	r2, [pc, #492]	; (8002bd0 <HAL_RCC_OscConfig+0x270>)
 80029e2:	f443 3380 	orr.w	r3, r3, #65536	; 0x10000
 80029e6:	6013      	str	r3, [r2, #0]
 80029e8:	e01d      	b.n	8002a26 <HAL_RCC_OscConfig+0xc6>
 80029ea:	687b      	ldr	r3, [r7, #4]
 80029ec:	685b      	ldr	r3, [r3, #4]
 80029ee:	f5b3 2fa0 	cmp.w	r3, #327680	; 0x50000
 80029f2:	d10c      	bne.n	8002a0e <HAL_RCC_OscConfig+0xae>
 80029f4:	4b76      	ldr	r3, [pc, #472]	; (8002bd0 <HAL_RCC_OscConfig+0x270>)
 80029f6:	681b      	ldr	r3, [r3, #0]
 80029f8:	4a75      	ldr	r2, [pc, #468]	; (8002bd0 <HAL_RCC_OscConfig+0x270>)
 80029fa:	f443 2380 	orr.w	r3, r3, #262144	; 0x40000
 80029fe:	6013      	str	r3, [r2, #0]
 8002a00:	4b73      	ldr	r3, [pc, #460]	; (8002bd0 <HAL_RCC_OscConfig+0x270>)
 8002a02:	681b      	ldr	r3, [r3, #0]
 8002a04:	4a72      	ldr	r2, [pc, #456]	; (8002bd0 <HAL_RCC_OscConfig+0x270>)
 8002a06:	f443 3380 	orr.w	r3, r3, #65536	; 0x10000
 8002a0a:	6013      	str	r3, [r2, #0]
 8002a0c:	e00b      	b.n	8002a26 <HAL_RCC_OscConfig+0xc6>
 8002a0e:	4b70      	ldr	r3, [pc, #448]	; (8002bd0 <HAL_RCC_OscConfig+0x270>)
 8002a10:	681b      	ldr	r3, [r3, #0]
 8002a12:	4a6f      	ldr	r2, [pc, #444]	; (8002bd0 <HAL_RCC_OscConfig+0x270>)
 8002a14:	f423 3380 	bic.w	r3, r3, #65536	; 0x10000
 8002a18:	6013      	str	r3, [r2, #0]
 8002a1a:	4b6d      	ldr	r3, [pc, #436]	; (8002bd0 <HAL_RCC_OscConfig+0x270>)
 8002a1c:	681b      	ldr	r3, [r3, #0]
 8002a1e:	4a6c      	ldr	r2, [pc, #432]	; (8002bd0 <HAL_RCC_OscConfig+0x270>)
 8002a20:	f423 2380 	bic.w	r3, r3, #262144	; 0x40000
 8002a24:	6013      	str	r3, [r2, #0]
 8002a26:	687b      	ldr	r3, [r7, #4]
 8002a28:	685b      	ldr	r3, [r3, #4]
 8002a2a:	2b00      	cmp	r3, #0
 8002a2c:	d013      	beq.n	8002a56 <HAL_RCC_OscConfig+0xf6>
 8002a2e:	f7fe fa93 	bl	8000f58 <HAL_GetTick>
 8002a32:	6138      	str	r0, [r7, #16]
 8002a34:	e008      	b.n	8002a48 <HAL_RCC_OscConfig+0xe8>
 8002a36:	f7fe fa8f 	bl	8000f58 <HAL_GetTick>
 8002a3a:	4602      	mov	r2, r0
 8002a3c:	693b      	ldr	r3, [r7, #16]
 8002a3e:	1ad3      	subs	r3, r2, r3
 8002a40:	2b64      	cmp	r3, #100	; 0x64
 8002a42:	d901      	bls.n	8002a48 <HAL_RCC_OscConfig+0xe8>
 8002a44:	2303      	movs	r3, #3
 8002a46:	e1db      	b.n	8002e00 <HAL_RCC_OscConfig+0x4a0>
 8002a48:	4b61      	ldr	r3, [pc, #388]	; (8002bd0 <HAL_RCC_OscConfig+0x270>)
 8002a4a:	681b      	ldr	r3, [r3, #0]
 8002a4c:	f403 3300 	and.w	r3, r3, #131072	; 0x20000
 8002a50:	2b00      	cmp	r3, #0
 8002a52:	d0f0      	beq.n	8002a36 <HAL_RCC_OscConfig+0xd6>
 8002a54:	e014      	b.n	8002a80 <HAL_RCC_OscConfig+0x120>
 8002a56:	f7fe fa7f 	bl	8000f58 <HAL_GetTick>
 8002a5a:	6138      	str	r0, [r7, #16]
 8002a5c:	e008      	b.n	8002a70 <HAL_RCC_OscConfig+0x110>
 8002a5e:	f7fe fa7b 	bl	8000f58 <HAL_GetTick>
 8002a62:	4602      	mov	r2, r0
 8002a64:	693b      	ldr	r3, [r7, #16]
 8002a66:	1ad3      	subs	r3, r2, r3
 8002a68:	2b64      	cmp	r3, #100	; 0x64
 8002a6a:	d901      	bls.n	8002a70 <HAL_RCC_OscConfig+0x110>
 8002a6c:	2303      	movs	r3, #3
 8002a6e:	e1c7      	b.n	8002e00 <HAL_RCC_OscConfig+0x4a0>
 8002a70:	4b57      	ldr	r3, [pc, #348]	; (8002bd0 <HAL_RCC_OscConfig+0x270>)
 8002a72:	681b      	ldr	r3, [r3, #0]
 8002a74:	f403 3300 	and.w	r3, r3, #131072	; 0x20000
 8002a78:	2b00      	cmp	r3, #0
 8002a7a:	d1f0      	bne.n	8002a5e <HAL_RCC_OscConfig+0xfe>
 8002a7c:	e000      	b.n	8002a80 <HAL_RCC_OscConfig+0x120>
 8002a7e:	bf00      	nop
 8002a80:	687b      	ldr	r3, [r7, #4]
 8002a82:	681b      	ldr	r3, [r3, #0]
 8002a84:	f003 0302 	and.w	r3, r3, #2
 8002a88:	2b00      	cmp	r3, #0
 8002a8a:	d06f      	beq.n	8002b6c <HAL_RCC_OscConfig+0x20c>
 8002a8c:	4b50      	ldr	r3, [pc, #320]	; (8002bd0 <HAL_RCC_OscConfig+0x270>)
 8002a8e:	689b      	ldr	r3, [r3, #8]
 8002a90:	f003 030c 	and.w	r3, r3, #12
 8002a94:	2b00      	cmp	r3, #0
 8002a96:	d017      	beq.n	8002ac8 <HAL_RCC_OscConfig+0x168>
 8002a98:	4b4d      	ldr	r3, [pc, #308]	; (8002bd0 <HAL_RCC_OscConfig+0x270>)
 8002a9a:	689b      	ldr	r3, [r3, #8]
 8002a9c:	f003 030c 	and.w	r3, r3, #12
 8002aa0:	2b08      	cmp	r3, #8
 8002aa2:	d105      	bne.n	8002ab0 <HAL_RCC_OscConfig+0x150>
 8002aa4:	4b4a      	ldr	r3, [pc, #296]	; (8002bd0 <HAL_RCC_OscConfig+0x270>)
 8002aa6:	685b      	ldr	r3, [r3, #4]
 8002aa8:	f403 0380 	and.w	r3, r3, #4194304	; 0x400000
 8002aac:	2b00      	cmp	r3, #0
 8002aae:	d00b      	beq.n	8002ac8 <HAL_RCC_OscConfig+0x168>
 8002ab0:	4b47      	ldr	r3, [pc, #284]	; (8002bd0 <HAL_RCC_OscConfig+0x270>)
 8002ab2:	689b      	ldr	r3, [r3, #8]
 8002ab4:	f003 030c 	and.w	r3, r3, #12
 8002ab8:	2b0c      	cmp	r3, #12
 8002aba:	d11c      	bne.n	8002af6 <HAL_RCC_OscConfig+0x196>
 8002abc:	4b44      	ldr	r3, [pc, #272]	; (8002bd0 <HAL_RCC_OscConfig+0x270>)
 8002abe:	685b      	ldr	r3, [r3, #4]
 8002ac0:	f403 0380 	and.w	r3, r3, #4194304	; 0x400000
 8002ac4:	2b00      	cmp	r3, #0
 8002ac6:	d116      	bne.n	8002af6 <HAL_RCC_OscConfig+0x196>
 8002ac8:	4b41      	ldr	r3, [pc, #260]	; (8002bd0 <HAL_RCC_OscConfig+0x270>)
 8002aca:	681b      	ldr	r3, [r3, #0]
 8002acc:	f003 0302 	and.w	r3, r3, #2
 8002ad0:	2b00      	cmp	r3, #0
 8002ad2:	d005      	beq.n	8002ae0 <HAL_RCC_OscConfig+0x180>
 8002ad4:	687b      	ldr	r3, [r7, #4]
 8002ad6:	68db      	ldr	r3, [r3, #12]
 8002ad8:	2b01      	cmp	r3, #1
 8002ada:	d001      	beq.n	8002ae0 <HAL_RCC_OscConfig+0x180>
 8002adc:	2301      	movs	r3, #1
 8002ade:	e18f      	b.n	8002e00 <HAL_RCC_OscConfig+0x4a0>
 8002ae0:	4b3b      	ldr	r3, [pc, #236]	; (8002bd0 <HAL_RCC_OscConfig+0x270>)
 8002ae2:	681b      	ldr	r3, [r3, #0]
 8002ae4:	f023 02f8 	bic.w	r2, r3, #248	; 0xf8
 8002ae8:	687b      	ldr	r3, [r7, #4]
 8002aea:	691b      	ldr	r3, [r3, #16]
 8002aec:	00db      	lsls	r3, r3, #3
 8002aee:	4938      	ldr	r1, [pc, #224]	; (8002bd0 <HAL_RCC_OscConfig+0x270>)
 8002af0:	4313      	orrs	r3, r2
 8002af2:	600b      	str	r3, [r1, #0]
 8002af4:	e03a      	b.n	8002b6c <HAL_RCC_OscConfig+0x20c>
 8002af6:	687b      	ldr	r3, [r7, #4]
 8002af8:	68db      	ldr	r3, [r3, #12]
 8002afa:	2b00      	cmp	r3, #0
 8002afc:	d020      	beq.n	8002b40 <HAL_RCC_OscConfig+0x1e0>
 8002afe:	4b35      	ldr	r3, [pc, #212]	; (8002bd4 <HAL_RCC_OscConfig+0x274>)
 8002b00:	2201      	movs	r2, #1
 8002b02:	601a      	str	r2, [r3, #0]
 8002b04:	f7fe fa28 	bl	8000f58 <HAL_GetTick>
 8002b08:	6138      	str	r0, [r7, #16]
 8002b0a:	e008      	b.n	8002b1e <HAL_RCC_OscConfig+0x1be>
 8002b0c:	f7fe fa24 	bl	8000f58 <HAL_GetTick>
 8002b10:	4602      	mov	r2, r0
 8002b12:	693b      	ldr	r3, [r7, #16]
 8002b14:	1ad3      	subs	r3, r2, r3
 8002b16:	2b02      	cmp	r3, #2
 8002b18:	d901      	bls.n	8002b1e <HAL_RCC_OscConfig+0x1be>
 8002b1a:	2303      	movs	r3, #3
 8002b1c:	e170      	b.n	8002e00 <HAL_RCC_OscConfig+0x4a0>
 8002b1e:	4b2c      	ldr	r3, [pc, #176]	; (8002bd0 <HAL_RCC_OscConfig+0x270>)
 8002b20:	681b      	ldr	r3, [r3, #0]
 8002b22:	f003 0302 	and.w	r3, r3, #2
 8002b26:	2b00      	cmp	r3, #0
 8002b28:	d0f0      	beq.n	8002b0c <HAL_RCC_OscConfig+0x1ac>
 8002b2a:	4b29      	ldr	r3, [pc, #164]	; (8002bd0 <HAL_RCC_OscConfig+0x270>)
 8002b2c:	681b      	ldr	r3, [r3, #0]
 8002b2e:	f023 02f8 	bic.w	r2, r3, #248	; 0xf8
 8002b32:	687b      	ldr	r3, [r7, #4]
 8002b34:	691b      	ldr	r3, [r3, #16]
 8002b36:	00db      	lsls	r3, r3, #3
 8002b38:	4925      	ldr	r1, [pc, #148]	; (8002bd0 <HAL_RCC_OscConfig+0x270>)
 8002b3a:	4313      	orrs	r3, r2
 8002b3c:	600b      	str	r3, [r1, #0]
 8002b3e:	e015      	b.n	8002b6c <HAL_RCC_OscConfig+0x20c>
 8002b40:	4b24      	ldr	r3, [pc, #144]	; (8002bd4 <HAL_RCC_OscConfig+0x274>)
 8002b42:	2200      	movs	r2, #0
 8002b44:	601a      	str	r2, [r3, #0]
 8002b46:	f7fe fa07 	bl	8000f58 <HAL_GetTick>
 8002b4a:	6138      	str	r0, [r7, #16]
 8002b4c:	e008      	b.n	8002b60 <HAL_RCC_OscConfig+0x200>
 8002b4e:	f7fe fa03 	bl	8000f58 <HAL_GetTick>
 8002b52:	4602      	mov	r2, r0
 8002b54:	693b      	ldr	r3, [r7, #16]
 8002b56:	1ad3      	subs	r3, r2, r3
 8002b58:	2b02      	cmp	r3, #2
 8002b5a:	d901      	bls.n	8002b60 <HAL_RCC_OscConfig+0x200>
 8002b5c:	2303      	movs	r3, #3
 8002b5e:	e14f      	b.n	8002e00 <HAL_RCC_OscConfig+0x4a0>
 8002b60:	4b1b      	ldr	r3, [pc, #108]	; (8002bd0 <HAL_RCC_OscConfig+0x270>)
 8002b62:	681b      	ldr	r3, [r3, #0]
 8002b64:	f003 0302 	and.w	r3, r3, #2
 8002b68:	2b00      	cmp	r3, #0
 8002b6a:	d1f0      	bne.n	8002b4e <HAL_RCC_OscConfig+0x1ee>
 8002b6c:	687b      	ldr	r3, [r7, #4]
 8002b6e:	681b      	ldr	r3, [r3, #0]
 8002b70:	f003 0308 	and.w	r3, r3, #8
 8002b74:	2b00      	cmp	r3, #0
 8002b76:	d037      	beq.n	8002be8 <HAL_RCC_OscConfig+0x288>
 8002b78:	687b      	ldr	r3, [r7, #4]
 8002b7a:	695b      	ldr	r3, [r3, #20]
 8002b7c:	2b00      	cmp	r3, #0
 8002b7e:	d016      	beq.n	8002bae <HAL_RCC_OscConfig+0x24e>
 8002b80:	4b15      	ldr	r3, [pc, #84]	; (8002bd8 <HAL_RCC_OscConfig+0x278>)
 8002b82:	2201      	movs	r2, #1
 8002b84:	601a      	str	r2, [r3, #0]
 8002b86:	f7fe f9e7 	bl	8000f58 <HAL_GetTick>
 8002b8a:	6138      	str	r0, [r7, #16]
 8002b8c:	e008      	b.n	8002ba0 <HAL_RCC_OscConfig+0x240>
 8002b8e:	f7fe f9e3 	bl	8000f58 <HAL_GetTick>
 8002b92:	4602      	mov	r2, r0
 8002b94:	693b      	ldr	r3, [r7, #16]
 8002b96:	1ad3      	subs	r3, r2, r3
 8002b98:	2b02      	cmp	r3, #2
 8002b9a:	d901      	bls.n	8002ba0 <HAL_RCC_OscConfig+0x240>
 8002b9c:	2303      	movs	r3, #3
 8002b9e:	e12f      	b.n	8002e00 <HAL_RCC_OscConfig+0x4a0>
 8002ba0:	4b0b      	ldr	r3, [pc, #44]	; (8002bd0 <HAL_RCC_OscConfig+0x270>)
 8002ba2:	6f5b      	ldr	r3, [r3, #116]	; 0x74
 8002ba4:	f003 0302 	and.w	r3, r3, #2
 8002ba8:	2b00      	cmp	r3, #0
 8002baa:	d0f0      	beq.n	8002b8e <HAL_RCC_OscConfig+0x22e>
 8002bac:	e01c      	b.n	8002be8 <HAL_RCC_OscConfig+0x288>
 8002bae:	4b0a      	ldr	r3, [pc, #40]	; (8002bd8 <HAL_RCC_OscConfig+0x278>)
 8002bb0:	2200      	movs	r2, #0
 8002bb2:	601a      	str	r2, [r3, #0]
 8002bb4:	f7fe f9d0 	bl	8000f58 <HAL_GetTick>
 8002bb8:	6138      	str	r0, [r7, #16]
 8002bba:	e00f      	b.n	8002bdc <HAL_RCC_OscConfig+0x27c>
 8002bbc:	f7fe f9cc 	bl	8000f58 <HAL_GetTick>
 8002bc0:	4602      	mov	r2, r0
 8002bc2:	693b      	ldr	r3, [r7, #16]
 8002bc4:	1ad3      	subs	r3, r2, r3
 8002bc6:	2b02      	cmp	r3, #2
 8002bc8:	d908      	bls.n	8002bdc <HAL_RCC_OscConfig+0x27c>
 8002bca:	2303      	movs	r3, #3
 8002bcc:	e118      	b.n	8002e00 <HAL_RCC_OscConfig+0x4a0>
 8002bce:	bf00      	nop
 8002bd0:	40023800 	.word	0x40023800
 8002bd4:	42470000 	.word	0x42470000
 8002bd8:	42470e80 	.word	0x42470e80
 8002bdc:	4b8a      	ldr	r3, [pc, #552]	; (8002e08 <HAL_RCC_OscConfig+0x4a8>)
 8002bde:	6f5b      	ldr	r3, [r3, #116]	; 0x74
 8002be0:	f003 0302 	and.w	r3, r3, #2
 8002be4:	2b00      	cmp	r3, #0
 8002be6:	d1e9      	bne.n	8002bbc <HAL_RCC_OscConfig+0x25c>
 8002be8:	687b      	ldr	r3, [r7, #4]
 8002bea:	681b      	ldr	r3, [r3, #0]
 8002bec:	f003 0304 	and.w	r3, r3, #4
 8002bf0:	2b00      	cmp	r3, #0
 8002bf2:	f000 8097 	beq.w	8002d24 <HAL_RCC_OscConfig+0x3c4>
 8002bf6:	2300      	movs	r3, #0
 8002bf8:	75fb      	strb	r3, [r7, #23]
 8002bfa:	4b83      	ldr	r3, [pc, #524]	; (8002e08 <HAL_RCC_OscConfig+0x4a8>)
 8002bfc:	6c1b      	ldr	r3, [r3, #64]	; 0x40
 8002bfe:	f003 5380 	and.w	r3, r3, #268435456	; 0x10000000
 8002c02:	2b00      	cmp	r3, #0
 8002c04:	d10f      	bne.n	8002c26 <HAL_RCC_OscConfig+0x2c6>
 8002c06:	2300      	movs	r3, #0
 8002c08:	60fb      	str	r3, [r7, #12]
 8002c0a:	4b7f      	ldr	r3, [pc, #508]	; (8002e08 <HAL_RCC_OscConfig+0x4a8>)
 8002c0c:	6c1b      	ldr	r3, [r3, #64]	; 0x40
 8002c0e:	4a7e      	ldr	r2, [pc, #504]	; (8002e08 <HAL_RCC_OscConfig+0x4a8>)
 8002c10:	f043 5380 	orr.w	r3, r3, #268435456	; 0x10000000
 8002c14:	6413      	str	r3, [r2, #64]	; 0x40
 8002c16:	4b7c      	ldr	r3, [pc, #496]	; (8002e08 <HAL_RCC_OscConfig+0x4a8>)
 8002c18:	6c1b      	ldr	r3, [r3, #64]	; 0x40
 8002c1a:	f003 5380 	and.w	r3, r3, #268435456	; 0x10000000
 8002c1e:	60fb      	str	r3, [r7, #12]
 8002c20:	68fb      	ldr	r3, [r7, #12]
 8002c22:	2301      	movs	r3, #1
 8002c24:	75fb      	strb	r3, [r7, #23]
 8002c26:	4b79      	ldr	r3, [pc, #484]	; (8002e0c <HAL_RCC_OscConfig+0x4ac>)
 8002c28:	681b      	ldr	r3, [r3, #0]
 8002c2a:	f403 7380 	and.w	r3, r3, #256	; 0x100
 8002c2e:	2b00      	cmp	r3, #0
 8002c30:	d118      	bne.n	8002c64 <HAL_RCC_OscConfig+0x304>
 8002c32:	4b76      	ldr	r3, [pc, #472]	; (8002e0c <HAL_RCC_OscConfig+0x4ac>)
 8002c34:	681b      	ldr	r3, [r3, #0]
 8002c36:	4a75      	ldr	r2, [pc, #468]	; (8002e0c <HAL_RCC_OscConfig+0x4ac>)
 8002c38:	f443 7380 	orr.w	r3, r3, #256	; 0x100
 8002c3c:	6013      	str	r3, [r2, #0]
 8002c3e:	f7fe f98b 	bl	8000f58 <HAL_GetTick>
 8002c42:	6138      	str	r0, [r7, #16]
 8002c44:	e008      	b.n	8002c58 <HAL_RCC_OscConfig+0x2f8>
 8002c46:	f7fe f987 	bl	8000f58 <HAL_GetTick>
 8002c4a:	4602      	mov	r2, r0
 8002c4c:	693b      	ldr	r3, [r7, #16]
 8002c4e:	1ad3      	subs	r3, r2, r3
 8002c50:	2b02      	cmp	r3, #2
 8002c52:	d901      	bls.n	8002c58 <HAL_RCC_OscConfig+0x2f8>
 8002c54:	2303      	movs	r3, #3
 8002c56:	e0d3      	b.n	8002e00 <HAL_RCC_OscConfig+0x4a0>
 8002c58:	4b6c      	ldr	r3, [pc, #432]	; (8002e0c <HAL_RCC_OscConfig+0x4ac>)
 8002c5a:	681b      	ldr	r3, [r3, #0]
 8002c5c:	f403 7380 	and.w	r3, r3, #256	; 0x100
 8002c60:	2b00      	cmp	r3, #0
 8002c62:	d0f0      	beq.n	8002c46 <HAL_RCC_OscConfig+0x2e6>
 8002c64:	687b      	ldr	r3, [r7, #4]
 8002c66:	689b      	ldr	r3, [r3, #8]
 8002c68:	2b01      	cmp	r3, #1
 8002c6a:	d106      	bne.n	8002c7a <HAL_RCC_OscConfig+0x31a>
 8002c6c:	4b66      	ldr	r3, [pc, #408]	; (8002e08 <HAL_RCC_OscConfig+0x4a8>)
 8002c6e:	6f1b      	ldr	r3, [r3, #112]	; 0x70
 8002c70:	4a65      	ldr	r2, [pc, #404]	; (8002e08 <HAL_RCC_OscConfig+0x4a8>)
 8002c72:	f043 0301 	orr.w	r3, r3, #1
 8002c76:	6713      	str	r3, [r2, #112]	; 0x70
 8002c78:	e01c      	b.n	8002cb4 <HAL_RCC_OscConfig+0x354>
 8002c7a:	687b      	ldr	r3, [r7, #4]
 8002c7c:	689b      	ldr	r3, [r3, #8]
 8002c7e:	2b05      	cmp	r3, #5
 8002c80:	d10c      	bne.n	8002c9c <HAL_RCC_OscConfig+0x33c>
 8002c82:	4b61      	ldr	r3, [pc, #388]	; (8002e08 <HAL_RCC_OscConfig+0x4a8>)
 8002c84:	6f1b      	ldr	r3, [r3, #112]	; 0x70
 8002c86:	4a60      	ldr	r2, [pc, #384]	; (8002e08 <HAL_RCC_OscConfig+0x4a8>)
 8002c88:	f043 0304 	orr.w	r3, r3, #4
 8002c8c:	6713      	str	r3, [r2, #112]	; 0x70
 8002c8e:	4b5e      	ldr	r3, [pc, #376]	; (8002e08 <HAL_RCC_OscConfig+0x4a8>)
 8002c90:	6f1b      	ldr	r3, [r3, #112]	; 0x70
 8002c92:	4a5d      	ldr	r2, [pc, #372]	; (8002e08 <HAL_RCC_OscConfig+0x4a8>)
 8002c94:	f043 0301 	orr.w	r3, r3, #1
 8002c98:	6713      	str	r3, [r2, #112]	; 0x70
 8002c9a:	e00b      	b.n	8002cb4 <HAL_RCC_OscConfig+0x354>
 8002c9c:	4b5a      	ldr	r3, [pc, #360]	; (8002e08 <HAL_RCC_OscConfig+0x4a8>)
 8002c9e:	6f1b      	ldr	r3, [r3, #112]	; 0x70
 8002ca0:	4a59      	ldr	r2, [pc, #356]	; (8002e08 <HAL_RCC_OscConfig+0x4a8>)
 8002ca2:	f023 0301 	bic.w	r3, r3, #1
 8002ca6:	6713      	str	r3, [r2, #112]	; 0x70
 8002ca8:	4b57      	ldr	r3, [pc, #348]	; (8002e08 <HAL_RCC_OscConfig+0x4a8>)
 8002caa:	6f1b      	ldr	r3, [r3, #112]	; 0x70
 8002cac:	4a56      	ldr	r2, [pc, #344]	; (8002e08 <HAL_RCC_OscConfig+0x4a8>)
 8002cae:	f023 0304 	bic.w	r3, r3, #4
 8002cb2:	6713      	str	r3, [r2, #112]	; 0x70
 8002cb4:	687b      	ldr	r3, [r7, #4]
 8002cb6:	689b      	ldr	r3, [r3, #8]
 8002cb8:	2b00      	cmp	r3, #0
 8002cba:	d015      	beq.n	8002ce8 <HAL_RCC_OscConfig+0x388>
 8002cbc:	f7fe f94c 	bl	8000f58 <HAL_GetTick>
 8002cc0:	6138      	str	r0, [r7, #16]
 8002cc2:	e00a      	b.n	8002cda <HAL_RCC_OscConfig+0x37a>
 8002cc4:	f7fe f948 	bl	8000f58 <HAL_GetTick>
 8002cc8:	4602      	mov	r2, r0
 8002cca:	693b      	ldr	r3, [r7, #16]
 8002ccc:	1ad3      	subs	r3, r2, r3
 8002cce:	f241 3288 	movw	r2, #5000	; 0x1388
 8002cd2:	4293      	cmp	r3, r2
 8002cd4:	d901      	bls.n	8002cda <HAL_RCC_OscConfig+0x37a>
 8002cd6:	2303      	movs	r3, #3
 8002cd8:	e092      	b.n	8002e00 <HAL_RCC_OscConfig+0x4a0>
 8002cda:	4b4b      	ldr	r3, [pc, #300]	; (8002e08 <HAL_RCC_OscConfig+0x4a8>)
 8002cdc:	6f1b      	ldr	r3, [r3, #112]	; 0x70
 8002cde:	f003 0302 	and.w	r3, r3, #2
 8002ce2:	2b00      	cmp	r3, #0
 8002ce4:	d0ee      	beq.n	8002cc4 <HAL_RCC_OscConfig+0x364>
 8002ce6:	e014      	b.n	8002d12 <HAL_RCC_OscConfig+0x3b2>
 8002ce8:	f7fe f936 	bl	8000f58 <HAL_GetTick>
 8002cec:	6138      	str	r0, [r7, #16]
 8002cee:	e00a      	b.n	8002d06 <HAL_RCC_OscConfig+0x3a6>
 8002cf0:	f7fe f932 	bl	8000f58 <HAL_GetTick>
 8002cf4:	4602      	mov	r2, r0
 8002cf6:	693b      	ldr	r3, [r7, #16]
 8002cf8:	1ad3      	subs	r3, r2, r3
 8002cfa:	f241 3288 	movw	r2, #5000	; 0x1388
 8002cfe:	4293      	cmp	r3, r2
 8002d00:	d901      	bls.n	8002d06 <HAL_RCC_OscConfig+0x3a6>
 8002d02:	2303      	movs	r3, #3
 8002d04:	e07c      	b.n	8002e00 <HAL_RCC_OscConfig+0x4a0>
 8002d06:	4b40      	ldr	r3, [pc, #256]	; (8002e08 <HAL_RCC_OscConfig+0x4a8>)
 8002d08:	6f1b      	ldr	r3, [r3, #112]	; 0x70
 8002d0a:	f003 0302 	and.w	r3, r3, #2
 8002d0e:	2b00      	cmp	r3, #0
 8002d10:	d1ee      	bne.n	8002cf0 <HAL_RCC_OscConfig+0x390>
 8002d12:	7dfb      	ldrb	r3, [r7, #23]
 8002d14:	2b01      	cmp	r3, #1
 8002d16:	d105      	bne.n	8002d24 <HAL_RCC_OscConfig+0x3c4>
 8002d18:	4b3b      	ldr	r3, [pc, #236]	; (8002e08 <HAL_RCC_OscConfig+0x4a8>)
 8002d1a:	6c1b      	ldr	r3, [r3, #64]	; 0x40
 8002d1c:	4a3a      	ldr	r2, [pc, #232]	; (8002e08 <HAL_RCC_OscConfig+0x4a8>)
 8002d1e:	f023 5380 	bic.w	r3, r3, #268435456	; 0x10000000
 8002d22:	6413      	str	r3, [r2, #64]	; 0x40
 8002d24:	687b      	ldr	r3, [r7, #4]
 8002d26:	699b      	ldr	r3, [r3, #24]
 8002d28:	2b00      	cmp	r3, #0
 8002d2a:	d068      	beq.n	8002dfe <HAL_RCC_OscConfig+0x49e>
 8002d2c:	4b36      	ldr	r3, [pc, #216]	; (8002e08 <HAL_RCC_OscConfig+0x4a8>)
 8002d2e:	689b      	ldr	r3, [r3, #8]
 8002d30:	f003 030c 	and.w	r3, r3, #12
 8002d34:	2b08      	cmp	r3, #8
 8002d36:	d060      	beq.n	8002dfa <HAL_RCC_OscConfig+0x49a>
 8002d38:	687b      	ldr	r3, [r7, #4]
 8002d3a:	699b      	ldr	r3, [r3, #24]
 8002d3c:	2b02      	cmp	r3, #2
 8002d3e:	d145      	bne.n	8002dcc <HAL_RCC_OscConfig+0x46c>
 8002d40:	4b33      	ldr	r3, [pc, #204]	; (8002e10 <HAL_RCC_OscConfig+0x4b0>)
 8002d42:	2200      	movs	r2, #0
 8002d44:	601a      	str	r2, [r3, #0]
 8002d46:	f7fe f907 	bl	8000f58 <HAL_GetTick>
 8002d4a:	6138      	str	r0, [r7, #16]
 8002d4c:	e008      	b.n	8002d60 <HAL_RCC_OscConfig+0x400>
 8002d4e:	f7fe f903 	bl	8000f58 <HAL_GetTick>
 8002d52:	4602      	mov	r2, r0
 8002d54:	693b      	ldr	r3, [r7, #16]
 8002d56:	1ad3      	subs	r3, r2, r3
 8002d58:	2b02      	cmp	r3, #2
 8002d5a:	d901      	bls.n	8002d60 <HAL_RCC_OscConfig+0x400>
 8002d5c:	2303      	movs	r3, #3
 8002d5e:	e04f      	b.n	8002e00 <HAL_RCC_OscConfig+0x4a0>
 8002d60:	4b29      	ldr	r3, [pc, #164]	; (8002e08 <HAL_RCC_OscConfig+0x4a8>)
 8002d62:	681b      	ldr	r3, [r3, #0]
 8002d64:	f003 7300 	and.w	r3, r3, #33554432	; 0x2000000
 8002d68:	2b00      	cmp	r3, #0
 8002d6a:	d1f0      	bne.n	8002d4e <HAL_RCC_OscConfig+0x3ee>
 8002d6c:	687b      	ldr	r3, [r7, #4]
 8002d6e:	69da      	ldr	r2, [r3, #28]
 8002d70:	687b      	ldr	r3, [r7, #4]
 8002d72:	6a1b      	ldr	r3, [r3, #32]
 8002d74:	431a      	orrs	r2, r3
 8002d76:	687b      	ldr	r3, [r7, #4]
 8002d78:	6a5b      	ldr	r3, [r3, #36]	; 0x24
 8002d7a:	019b      	lsls	r3, r3, #6
 8002d7c:	431a      	orrs	r2, r3
 8002d7e:	687b      	ldr	r3, [r7, #4]
 8002d80:	6a9b      	ldr	r3, [r3, #40]	; 0x28
 8002d82:	085b      	lsrs	r3, r3, #1
 8002d84:	3b01      	subs	r3, #1
 8002d86:	041b      	lsls	r3, r3, #16
 8002d88:	431a      	orrs	r2, r3
 8002d8a:	687b      	ldr	r3, [r7, #4]
 8002d8c:	6adb      	ldr	r3, [r3, #44]	; 0x2c
 8002d8e:	061b      	lsls	r3, r3, #24
 8002d90:	431a      	orrs	r2, r3
 8002d92:	687b      	ldr	r3, [r7, #4]
 8002d94:	6b1b      	ldr	r3, [r3, #48]	; 0x30
 8002d96:	071b      	lsls	r3, r3, #28
 8002d98:	491b      	ldr	r1, [pc, #108]	; (8002e08 <HAL_RCC_OscConfig+0x4a8>)
 8002d9a:	4313      	orrs	r3, r2
 8002d9c:	604b      	str	r3, [r1, #4]
 8002d9e:	4b1c      	ldr	r3, [pc, #112]	; (8002e10 <HAL_RCC_OscConfig+0x4b0>)
 8002da0:	2201      	movs	r2, #1
 8002da2:	601a      	str	r2, [r3, #0]
 8002da4:	f7fe f8d8 	bl	8000f58 <HAL_GetTick>
 8002da8:	6138      	str	r0, [r7, #16]
 8002daa:	e008      	b.n	8002dbe <HAL_RCC_OscConfig+0x45e>
 8002dac:	f7fe f8d4 	bl	8000f58 <HAL_GetTick>
 8002db0:	4602      	mov	r2, r0
 8002db2:	693b      	ldr	r3, [r7, #16]
 8002db4:	1ad3      	subs	r3, r2, r3
 8002db6:	2b02      	cmp	r3, #2
 8002db8:	d901      	bls.n	8002dbe <HAL_RCC_OscConfig+0x45e>
 8002dba:	2303      	movs	r3, #3
 8002dbc:	e020      	b.n	8002e00 <HAL_RCC_OscConfig+0x4a0>
 8002dbe:	4b12      	ldr	r3, [pc, #72]	; (8002e08 <HAL_RCC_OscConfig+0x4a8>)
 8002dc0:	681b      	ldr	r3, [r3, #0]
 8002dc2:	f003 7300 	and.w	r3, r3, #33554432	; 0x2000000
 8002dc6:	2b00      	cmp	r3, #0
 8002dc8:	d0f0      	beq.n	8002dac <HAL_RCC_OscConfig+0x44c>
 8002dca:	e018      	b.n	8002dfe <HAL_RCC_OscConfig+0x49e>
 8002dcc:	4b10      	ldr	r3, [pc, #64]	; (8002e10 <HAL_RCC_OscConfig+0x4b0>)
 8002dce:	2200      	movs	r2, #0
 8002dd0:	601a      	str	r2, [r3, #0]
 8002dd2:	f7fe f8c1 	bl	8000f58 <HAL_GetTick>
 8002dd6:	6138      	str	r0, [r7, #16]
 8002dd8:	e008      	b.n	8002dec <HAL_RCC_OscConfig+0x48c>
 8002dda:	f7fe f8bd 	bl	8000f58 <HAL_GetTick>
 8002dde:	4602      	mov	r2, r0
 8002de0:	693b      	ldr	r3, [r7, #16]
 8002de2:	1ad3      	subs	r3, r2, r3
 8002de4:	2b02      	cmp	r3, #2
 8002de6:	d901      	bls.n	8002dec <HAL_RCC_OscConfig+0x48c>
 8002de8:	2303      	movs	r3, #3
 8002dea:	e009      	b.n	8002e00 <HAL_RCC_OscConfig+0x4a0>
 8002dec:	4b06      	ldr	r3, [pc, #24]	; (8002e08 <HAL_RCC_OscConfig+0x4a8>)
 8002dee:	681b      	ldr	r3, [r3, #0]
 8002df0:	f003 7300 	and.w	r3, r3, #33554432	; 0x2000000
 8002df4:	2b00      	cmp	r3, #0
 8002df6:	d1f0      	bne.n	8002dda <HAL_RCC_OscConfig+0x47a>
 8002df8:	e001      	b.n	8002dfe <HAL_RCC_OscConfig+0x49e>
 8002dfa:	2301      	movs	r3, #1
 8002dfc:	e000      	b.n	8002e00 <HAL_RCC_OscConfig+0x4a0>
 8002dfe:	2300      	movs	r3, #0
 8002e00:	4618      	mov	r0, r3
 8002e02:	3718      	adds	r7, #24
 8002e04:	46bd      	mov	sp, r7
 8002e06:	bd80      	pop	{r7, pc}
 8002e08:	40023800 	.word	0x40023800
 8002e0c:	40007000 	.word	0x40007000
 8002e10:	42470060 	.word	0x42470060

08002e14 <HAL_UART_Init>:
 8002e14:	b580      	push	{r7, lr}
 8002e16:	b082      	sub	sp, #8
 8002e18:	af00      	add	r7, sp, #0
 8002e1a:	6078      	str	r0, [r7, #4]
 8002e1c:	687b      	ldr	r3, [r7, #4]
 8002e1e:	2b00      	cmp	r3, #0
 8002e20:	d101      	bne.n	8002e26 <HAL_UART_Init+0x12>
 8002e22:	2301      	movs	r3, #1
 8002e24:	e03f      	b.n	8002ea6 <HAL_UART_Init+0x92>
 8002e26:	687b      	ldr	r3, [r7, #4]
 8002e28:	f893 3039 	ldrb.w	r3, [r3, #57]	; 0x39
 8002e2c:	b2db      	uxtb	r3, r3
 8002e2e:	2b00      	cmp	r3, #0
 8002e30:	d106      	bne.n	8002e40 <HAL_UART_Init+0x2c>
 8002e32:	687b      	ldr	r3, [r7, #4]
 8002e34:	2200      	movs	r2, #0
 8002e36:	f883 2038 	strb.w	r2, [r3, #56]	; 0x38
 8002e3a:	6878      	ldr	r0, [r7, #4]
 8002e3c:	f7fd ffb4 	bl	8000da8 <HAL_UART_MspInit>
 8002e40:	687b      	ldr	r3, [r7, #4]
 8002e42:	2224      	movs	r2, #36	; 0x24
 8002e44:	f883 2039 	strb.w	r2, [r3, #57]	; 0x39
 8002e48:	687b      	ldr	r3, [r7, #4]
 8002e4a:	681b      	ldr	r3, [r3, #0]
 8002e4c:	68da      	ldr	r2, [r3, #12]
 8002e4e:	687b      	ldr	r3, [r7, #4]
 8002e50:	681b      	ldr	r3, [r3, #0]
 8002e52:	f422 5200 	bic.w	r2, r2, #8192	; 0x2000
 8002e56:	60da      	str	r2, [r3, #12]
 8002e58:	6878      	ldr	r0, [r7, #4]
 8002e5a:	f000 f9b1 	bl	80031c0 <UART_SetConfig>
 8002e5e:	687b      	ldr	r3, [r7, #4]
 8002e60:	681b      	ldr	r3, [r3, #0]
 8002e62:	691a      	ldr	r2, [r3, #16]
 8002e64:	687b      	ldr	r3, [r7, #4]
 8002e66:	681b      	ldr	r3, [r3, #0]
 8002e68:	f422 4290 	bic.w	r2, r2, #18432	; 0x4800
 8002e6c:	611a      	str	r2, [r3, #16]
 8002e6e:	687b      	ldr	r3, [r7, #4]
 8002e70:	681b      	ldr	r3, [r3, #0]
 8002e72:	695a      	ldr	r2, [r3, #20]
 8002e74:	687b      	ldr	r3, [r7, #4]
 8002e76:	681b      	ldr	r3, [r3, #0]
 8002e78:	f022 022a 	bic.w	r2, r2, #42	; 0x2a
 8002e7c:	615a      	str	r2, [r3, #20]
 8002e7e:	687b      	ldr	r3, [r7, #4]
 8002e80:	681b      	ldr	r3, [r3, #0]
 8002e82:	68da      	ldr	r2, [r3, #12]
 8002e84:	687b      	ldr	r3, [r7, #4]
 8002e86:	681b      	ldr	r3, [r3, #0]
 8002e88:	f442 5200 	orr.w	r2, r2, #8192	; 0x2000
 8002e8c:	60da      	str	r2, [r3, #12]
 8002e8e:	687b      	ldr	r3, [r7, #4]
 8002e90:	2200      	movs	r2, #0
 8002e92:	63da      	str	r2, [r3, #60]	; 0x3c
 8002e94:	687b      	ldr	r3, [r7, #4]
 8002e96:	2220      	movs	r2, #32
 8002e98:	f883 2039 	strb.w	r2, [r3, #57]	; 0x39
 8002e9c:	687b      	ldr	r3, [r7, #4]
 8002e9e:	2220      	movs	r2, #32
 8002ea0:	f883 203a 	strb.w	r2, [r3, #58]	; 0x3a
 8002ea4:	2300      	movs	r3, #0
 8002ea6:	4618      	mov	r0, r3
 8002ea8:	3708      	adds	r7, #8
 8002eaa:	46bd      	mov	sp, r7
 8002eac:	bd80      	pop	{r7, pc}

08002eae <HAL_UART_Transmit>:
 8002eae:	b580      	push	{r7, lr}
 8002eb0:	b088      	sub	sp, #32
 8002eb2:	af02      	add	r7, sp, #8
 8002eb4:	60f8      	str	r0, [r7, #12]
 8002eb6:	60b9      	str	r1, [r7, #8]
 8002eb8:	603b      	str	r3, [r7, #0]
 8002eba:	4613      	mov	r3, r2
 8002ebc:	80fb      	strh	r3, [r7, #6]
 8002ebe:	2300      	movs	r3, #0
 8002ec0:	617b      	str	r3, [r7, #20]
 8002ec2:	68fb      	ldr	r3, [r7, #12]
 8002ec4:	f893 3039 	ldrb.w	r3, [r3, #57]	; 0x39
 8002ec8:	b2db      	uxtb	r3, r3
 8002eca:	2b20      	cmp	r3, #32
 8002ecc:	f040 8083 	bne.w	8002fd6 <HAL_UART_Transmit+0x128>
 8002ed0:	68bb      	ldr	r3, [r7, #8]
 8002ed2:	2b00      	cmp	r3, #0
 8002ed4:	d002      	beq.n	8002edc <HAL_UART_Transmit+0x2e>
 8002ed6:	88fb      	ldrh	r3, [r7, #6]
 8002ed8:	2b00      	cmp	r3, #0
 8002eda:	d101      	bne.n	8002ee0 <HAL_UART_Transmit+0x32>
 8002edc:	2301      	movs	r3, #1
 8002ede:	e07b      	b.n	8002fd8 <HAL_UART_Transmit+0x12a>
 8002ee0:	68fb      	ldr	r3, [r7, #12]
 8002ee2:	f893 3038 	ldrb.w	r3, [r3, #56]	; 0x38
 8002ee6:	2b01      	cmp	r3, #1
 8002ee8:	d101      	bne.n	8002eee <HAL_UART_Transmit+0x40>
 8002eea:	2302      	movs	r3, #2
 8002eec:	e074      	b.n	8002fd8 <HAL_UART_Transmit+0x12a>
 8002eee:	68fb      	ldr	r3, [r7, #12]
 8002ef0:	2201      	movs	r2, #1
 8002ef2:	f883 2038 	strb.w	r2, [r3, #56]	; 0x38
 8002ef6:	68fb      	ldr	r3, [r7, #12]
 8002ef8:	2200      	movs	r2, #0
 8002efa:	63da      	str	r2, [r3, #60]	; 0x3c
 8002efc:	68fb      	ldr	r3, [r7, #12]
 8002efe:	2221      	movs	r2, #33	; 0x21
 8002f00:	f883 2039 	strb.w	r2, [r3, #57]	; 0x39
 8002f04:	f7fe f828 	bl	8000f58 <HAL_GetTick>
 8002f08:	6178      	str	r0, [r7, #20]
 8002f0a:	68fb      	ldr	r3, [r7, #12]
 8002f0c:	88fa      	ldrh	r2, [r7, #6]
 8002f0e:	849a      	strh	r2, [r3, #36]	; 0x24
 8002f10:	68fb      	ldr	r3, [r7, #12]
 8002f12:	88fa      	ldrh	r2, [r7, #6]
 8002f14:	84da      	strh	r2, [r3, #38]	; 0x26
 8002f16:	68fb      	ldr	r3, [r7, #12]
 8002f18:	2200      	movs	r2, #0
 8002f1a:	f883 2038 	strb.w	r2, [r3, #56]	; 0x38
 8002f1e:	e042      	b.n	8002fa6 <HAL_UART_Transmit+0xf8>
 8002f20:	68fb      	ldr	r3, [r7, #12]
 8002f22:	8cdb      	ldrh	r3, [r3, #38]	; 0x26
 8002f24:	b29b      	uxth	r3, r3
 8002f26:	3b01      	subs	r3, #1
 8002f28:	b29a      	uxth	r2, r3
 8002f2a:	68fb      	ldr	r3, [r7, #12]
 8002f2c:	84da      	strh	r2, [r3, #38]	; 0x26
 8002f2e:	68fb      	ldr	r3, [r7, #12]
 8002f30:	689b      	ldr	r3, [r3, #8]
 8002f32:	f5b3 5f80 	cmp.w	r3, #4096	; 0x1000
 8002f36:	d122      	bne.n	8002f7e <HAL_UART_Transmit+0xd0>
 8002f38:	683b      	ldr	r3, [r7, #0]
 8002f3a:	9300      	str	r3, [sp, #0]
 8002f3c:	697b      	ldr	r3, [r7, #20]
 8002f3e:	2200      	movs	r2, #0
 8002f40:	2180      	movs	r1, #128	; 0x80
 8002f42:	68f8      	ldr	r0, [r7, #12]
 8002f44:	f000 f8f2 	bl	800312c <UART_WaitOnFlagUntilTimeout>
 8002f48:	4603      	mov	r3, r0
 8002f4a:	2b00      	cmp	r3, #0
 8002f4c:	d001      	beq.n	8002f52 <HAL_UART_Transmit+0xa4>
 8002f4e:	2303      	movs	r3, #3
 8002f50:	e042      	b.n	8002fd8 <HAL_UART_Transmit+0x12a>
 8002f52:	68bb      	ldr	r3, [r7, #8]
 8002f54:	613b      	str	r3, [r7, #16]
 8002f56:	693b      	ldr	r3, [r7, #16]
 8002f58:	881b      	ldrh	r3, [r3, #0]
 8002f5a:	461a      	mov	r2, r3
 8002f5c:	68fb      	ldr	r3, [r7, #12]
 8002f5e:	681b      	ldr	r3, [r3, #0]
 8002f60:	f3c2 0208 	ubfx	r2, r2, #0, #9
 8002f64:	605a      	str	r2, [r3, #4]
 8002f66:	68fb      	ldr	r3, [r7, #12]
 8002f68:	691b      	ldr	r3, [r3, #16]
 8002f6a:	2b00      	cmp	r3, #0
 8002f6c:	d103      	bne.n	8002f76 <HAL_UART_Transmit+0xc8>
 8002f6e:	68bb      	ldr	r3, [r7, #8]
 8002f70:	3302      	adds	r3, #2
 8002f72:	60bb      	str	r3, [r7, #8]
 8002f74:	e017      	b.n	8002fa6 <HAL_UART_Transmit+0xf8>
 8002f76:	68bb      	ldr	r3, [r7, #8]
 8002f78:	3301      	adds	r3, #1
 8002f7a:	60bb      	str	r3, [r7, #8]
 8002f7c:	e013      	b.n	8002fa6 <HAL_UART_Transmit+0xf8>
 8002f7e:	683b      	ldr	r3, [r7, #0]
 8002f80:	9300      	str	r3, [sp, #0]
 8002f82:	697b      	ldr	r3, [r7, #20]
 8002f84:	2200      	movs	r2, #0
 8002f86:	2180      	movs	r1, #128	; 0x80
 8002f88:	68f8      	ldr	r0, [r7, #12]
 8002f8a:	f000 f8cf 	bl	800312c <UART_WaitOnFlagUntilTimeout>
 8002f8e:	4603      	mov	r3, r0
 8002f90:	2b00      	cmp	r3, #0
 8002f92:	d001      	beq.n	8002f98 <HAL_UART_Transmit+0xea>
 8002f94:	2303      	movs	r3, #3
 8002f96:	e01f      	b.n	8002fd8 <HAL_UART_Transmit+0x12a>
 8002f98:	68bb      	ldr	r3, [r7, #8]
 8002f9a:	1c5a      	adds	r2, r3, #1
 8002f9c:	60ba      	str	r2, [r7, #8]
 8002f9e:	781a      	ldrb	r2, [r3, #0]
 8002fa0:	68fb      	ldr	r3, [r7, #12]
 8002fa2:	681b      	ldr	r3, [r3, #0]
 8002fa4:	605a      	str	r2, [r3, #4]
 8002fa6:	68fb      	ldr	r3, [r7, #12]
 8002fa8:	8cdb      	ldrh	r3, [r3, #38]	; 0x26
 8002faa:	b29b      	uxth	r3, r3
 8002fac:	2b00      	cmp	r3, #0
 8002fae:	d1b7      	bne.n	8002f20 <HAL_UART_Transmit+0x72>
 8002fb0:	683b      	ldr	r3, [r7, #0]
 8002fb2:	9300      	str	r3, [sp, #0]
 8002fb4:	697b      	ldr	r3, [r7, #20]
 8002fb6:	2200      	movs	r2, #0
 8002fb8:	2140      	movs	r1, #64	; 0x40
 8002fba:	68f8      	ldr	r0, [r7, #12]
 8002fbc:	f000 f8b6 	bl	800312c <UART_WaitOnFlagUntilTimeout>
 8002fc0:	4603      	mov	r3, r0
 8002fc2:	2b00      	cmp	r3, #0
 8002fc4:	d001      	beq.n	8002fca <HAL_UART_Transmit+0x11c>
 8002fc6:	2303      	movs	r3, #3
 8002fc8:	e006      	b.n	8002fd8 <HAL_UART_Transmit+0x12a>
 8002fca:	68fb      	ldr	r3, [r7, #12]
 8002fcc:	2220      	movs	r2, #32
 8002fce:	f883 2039 	strb.w	r2, [r3, #57]	; 0x39
 8002fd2:	2300      	movs	r3, #0
 8002fd4:	e000      	b.n	8002fd8 <HAL_UART_Transmit+0x12a>
 8002fd6:	2302      	movs	r3, #2
 8002fd8:	4618      	mov	r0, r3
 8002fda:	3718      	adds	r7, #24
 8002fdc:	46bd      	mov	sp, r7
 8002fde:	bd80      	pop	{r7, pc}

08002fe0 <HAL_UART_Receive>:
 8002fe0:	b580      	push	{r7, lr}
 8002fe2:	b088      	sub	sp, #32
 8002fe4:	af02      	add	r7, sp, #8
 8002fe6:	60f8      	str	r0, [r7, #12]
 8002fe8:	60b9      	str	r1, [r7, #8]
 8002fea:	603b      	str	r3, [r7, #0]
 8002fec:	4613      	mov	r3, r2
 8002fee:	80fb      	strh	r3, [r7, #6]
 8002ff0:	2300      	movs	r3, #0
 8002ff2:	617b      	str	r3, [r7, #20]
 8002ff4:	68fb      	ldr	r3, [r7, #12]
 8002ff6:	f893 303a 	ldrb.w	r3, [r3, #58]	; 0x3a
 8002ffa:	b2db      	uxtb	r3, r3
 8002ffc:	2b20      	cmp	r3, #32
 8002ffe:	f040 8090 	bne.w	8003122 <HAL_UART_Receive+0x142>
 8003002:	68bb      	ldr	r3, [r7, #8]
 8003004:	2b00      	cmp	r3, #0
 8003006:	d002      	beq.n	800300e <HAL_UART_Receive+0x2e>
 8003008:	88fb      	ldrh	r3, [r7, #6]
 800300a:	2b00      	cmp	r3, #0
 800300c:	d101      	bne.n	8003012 <HAL_UART_Receive+0x32>
 800300e:	2301      	movs	r3, #1
 8003010:	e088      	b.n	8003124 <HAL_UART_Receive+0x144>
 8003012:	68fb      	ldr	r3, [r7, #12]
 8003014:	f893 3038 	ldrb.w	r3, [r3, #56]	; 0x38
 8003018:	2b01      	cmp	r3, #1
 800301a:	d101      	bne.n	8003020 <HAL_UART_Receive+0x40>
 800301c:	2302      	movs	r3, #2
 800301e:	e081      	b.n	8003124 <HAL_UART_Receive+0x144>
 8003020:	68fb      	ldr	r3, [r7, #12]
 8003022:	2201      	movs	r2, #1
 8003024:	f883 2038 	strb.w	r2, [r3, #56]	; 0x38
 8003028:	68fb      	ldr	r3, [r7, #12]
 800302a:	2200      	movs	r2, #0
 800302c:	63da      	str	r2, [r3, #60]	; 0x3c
 800302e:	68fb      	ldr	r3, [r7, #12]
 8003030:	2222      	movs	r2, #34	; 0x22
 8003032:	f883 203a 	strb.w	r2, [r3, #58]	; 0x3a
 8003036:	f7fd ff8f 	bl	8000f58 <HAL_GetTick>
 800303a:	6178      	str	r0, [r7, #20]
 800303c:	68fb      	ldr	r3, [r7, #12]
 800303e:	88fa      	ldrh	r2, [r7, #6]
 8003040:	859a      	strh	r2, [r3, #44]	; 0x2c
 8003042:	68fb      	ldr	r3, [r7, #12]
 8003044:	88fa      	ldrh	r2, [r7, #6]
 8003046:	85da      	strh	r2, [r3, #46]	; 0x2e
 8003048:	68fb      	ldr	r3, [r7, #12]
 800304a:	2200      	movs	r2, #0
 800304c:	f883 2038 	strb.w	r2, [r3, #56]	; 0x38
 8003050:	e05c      	b.n	800310c <HAL_UART_Receive+0x12c>
 8003052:	68fb      	ldr	r3, [r7, #12]
 8003054:	8ddb      	ldrh	r3, [r3, #46]	; 0x2e
 8003056:	b29b      	uxth	r3, r3
 8003058:	3b01      	subs	r3, #1
 800305a:	b29a      	uxth	r2, r3
 800305c:	68fb      	ldr	r3, [r7, #12]
 800305e:	85da      	strh	r2, [r3, #46]	; 0x2e
 8003060:	68fb      	ldr	r3, [r7, #12]
 8003062:	689b      	ldr	r3, [r3, #8]
 8003064:	f5b3 5f80 	cmp.w	r3, #4096	; 0x1000
 8003068:	d12b      	bne.n	80030c2 <HAL_UART_Receive+0xe2>
 800306a:	683b      	ldr	r3, [r7, #0]
 800306c:	9300      	str	r3, [sp, #0]
 800306e:	697b      	ldr	r3, [r7, #20]
 8003070:	2200      	movs	r2, #0
 8003072:	2120      	movs	r1, #32
 8003074:	68f8      	ldr	r0, [r7, #12]
 8003076:	f000 f859 	bl	800312c <UART_WaitOnFlagUntilTimeout>
 800307a:	4603      	mov	r3, r0
 800307c:	2b00      	cmp	r3, #0
 800307e:	d001      	beq.n	8003084 <HAL_UART_Receive+0xa4>
 8003080:	2303      	movs	r3, #3
 8003082:	e04f      	b.n	8003124 <HAL_UART_Receive+0x144>
 8003084:	68bb      	ldr	r3, [r7, #8]
 8003086:	613b      	str	r3, [r7, #16]
 8003088:	68fb      	ldr	r3, [r7, #12]
 800308a:	691b      	ldr	r3, [r3, #16]
 800308c:	2b00      	cmp	r3, #0
 800308e:	d10c      	bne.n	80030aa <HAL_UART_Receive+0xca>
 8003090:	68fb      	ldr	r3, [r7, #12]
 8003092:	681b      	ldr	r3, [r3, #0]
 8003094:	685b      	ldr	r3, [r3, #4]
 8003096:	b29b      	uxth	r3, r3
 8003098:	f3c3 0308 	ubfx	r3, r3, #0, #9
 800309c:	b29a      	uxth	r2, r3
 800309e:	693b      	ldr	r3, [r7, #16]
 80030a0:	801a      	strh	r2, [r3, #0]
 80030a2:	68bb      	ldr	r3, [r7, #8]
 80030a4:	3302      	adds	r3, #2
 80030a6:	60bb      	str	r3, [r7, #8]
 80030a8:	e030      	b.n	800310c <HAL_UART_Receive+0x12c>
 80030aa:	68fb      	ldr	r3, [r7, #12]
 80030ac:	681b      	ldr	r3, [r3, #0]
 80030ae:	685b      	ldr	r3, [r3, #4]
 80030b0:	b29b      	uxth	r3, r3
 80030b2:	b2db      	uxtb	r3, r3
 80030b4:	b29a      	uxth	r2, r3
 80030b6:	693b      	ldr	r3, [r7, #16]
 80030b8:	801a      	strh	r2, [r3, #0]
 80030ba:	68bb      	ldr	r3, [r7, #8]
 80030bc:	3301      	adds	r3, #1
 80030be:	60bb      	str	r3, [r7, #8]
 80030c0:	e024      	b.n	800310c <HAL_UART_Receive+0x12c>
 80030c2:	683b      	ldr	r3, [r7, #0]
 80030c4:	9300      	str	r3, [sp, #0]
 80030c6:	697b      	ldr	r3, [r7, #20]
 80030c8:	2200      	movs	r2, #0
 80030ca:	2120      	movs	r1, #32
 80030cc:	68f8      	ldr	r0, [r7, #12]
 80030ce:	f000 f82d 	bl	800312c <UART_WaitOnFlagUntilTimeout>
 80030d2:	4603      	mov	r3, r0
 80030d4:	2b00      	cmp	r3, #0
 80030d6:	d001      	beq.n	80030dc <HAL_UART_Receive+0xfc>
 80030d8:	2303      	movs	r3, #3
 80030da:	e023      	b.n	8003124 <HAL_UART_Receive+0x144>
 80030dc:	68fb      	ldr	r3, [r7, #12]
 80030de:	691b      	ldr	r3, [r3, #16]
 80030e0:	2b00      	cmp	r3, #0
 80030e2:	d108      	bne.n	80030f6 <HAL_UART_Receive+0x116>
 80030e4:	68fb      	ldr	r3, [r7, #12]
 80030e6:	681b      	ldr	r3, [r3, #0]
 80030e8:	6859      	ldr	r1, [r3, #4]
 80030ea:	68bb      	ldr	r3, [r7, #8]
 80030ec:	1c5a      	adds	r2, r3, #1
 80030ee:	60ba      	str	r2, [r7, #8]
 80030f0:	b2ca      	uxtb	r2, r1
 80030f2:	701a      	strb	r2, [r3, #0]
 80030f4:	e00a      	b.n	800310c <HAL_UART_Receive+0x12c>
 80030f6:	68fb      	ldr	r3, [r7, #12]
 80030f8:	681b      	ldr	r3, [r3, #0]
 80030fa:	685b      	ldr	r3, [r3, #4]
 80030fc:	b2da      	uxtb	r2, r3
 80030fe:	68bb      	ldr	r3, [r7, #8]
 8003100:	1c59      	adds	r1, r3, #1
 8003102:	60b9      	str	r1, [r7, #8]
 8003104:	f002 027f 	and.w	r2, r2, #127	; 0x7f
 8003108:	b2d2      	uxtb	r2, r2
 800310a:	701a      	strb	r2, [r3, #0]
 800310c:	68fb      	ldr	r3, [r7, #12]
 800310e:	8ddb      	ldrh	r3, [r3, #46]	; 0x2e
 8003110:	b29b      	uxth	r3, r3
 8003112:	2b00      	cmp	r3, #0
 8003114:	d19d      	bne.n	8003052 <HAL_UART_Receive+0x72>
 8003116:	68fb      	ldr	r3, [r7, #12]
 8003118:	2220      	movs	r2, #32
 800311a:	f883 203a 	strb.w	r2, [r3, #58]	; 0x3a
 800311e:	2300      	movs	r3, #0
 8003120:	e000      	b.n	8003124 <HAL_UART_Receive+0x144>
 8003122:	2302      	movs	r3, #2
 8003124:	4618      	mov	r0, r3
 8003126:	3718      	adds	r7, #24
 8003128:	46bd      	mov	sp, r7
 800312a:	bd80      	pop	{r7, pc}

0800312c <UART_WaitOnFlagUntilTimeout>:
 800312c:	b580      	push	{r7, lr}
 800312e:	b084      	sub	sp, #16
 8003130:	af00      	add	r7, sp, #0
 8003132:	60f8      	str	r0, [r7, #12]
 8003134:	60b9      	str	r1, [r7, #8]
 8003136:	603b      	str	r3, [r7, #0]
 8003138:	4613      	mov	r3, r2
 800313a:	71fb      	strb	r3, [r7, #7]
 800313c:	e02c      	b.n	8003198 <UART_WaitOnFlagUntilTimeout+0x6c>
 800313e:	69bb      	ldr	r3, [r7, #24]
 8003140:	f1b3 3fff 	cmp.w	r3, #4294967295
 8003144:	d028      	beq.n	8003198 <UART_WaitOnFlagUntilTimeout+0x6c>
 8003146:	69bb      	ldr	r3, [r7, #24]
 8003148:	2b00      	cmp	r3, #0
 800314a:	d007      	beq.n	800315c <UART_WaitOnFlagUntilTimeout+0x30>
 800314c:	f7fd ff04 	bl	8000f58 <HAL_GetTick>
 8003150:	4602      	mov	r2, r0
 8003152:	683b      	ldr	r3, [r7, #0]
 8003154:	1ad3      	subs	r3, r2, r3
 8003156:	69ba      	ldr	r2, [r7, #24]
 8003158:	429a      	cmp	r2, r3
 800315a:	d21d      	bcs.n	8003198 <UART_WaitOnFlagUntilTimeout+0x6c>
 800315c:	68fb      	ldr	r3, [r7, #12]
 800315e:	681b      	ldr	r3, [r3, #0]
 8003160:	68da      	ldr	r2, [r3, #12]
 8003162:	68fb      	ldr	r3, [r7, #12]
 8003164:	681b      	ldr	r3, [r3, #0]
 8003166:	f422 72d0 	bic.w	r2, r2, #416	; 0x1a0
 800316a:	60da      	str	r2, [r3, #12]
 800316c:	68fb      	ldr	r3, [r7, #12]
 800316e:	681b      	ldr	r3, [r3, #0]
 8003170:	695a      	ldr	r2, [r3, #20]
 8003172:	68fb      	ldr	r3, [r7, #12]
 8003174:	681b      	ldr	r3, [r3, #0]
 8003176:	f022 0201 	bic.w	r2, r2, #1
 800317a:	615a      	str	r2, [r3, #20]
 800317c:	68fb      	ldr	r3, [r7, #12]
 800317e:	2220      	movs	r2, #32
 8003180:	f883 2039 	strb.w	r2, [r3, #57]	; 0x39
 8003184:	68fb      	ldr	r3, [r7, #12]
 8003186:	2220      	movs	r2, #32
 8003188:	f883 203a 	strb.w	r2, [r3, #58]	; 0x3a
 800318c:	68fb      	ldr	r3, [r7, #12]
 800318e:	2200      	movs	r2, #0
 8003190:	f883 2038 	strb.w	r2, [r3, #56]	; 0x38
 8003194:	2303      	movs	r3, #3
 8003196:	e00f      	b.n	80031b8 <UART_WaitOnFlagUntilTimeout+0x8c>
 8003198:	68fb      	ldr	r3, [r7, #12]
 800319a:	681b      	ldr	r3, [r3, #0]
 800319c:	681a      	ldr	r2, [r3, #0]
 800319e:	68bb      	ldr	r3, [r7, #8]
 80031a0:	4013      	ands	r3, r2
 80031a2:	68ba      	ldr	r2, [r7, #8]
 80031a4:	429a      	cmp	r2, r3
 80031a6:	bf0c      	ite	eq
 80031a8:	2301      	moveq	r3, #1
 80031aa:	2300      	movne	r3, #0
 80031ac:	b2db      	uxtb	r3, r3
 80031ae:	461a      	mov	r2, r3
 80031b0:	79fb      	ldrb	r3, [r7, #7]
 80031b2:	429a      	cmp	r2, r3
 80031b4:	d0c3      	beq.n	800313e <UART_WaitOnFlagUntilTimeout+0x12>
 80031b6:	2300      	movs	r3, #0
 80031b8:	4618      	mov	r0, r3
 80031ba:	3710      	adds	r7, #16
 80031bc:	46bd      	mov	sp, r7
 80031be:	bd80      	pop	{r7, pc}

080031c0 <UART_SetConfig>:
 80031c0:	e92d 4ff0 	stmdb	sp!, {r4, r5, r6, r7, r8, r9, sl, fp, lr}
 80031c4:	b085      	sub	sp, #20
 80031c6:	af00      	add	r7, sp, #0
 80031c8:	6078      	str	r0, [r7, #4]
 80031ca:	687b      	ldr	r3, [r7, #4]
 80031cc:	681b      	ldr	r3, [r3, #0]
 80031ce:	691b      	ldr	r3, [r3, #16]
 80031d0:	f423 5140 	bic.w	r1, r3, #12288	; 0x3000
 80031d4:	687b      	ldr	r3, [r7, #4]
 80031d6:	68da      	ldr	r2, [r3, #12]
 80031d8:	687b      	ldr	r3, [r7, #4]
 80031da:	681b      	ldr	r3, [r3, #0]
 80031dc:	430a      	orrs	r2, r1
 80031de:	611a      	str	r2, [r3, #16]
 80031e0:	687b      	ldr	r3, [r7, #4]
 80031e2:	689a      	ldr	r2, [r3, #8]
 80031e4:	687b      	ldr	r3, [r7, #4]
 80031e6:	691b      	ldr	r3, [r3, #16]
 80031e8:	431a      	orrs	r2, r3
 80031ea:	687b      	ldr	r3, [r7, #4]
 80031ec:	695b      	ldr	r3, [r3, #20]
 80031ee:	431a      	orrs	r2, r3
 80031f0:	687b      	ldr	r3, [r7, #4]
 80031f2:	69db      	ldr	r3, [r3, #28]
 80031f4:	4313      	orrs	r3, r2
 80031f6:	60fb      	str	r3, [r7, #12]
 80031f8:	687b      	ldr	r3, [r7, #4]
 80031fa:	681b      	ldr	r3, [r3, #0]
 80031fc:	68db      	ldr	r3, [r3, #12]
 80031fe:	f423 4316 	bic.w	r3, r3, #38400	; 0x9600
 8003202:	f023 030c 	bic.w	r3, r3, #12
 8003206:	687a      	ldr	r2, [r7, #4]
 8003208:	6812      	ldr	r2, [r2, #0]
 800320a:	68f9      	ldr	r1, [r7, #12]
 800320c:	430b      	orrs	r3, r1
 800320e:	60d3      	str	r3, [r2, #12]
 8003210:	687b      	ldr	r3, [r7, #4]
 8003212:	681b      	ldr	r3, [r3, #0]
 8003214:	695b      	ldr	r3, [r3, #20]
 8003216:	f423 7140 	bic.w	r1, r3, #768	; 0x300
 800321a:	687b      	ldr	r3, [r7, #4]
 800321c:	699a      	ldr	r2, [r3, #24]
 800321e:	687b      	ldr	r3, [r7, #4]
 8003220:	681b      	ldr	r3, [r3, #0]
 8003222:	430a      	orrs	r2, r1
 8003224:	615a      	str	r2, [r3, #20]
 8003226:	687b      	ldr	r3, [r7, #4]
 8003228:	69db      	ldr	r3, [r3, #28]
 800322a:	f5b3 4f00 	cmp.w	r3, #32768	; 0x8000
 800322e:	f040 818b 	bne.w	8003548 <UART_SetConfig+0x388>
 8003232:	687b      	ldr	r3, [r7, #4]
 8003234:	681b      	ldr	r3, [r3, #0]
 8003236:	4ac1      	ldr	r2, [pc, #772]	; (800353c <UART_SetConfig+0x37c>)
 8003238:	4293      	cmp	r3, r2
 800323a:	d005      	beq.n	8003248 <UART_SetConfig+0x88>
 800323c:	687b      	ldr	r3, [r7, #4]
 800323e:	681b      	ldr	r3, [r3, #0]
 8003240:	4abf      	ldr	r2, [pc, #764]	; (8003540 <UART_SetConfig+0x380>)
 8003242:	4293      	cmp	r3, r2
 8003244:	f040 80bd 	bne.w	80033c2 <UART_SetConfig+0x202>
 8003248:	f7ff f9d6 	bl	80025f8 <HAL_RCC_GetPCLK2Freq>
 800324c:	60b8      	str	r0, [r7, #8]
 800324e:	68bb      	ldr	r3, [r7, #8]
 8003250:	461d      	mov	r5, r3
 8003252:	f04f 0600 	mov.w	r6, #0
 8003256:	46a8      	mov	r8, r5
 8003258:	46b1      	mov	r9, r6
 800325a:	eb18 0308 	adds.w	r3, r8, r8
 800325e:	eb49 0409 	adc.w	r4, r9, r9
 8003262:	4698      	mov	r8, r3
 8003264:	46a1      	mov	r9, r4
 8003266:	eb18 0805 	adds.w	r8, r8, r5
 800326a:	eb49 0906 	adc.w	r9, r9, r6
 800326e:	f04f 0100 	mov.w	r1, #0
 8003272:	f04f 0200 	mov.w	r2, #0
 8003276:	ea4f 02c9 	mov.w	r2, r9, lsl #3
 800327a:	ea42 7258 	orr.w	r2, r2, r8, lsr #29
 800327e:	ea4f 01c8 	mov.w	r1, r8, lsl #3
 8003282:	4688      	mov	r8, r1
 8003284:	4691      	mov	r9, r2
 8003286:	eb18 0005 	adds.w	r0, r8, r5
 800328a:	eb49 0106 	adc.w	r1, r9, r6
 800328e:	687b      	ldr	r3, [r7, #4]
 8003290:	685b      	ldr	r3, [r3, #4]
 8003292:	461d      	mov	r5, r3
 8003294:	f04f 0600 	mov.w	r6, #0
 8003298:	196b      	adds	r3, r5, r5
 800329a:	eb46 0406 	adc.w	r4, r6, r6
 800329e:	461a      	mov	r2, r3
 80032a0:	4623      	mov	r3, r4
 80032a2:	f7fd f805 	bl	80002b0 <__aeabi_uldivmod>
 80032a6:	4603      	mov	r3, r0
 80032a8:	460c      	mov	r4, r1
 80032aa:	461a      	mov	r2, r3
 80032ac:	4ba5      	ldr	r3, [pc, #660]	; (8003544 <UART_SetConfig+0x384>)
 80032ae:	fba3 2302 	umull	r2, r3, r3, r2
 80032b2:	095b      	lsrs	r3, r3, #5
 80032b4:	ea4f 1803 	mov.w	r8, r3, lsl #4
 80032b8:	68bb      	ldr	r3, [r7, #8]
 80032ba:	461d      	mov	r5, r3
 80032bc:	f04f 0600 	mov.w	r6, #0
 80032c0:	46a9      	mov	r9, r5
 80032c2:	46b2      	mov	sl, r6
 80032c4:	eb19 0309 	adds.w	r3, r9, r9
 80032c8:	eb4a 040a 	adc.w	r4, sl, sl
 80032cc:	4699      	mov	r9, r3
 80032ce:	46a2      	mov	sl, r4
 80032d0:	eb19 0905 	adds.w	r9, r9, r5
 80032d4:	eb4a 0a06 	adc.w	sl, sl, r6
 80032d8:	f04f 0100 	mov.w	r1, #0
 80032dc:	f04f 0200 	mov.w	r2, #0
 80032e0:	ea4f 02ca 	mov.w	r2, sl, lsl #3
 80032e4:	ea42 7259 	orr.w	r2, r2, r9, lsr #29
 80032e8:	ea4f 01c9 	mov.w	r1, r9, lsl #3
 80032ec:	4689      	mov	r9, r1
 80032ee:	4692      	mov	sl, r2
 80032f0:	eb19 0005 	adds.w	r0, r9, r5
 80032f4:	eb4a 0106 	adc.w	r1, sl, r6
 80032f8:	687b      	ldr	r3, [r7, #4]
 80032fa:	685b      	ldr	r3, [r3, #4]
 80032fc:	461d      	mov	r5, r3
 80032fe:	f04f 0600 	mov.w	r6, #0
 8003302:	196b      	adds	r3, r5, r5
 8003304:	eb46 0406 	adc.w	r4, r6, r6
 8003308:	461a      	mov	r2, r3
 800330a:	4623      	mov	r3, r4
 800330c:	f7fc ffd0 	bl	80002b0 <__aeabi_uldivmod>
 8003310:	4603      	mov	r3, r0
 8003312:	460c      	mov	r4, r1
 8003314:	461a      	mov	r2, r3
 8003316:	4b8b      	ldr	r3, [pc, #556]	; (8003544 <UART_SetConfig+0x384>)
 8003318:	fba3 1302 	umull	r1, r3, r3, r2
 800331c:	095b      	lsrs	r3, r3, #5
 800331e:	2164      	movs	r1, #100	; 0x64
 8003320:	fb01 f303 	mul.w	r3, r1, r3
 8003324:	1ad3      	subs	r3, r2, r3
 8003326:	00db      	lsls	r3, r3, #3
 8003328:	3332      	adds	r3, #50	; 0x32
 800332a:	4a86      	ldr	r2, [pc, #536]	; (8003544 <UART_SetConfig+0x384>)
 800332c:	fba2 2303 	umull	r2, r3, r2, r3
 8003330:	095b      	lsrs	r3, r3, #5
 8003332:	005b      	lsls	r3, r3, #1
 8003334:	f403 73f8 	and.w	r3, r3, #496	; 0x1f0
 8003338:	4498      	add	r8, r3
 800333a:	68bb      	ldr	r3, [r7, #8]
 800333c:	461d      	mov	r5, r3
 800333e:	f04f 0600 	mov.w	r6, #0
 8003342:	46a9      	mov	r9, r5
 8003344:	46b2      	mov	sl, r6
 8003346:	eb19 0309 	adds.w	r3, r9, r9
 800334a:	eb4a 040a 	adc.w	r4, sl, sl
 800334e:	4699      	mov	r9, r3
 8003350:	46a2      	mov	sl, r4
 8003352:	eb19 0905 	adds.w	r9, r9, r5
 8003356:	eb4a 0a06 	adc.w	sl, sl, r6
 800335a:	f04f 0100 	mov.w	r1, #0
 800335e:	f04f 0200 	mov.w	r2, #0
 8003362:	ea4f 02ca 	mov.w	r2, sl, lsl #3
 8003366:	ea42 7259 	orr.w	r2, r2, r9, lsr #29
 800336a:	ea4f 01c9 	mov.w	r1, r9, lsl #3
 800336e:	4689      	mov	r9, r1
 8003370:	4692      	mov	sl, r2
 8003372:	eb19 0005 	adds.w	r0, r9, r5
 8003376:	eb4a 0106 	adc.w	r1, sl, r6
 800337a:	687b      	ldr	r3, [r7, #4]
 800337c:	685b      	ldr	r3, [r3, #4]
 800337e:	461d      	mov	r5, r3
 8003380:	f04f 0600 	mov.w	r6, #0
 8003384:	196b      	adds	r3, r5, r5
 8003386:	eb46 0406 	adc.w	r4, r6, r6
 800338a:	461a      	mov	r2, r3
 800338c:	4623      	mov	r3, r4
 800338e:	f7fc ff8f 	bl	80002b0 <__aeabi_uldivmod>
 8003392:	4603      	mov	r3, r0
 8003394:	460c      	mov	r4, r1
 8003396:	461a      	mov	r2, r3
 8003398:	4b6a      	ldr	r3, [pc, #424]	; (8003544 <UART_SetConfig+0x384>)
 800339a:	fba3 1302 	umull	r1, r3, r3, r2
 800339e:	095b      	lsrs	r3, r3, #5
 80033a0:	2164      	movs	r1, #100	; 0x64
 80033a2:	fb01 f303 	mul.w	r3, r1, r3
 80033a6:	1ad3      	subs	r3, r2, r3
 80033a8:	00db      	lsls	r3, r3, #3
 80033aa:	3332      	adds	r3, #50	; 0x32
 80033ac:	4a65      	ldr	r2, [pc, #404]	; (8003544 <UART_SetConfig+0x384>)
 80033ae:	fba2 2303 	umull	r2, r3, r2, r3
 80033b2:	095b      	lsrs	r3, r3, #5
 80033b4:	f003 0207 	and.w	r2, r3, #7
 80033b8:	687b      	ldr	r3, [r7, #4]
 80033ba:	681b      	ldr	r3, [r3, #0]
 80033bc:	4442      	add	r2, r8
 80033be:	609a      	str	r2, [r3, #8]
 80033c0:	e26f      	b.n	80038a2 <UART_SetConfig+0x6e2>
 80033c2:	f7ff f905 	bl	80025d0 <HAL_RCC_GetPCLK1Freq>
 80033c6:	60b8      	str	r0, [r7, #8]
 80033c8:	68bb      	ldr	r3, [r7, #8]
 80033ca:	461d      	mov	r5, r3
 80033cc:	f04f 0600 	mov.w	r6, #0
 80033d0:	46a8      	mov	r8, r5
 80033d2:	46b1      	mov	r9, r6
 80033d4:	eb18 0308 	adds.w	r3, r8, r8
 80033d8:	eb49 0409 	adc.w	r4, r9, r9
 80033dc:	4698      	mov	r8, r3
 80033de:	46a1      	mov	r9, r4
 80033e0:	eb18 0805 	adds.w	r8, r8, r5
 80033e4:	eb49 0906 	adc.w	r9, r9, r6
 80033e8:	f04f 0100 	mov.w	r1, #0
 80033ec:	f04f 0200 	mov.w	r2, #0
 80033f0:	ea4f 02c9 	mov.w	r2, r9, lsl #3
 80033f4:	ea42 7258 	orr.w	r2, r2, r8, lsr #29
 80033f8:	ea4f 01c8 	mov.w	r1, r8, lsl #3
 80033fc:	4688      	mov	r8, r1
 80033fe:	4691      	mov	r9, r2
 8003400:	eb18 0005 	adds.w	r0, r8, r5
 8003404:	eb49 0106 	adc.w	r1, r9, r6
 8003408:	687b      	ldr	r3, [r7, #4]
 800340a:	685b      	ldr	r3, [r3, #4]
 800340c:	461d      	mov	r5, r3
 800340e:	f04f 0600 	mov.w	r6, #0
 8003412:	196b      	adds	r3, r5, r5
 8003414:	eb46 0406 	adc.w	r4, r6, r6
 8003418:	461a      	mov	r2, r3
 800341a:	4623      	mov	r3, r4
 800341c:	f7fc ff48 	bl	80002b0 <__aeabi_uldivmod>
 8003420:	4603      	mov	r3, r0
 8003422:	460c      	mov	r4, r1
 8003424:	461a      	mov	r2, r3
 8003426:	4b47      	ldr	r3, [pc, #284]	; (8003544 <UART_SetConfig+0x384>)
 8003428:	fba3 2302 	umull	r2, r3, r3, r2
 800342c:	095b      	lsrs	r3, r3, #5
 800342e:	ea4f 1803 	mov.w	r8, r3, lsl #4
 8003432:	68bb      	ldr	r3, [r7, #8]
 8003434:	461d      	mov	r5, r3
 8003436:	f04f 0600 	mov.w	r6, #0
 800343a:	46a9      	mov	r9, r5
 800343c:	46b2      	mov	sl, r6
 800343e:	eb19 0309 	adds.w	r3, r9, r9
 8003442:	eb4a 040a 	adc.w	r4, sl, sl
 8003446:	4699      	mov	r9, r3
 8003448:	46a2      	mov	sl, r4
 800344a:	eb19 0905 	adds.w	r9, r9, r5
 800344e:	eb4a 0a06 	adc.w	sl, sl, r6
 8003452:	f04f 0100 	mov.w	r1, #0
 8003456:	f04f 0200 	mov.w	r2, #0
 800345a:	ea4f 02ca 	mov.w	r2, sl, lsl #3
 800345e:	ea42 7259 	orr.w	r2, r2, r9, lsr #29
 8003462:	ea4f 01c9 	mov.w	r1, r9, lsl #3
 8003466:	4689      	mov	r9, r1
 8003468:	4692      	mov	sl, r2
 800346a:	eb19 0005 	adds.w	r0, r9, r5
 800346e:	eb4a 0106 	adc.w	r1, sl, r6
 8003472:	687b      	ldr	r3, [r7, #4]
 8003474:	685b      	ldr	r3, [r3, #4]
 8003476:	461d      	mov	r5, r3
 8003478:	f04f 0600 	mov.w	r6, #0
 800347c:	196b      	adds	r3, r5, r5
 800347e:	eb46 0406 	adc.w	r4, r6, r6
 8003482:	461a      	mov	r2, r3
 8003484:	4623      	mov	r3, r4
 8003486:	f7fc ff13 	bl	80002b0 <__aeabi_uldivmod>
 800348a:	4603      	mov	r3, r0
 800348c:	460c      	mov	r4, r1
 800348e:	461a      	mov	r2, r3
 8003490:	4b2c      	ldr	r3, [pc, #176]	; (8003544 <UART_SetConfig+0x384>)
 8003492:	fba3 1302 	umull	r1, r3, r3, r2
 8003496:	095b      	lsrs	r3, r3, #5
 8003498:	2164      	movs	r1, #100	; 0x64
 800349a:	fb01 f303 	mul.w	r3, r1, r3
 800349e:	1ad3      	subs	r3, r2, r3
 80034a0:	00db      	lsls	r3, r3, #3
 80034a2:	3332      	adds	r3, #50	; 0x32
 80034a4:	4a27      	ldr	r2, [pc, #156]	; (8003544 <UART_SetConfig+0x384>)
 80034a6:	fba2 2303 	umull	r2, r3, r2, r3
 80034aa:	095b      	lsrs	r3, r3, #5
 80034ac:	005b      	lsls	r3, r3, #1
 80034ae:	f403 73f8 	and.w	r3, r3, #496	; 0x1f0
 80034b2:	4498      	add	r8, r3
 80034b4:	68bb      	ldr	r3, [r7, #8]
 80034b6:	461d      	mov	r5, r3
 80034b8:	f04f 0600 	mov.w	r6, #0
 80034bc:	46a9      	mov	r9, r5
 80034be:	46b2      	mov	sl, r6
 80034c0:	eb19 0309 	adds.w	r3, r9, r9
 80034c4:	eb4a 040a 	adc.w	r4, sl, sl
 80034c8:	4699      	mov	r9, r3
 80034ca:	46a2      	mov	sl, r4
 80034cc:	eb19 0905 	adds.w	r9, r9, r5
 80034d0:	eb4a 0a06 	adc.w	sl, sl, r6
 80034d4:	f04f 0100 	mov.w	r1, #0
 80034d8:	f04f 0200 	mov.w	r2, #0
 80034dc:	ea4f 02ca 	mov.w	r2, sl, lsl #3
 80034e0:	ea42 7259 	orr.w	r2, r2, r9, lsr #29
 80034e4:	ea4f 01c9 	mov.w	r1, r9, lsl #3
 80034e8:	4689      	mov	r9, r1
 80034ea:	4692      	mov	sl, r2
 80034ec:	eb19 0005 	adds.w	r0, r9, r5
 80034f0:	eb4a 0106 	adc.w	r1, sl, r6
 80034f4:	687b      	ldr	r3, [r7, #4]
 80034f6:	685b      	ldr	r3, [r3, #4]
 80034f8:	461d      	mov	r5, r3
 80034fa:	f04f 0600 	mov.w	r6, #0
 80034fe:	196b      	adds	r3, r5, r5
 8003500:	eb46 0406 	adc.w	r4, r6, r6
 8003504:	461a      	mov	r2, r3
 8003506:	4623      	mov	r3, r4
 8003508:	f7fc fed2 	bl	80002b0 <__aeabi_uldivmod>
 800350c:	4603      	mov	r3, r0
 800350e:	460c      	mov	r4, r1
 8003510:	461a      	mov	r2, r3
 8003512:	4b0c      	ldr	r3, [pc, #48]	; (8003544 <UART_SetConfig+0x384>)
 8003514:	fba3 1302 	umull	r1, r3, r3, r2
 8003518:	095b      	lsrs	r3, r3, #5
 800351a:	2164      	movs	r1, #100	; 0x64
 800351c:	fb01 f303 	mul.w	r3, r1, r3
 8003520:	1ad3      	subs	r3, r2, r3
 8003522:	00db      	lsls	r3, r3, #3
 8003524:	3332      	adds	r3, #50	; 0x32
 8003526:	4a07      	ldr	r2, [pc, #28]	; (8003544 <UART_SetConfig+0x384>)
 8003528:	fba2 2303 	umull	r2, r3, r2, r3
 800352c:	095b      	lsrs	r3, r3, #5
 800352e:	f003 0207 	and.w	r2, r3, #7
 8003532:	687b      	ldr	r3, [r7, #4]
 8003534:	681b      	ldr	r3, [r3, #0]
 8003536:	4442      	add	r2, r8
 8003538:	609a      	str	r2, [r3, #8]
 800353a:	e1b2      	b.n	80038a2 <UART_SetConfig+0x6e2>
 800353c:	40011000 	.word	0x40011000
 8003540:	40011400 	.word	0x40011400
 8003544:	51eb851f 	.word	0x51eb851f
 8003548:	687b      	ldr	r3, [r7, #4]
 800354a:	681b      	ldr	r3, [r3, #0]
 800354c:	4ad7      	ldr	r2, [pc, #860]	; (80038ac <UART_SetConfig+0x6ec>)
 800354e:	4293      	cmp	r3, r2
 8003550:	d005      	beq.n	800355e <UART_SetConfig+0x39e>
 8003552:	687b      	ldr	r3, [r7, #4]
 8003554:	681b      	ldr	r3, [r3, #0]
 8003556:	4ad6      	ldr	r2, [pc, #856]	; (80038b0 <UART_SetConfig+0x6f0>)
 8003558:	4293      	cmp	r3, r2
 800355a:	f040 80d1 	bne.w	8003700 <UART_SetConfig+0x540>
 800355e:	f7ff f84b 	bl	80025f8 <HAL_RCC_GetPCLK2Freq>
 8003562:	60b8      	str	r0, [r7, #8]
 8003564:	68bb      	ldr	r3, [r7, #8]
 8003566:	469a      	mov	sl, r3
 8003568:	f04f 0b00 	mov.w	fp, #0
 800356c:	46d0      	mov	r8, sl
 800356e:	46d9      	mov	r9, fp
 8003570:	eb18 0308 	adds.w	r3, r8, r8
 8003574:	eb49 0409 	adc.w	r4, r9, r9
 8003578:	4698      	mov	r8, r3
 800357a:	46a1      	mov	r9, r4
 800357c:	eb18 080a 	adds.w	r8, r8, sl
 8003580:	eb49 090b 	adc.w	r9, r9, fp
 8003584:	f04f 0100 	mov.w	r1, #0
 8003588:	f04f 0200 	mov.w	r2, #0
 800358c:	ea4f 02c9 	mov.w	r2, r9, lsl #3
 8003590:	ea42 7258 	orr.w	r2, r2, r8, lsr #29
 8003594:	ea4f 01c8 	mov.w	r1, r8, lsl #3
 8003598:	4688      	mov	r8, r1
 800359a:	4691      	mov	r9, r2
 800359c:	eb1a 0508 	adds.w	r5, sl, r8
 80035a0:	eb4b 0609 	adc.w	r6, fp, r9
 80035a4:	687b      	ldr	r3, [r7, #4]
 80035a6:	685b      	ldr	r3, [r3, #4]
 80035a8:	4619      	mov	r1, r3
 80035aa:	f04f 0200 	mov.w	r2, #0
 80035ae:	f04f 0300 	mov.w	r3, #0
 80035b2:	f04f 0400 	mov.w	r4, #0
 80035b6:	0094      	lsls	r4, r2, #2
 80035b8:	ea44 7491 	orr.w	r4, r4, r1, lsr #30
 80035bc:	008b      	lsls	r3, r1, #2
 80035be:	461a      	mov	r2, r3
 80035c0:	4623      	mov	r3, r4
 80035c2:	4628      	mov	r0, r5
 80035c4:	4631      	mov	r1, r6
 80035c6:	f7fc fe73 	bl	80002b0 <__aeabi_uldivmod>
 80035ca:	4603      	mov	r3, r0
 80035cc:	460c      	mov	r4, r1
 80035ce:	461a      	mov	r2, r3
 80035d0:	4bb8      	ldr	r3, [pc, #736]	; (80038b4 <UART_SetConfig+0x6f4>)
 80035d2:	fba3 2302 	umull	r2, r3, r3, r2
 80035d6:	095b      	lsrs	r3, r3, #5
 80035d8:	ea4f 1803 	mov.w	r8, r3, lsl #4
 80035dc:	68bb      	ldr	r3, [r7, #8]
 80035de:	469b      	mov	fp, r3
 80035e0:	f04f 0c00 	mov.w	ip, #0
 80035e4:	46d9      	mov	r9, fp
 80035e6:	46e2      	mov	sl, ip
 80035e8:	eb19 0309 	adds.w	r3, r9, r9
 80035ec:	eb4a 040a 	adc.w	r4, sl, sl
 80035f0:	4699      	mov	r9, r3
 80035f2:	46a2      	mov	sl, r4
 80035f4:	eb19 090b 	adds.w	r9, r9, fp
 80035f8:	eb4a 0a0c 	adc.w	sl, sl, ip
 80035fc:	f04f 0100 	mov.w	r1, #0
 8003600:	f04f 0200 	mov.w	r2, #0
 8003604:	ea4f 02ca 	mov.w	r2, sl, lsl #3
 8003608:	ea42 7259 	orr.w	r2, r2, r9, lsr #29
 800360c:	ea4f 01c9 	mov.w	r1, r9, lsl #3
 8003610:	4689      	mov	r9, r1
 8003612:	4692      	mov	sl, r2
 8003614:	eb1b 0509 	adds.w	r5, fp, r9
 8003618:	eb4c 060a 	adc.w	r6, ip, sl
 800361c:	687b      	ldr	r3, [r7, #4]
 800361e:	685b      	ldr	r3, [r3, #4]
 8003620:	4619      	mov	r1, r3
 8003622:	f04f 0200 	mov.w	r2, #0
 8003626:	f04f 0300 	mov.w	r3, #0
 800362a:	f04f 0400 	mov.w	r4, #0
 800362e:	0094      	lsls	r4, r2, #2
 8003630:	ea44 7491 	orr.w	r4, r4, r1, lsr #30
 8003634:	008b      	lsls	r3, r1, #2
 8003636:	461a      	mov	r2, r3
 8003638:	4623      	mov	r3, r4
 800363a:	4628      	mov	r0, r5
 800363c:	4631      	mov	r1, r6
 800363e:	f7fc fe37 	bl	80002b0 <__aeabi_uldivmod>
 8003642:	4603      	mov	r3, r0
 8003644:	460c      	mov	r4, r1
 8003646:	461a      	mov	r2, r3
 8003648:	4b9a      	ldr	r3, [pc, #616]	; (80038b4 <UART_SetConfig+0x6f4>)
 800364a:	fba3 1302 	umull	r1, r3, r3, r2
 800364e:	095b      	lsrs	r3, r3, #5
 8003650:	2164      	movs	r1, #100	; 0x64
 8003652:	fb01 f303 	mul.w	r3, r1, r3
 8003656:	1ad3      	subs	r3, r2, r3
 8003658:	011b      	lsls	r3, r3, #4
 800365a:	3332      	adds	r3, #50	; 0x32
 800365c:	4a95      	ldr	r2, [pc, #596]	; (80038b4 <UART_SetConfig+0x6f4>)
 800365e:	fba2 2303 	umull	r2, r3, r2, r3
 8003662:	095b      	lsrs	r3, r3, #5
 8003664:	f003 03f0 	and.w	r3, r3, #240	; 0xf0
 8003668:	4498      	add	r8, r3
 800366a:	68bb      	ldr	r3, [r7, #8]
 800366c:	469b      	mov	fp, r3
 800366e:	f04f 0c00 	mov.w	ip, #0
 8003672:	46d9      	mov	r9, fp
 8003674:	46e2      	mov	sl, ip
 8003676:	eb19 0309 	adds.w	r3, r9, r9
 800367a:	eb4a 040a 	adc.w	r4, sl, sl
 800367e:	4699      	mov	r9, r3
 8003680:	46a2      	mov	sl, r4
 8003682:	eb19 090b 	adds.w	r9, r9, fp
 8003686:	eb4a 0a0c 	adc.w	sl, sl, ip
 800368a:	f04f 0100 	mov.w	r1, #0
 800368e:	f04f 0200 	mov.w	r2, #0
 8003692:	ea4f 02ca 	mov.w	r2, sl, lsl #3
 8003696:	ea42 7259 	orr.w	r2, r2, r9, lsr #29
 800369a:	ea4f 01c9 	mov.w	r1, r9, lsl #3
 800369e:	4689      	mov	r9, r1
 80036a0:	4692      	mov	sl, r2
 80036a2:	eb1b 0509 	adds.w	r5, fp, r9
 80036a6:	eb4c 060a 	adc.w	r6, ip, sl
 80036aa:	687b      	ldr	r3, [r7, #4]
 80036ac:	685b      	ldr	r3, [r3, #4]
 80036ae:	4619      	mov	r1, r3
 80036b0:	f04f 0200 	mov.w	r2, #0
 80036b4:	f04f 0300 	mov.w	r3, #0
 80036b8:	f04f 0400 	mov.w	r4, #0
 80036bc:	0094      	lsls	r4, r2, #2
 80036be:	ea44 7491 	orr.w	r4, r4, r1, lsr #30
 80036c2:	008b      	lsls	r3, r1, #2
 80036c4:	461a      	mov	r2, r3
 80036c6:	4623      	mov	r3, r4
 80036c8:	4628      	mov	r0, r5
 80036ca:	4631      	mov	r1, r6
 80036cc:	f7fc fdf0 	bl	80002b0 <__aeabi_uldivmod>
 80036d0:	4603      	mov	r3, r0
 80036d2:	460c      	mov	r4, r1
 80036d4:	461a      	mov	r2, r3
 80036d6:	4b77      	ldr	r3, [pc, #476]	; (80038b4 <UART_SetConfig+0x6f4>)
 80036d8:	fba3 1302 	umull	r1, r3, r3, r2
 80036dc:	095b      	lsrs	r3, r3, #5
 80036de:	2164      	movs	r1, #100	; 0x64
 80036e0:	fb01 f303 	mul.w	r3, r1, r3
 80036e4:	1ad3      	subs	r3, r2, r3
 80036e6:	011b      	lsls	r3, r3, #4
 80036e8:	3332      	adds	r3, #50	; 0x32
 80036ea:	4a72      	ldr	r2, [pc, #456]	; (80038b4 <UART_SetConfig+0x6f4>)
 80036ec:	fba2 2303 	umull	r2, r3, r2, r3
 80036f0:	095b      	lsrs	r3, r3, #5
 80036f2:	f003 020f 	and.w	r2, r3, #15
 80036f6:	687b      	ldr	r3, [r7, #4]
 80036f8:	681b      	ldr	r3, [r3, #0]
 80036fa:	4442      	add	r2, r8
 80036fc:	609a      	str	r2, [r3, #8]
 80036fe:	e0d0      	b.n	80038a2 <UART_SetConfig+0x6e2>
 8003700:	f7fe ff66 	bl	80025d0 <HAL_RCC_GetPCLK1Freq>
 8003704:	60b8      	str	r0, [r7, #8]
 8003706:	68bb      	ldr	r3, [r7, #8]
 8003708:	469a      	mov	sl, r3
 800370a:	f04f 0b00 	mov.w	fp, #0
 800370e:	46d0      	mov	r8, sl
 8003710:	46d9      	mov	r9, fp
 8003712:	eb18 0308 	adds.w	r3, r8, r8
 8003716:	eb49 0409 	adc.w	r4, r9, r9
 800371a:	4698      	mov	r8, r3
 800371c:	46a1      	mov	r9, r4
 800371e:	eb18 080a 	adds.w	r8, r8, sl
 8003722:	eb49 090b 	adc.w	r9, r9, fp
 8003726:	f04f 0100 	mov.w	r1, #0
 800372a:	f04f 0200 	mov.w	r2, #0
 800372e:	ea4f 02c9 	mov.w	r2, r9, lsl #3
 8003732:	ea42 7258 	orr.w	r2, r2, r8, lsr #29
 8003736:	ea4f 01c8 	mov.w	r1, r8, lsl #3
 800373a:	4688      	mov	r8, r1
 800373c:	4691      	mov	r9, r2
 800373e:	eb1a 0508 	adds.w	r5, sl, r8
 8003742:	eb4b 0609 	adc.w	r6, fp, r9
 8003746:	687b      	ldr	r3, [r7, #4]
 8003748:	685b      	ldr	r3, [r3, #4]
 800374a:	4619      	mov	r1, r3
 800374c:	f04f 0200 	mov.w	r2, #0
 8003750:	f04f 0300 	mov.w	r3, #0
 8003754:	f04f 0400 	mov.w	r4, #0
 8003758:	0094      	lsls	r4, r2, #2
 800375a:	ea44 7491 	orr.w	r4, r4, r1, lsr #30
 800375e:	008b      	lsls	r3, r1, #2
 8003760:	461a      	mov	r2, r3
 8003762:	4623      	mov	r3, r4
 8003764:	4628      	mov	r0, r5
 8003766:	4631      	mov	r1, r6
 8003768:	f7fc fda2 	bl	80002b0 <__aeabi_uldivmod>
 800376c:	4603      	mov	r3, r0
 800376e:	460c      	mov	r4, r1
 8003770:	461a      	mov	r2, r3
 8003772:	4b50      	ldr	r3, [pc, #320]	; (80038b4 <UART_SetConfig+0x6f4>)
 8003774:	fba3 2302 	umull	r2, r3, r3, r2
 8003778:	095b      	lsrs	r3, r3, #5
 800377a:	ea4f 1803 	mov.w	r8, r3, lsl #4
 800377e:	68bb      	ldr	r3, [r7, #8]
 8003780:	469b      	mov	fp, r3
 8003782:	f04f 0c00 	mov.w	ip, #0
 8003786:	46d9      	mov	r9, fp
 8003788:	46e2      	mov	sl, ip
 800378a:	eb19 0309 	adds.w	r3, r9, r9
 800378e:	eb4a 040a 	adc.w	r4, sl, sl
 8003792:	4699      	mov	r9, r3
 8003794:	46a2      	mov	sl, r4
 8003796:	eb19 090b 	adds.w	r9, r9, fp
 800379a:	eb4a 0a0c 	adc.w	sl, sl, ip
 800379e:	f04f 0100 	mov.w	r1, #0
 80037a2:	f04f 0200 	mov.w	r2, #0
 80037a6:	ea4f 02ca 	mov.w	r2, sl, lsl #3
 80037aa:	ea42 7259 	orr.w	r2, r2, r9, lsr #29
 80037ae:	ea4f 01c9 	mov.w	r1, r9, lsl #3
 80037b2:	4689      	mov	r9, r1
 80037b4:	4692      	mov	sl, r2
 80037b6:	eb1b 0509 	adds.w	r5, fp, r9
 80037ba:	eb4c 060a 	adc.w	r6, ip, sl
 80037be:	687b      	ldr	r3, [r7, #4]
 80037c0:	685b      	ldr	r3, [r3, #4]
 80037c2:	4619      	mov	r1, r3
 80037c4:	f04f 0200 	mov.w	r2, #0
 80037c8:	f04f 0300 	mov.w	r3, #0
 80037cc:	f04f 0400 	mov.w	r4, #0
 80037d0:	0094      	lsls	r4, r2, #2
 80037d2:	ea44 7491 	orr.w	r4, r4, r1, lsr #30
 80037d6:	008b      	lsls	r3, r1, #2
 80037d8:	461a      	mov	r2, r3
 80037da:	4623      	mov	r3, r4
 80037dc:	4628      	mov	r0, r5
 80037de:	4631      	mov	r1, r6
 80037e0:	f7fc fd66 	bl	80002b0 <__aeabi_uldivmod>
 80037e4:	4603      	mov	r3, r0
 80037e6:	460c      	mov	r4, r1
 80037e8:	461a      	mov	r2, r3
 80037ea:	4b32      	ldr	r3, [pc, #200]	; (80038b4 <UART_SetConfig+0x6f4>)
 80037ec:	fba3 1302 	umull	r1, r3, r3, r2
 80037f0:	095b      	lsrs	r3, r3, #5
 80037f2:	2164      	movs	r1, #100	; 0x64
 80037f4:	fb01 f303 	mul.w	r3, r1, r3
 80037f8:	1ad3      	subs	r3, r2, r3
 80037fa:	011b      	lsls	r3, r3, #4
 80037fc:	3332      	adds	r3, #50	; 0x32
 80037fe:	4a2d      	ldr	r2, [pc, #180]	; (80038b4 <UART_SetConfig+0x6f4>)
 8003800:	fba2 2303 	umull	r2, r3, r2, r3
 8003804:	095b      	lsrs	r3, r3, #5
 8003806:	f003 03f0 	and.w	r3, r3, #240	; 0xf0
 800380a:	4498      	add	r8, r3
 800380c:	68bb      	ldr	r3, [r7, #8]
 800380e:	469b      	mov	fp, r3
 8003810:	f04f 0c00 	mov.w	ip, #0
 8003814:	46d9      	mov	r9, fp
 8003816:	46e2      	mov	sl, ip
 8003818:	eb19 0309 	adds.w	r3, r9, r9
 800381c:	eb4a 040a 	adc.w	r4, sl, sl
 8003820:	4699      	mov	r9, r3
 8003822:	46a2      	mov	sl, r4
 8003824:	eb19 090b 	adds.w	r9, r9, fp
 8003828:	eb4a 0a0c 	adc.w	sl, sl, ip
 800382c:	f04f 0100 	mov.w	r1, #0
 8003830:	f04f 0200 	mov.w	r2, #0
 8003834:	ea4f 02ca 	mov.w	r2, sl, lsl #3
 8003838:	ea42 7259 	orr.w	r2, r2, r9, lsr #29
 800383c:	ea4f 01c9 	mov.w	r1, r9, lsl #3
 8003840:	4689      	mov	r9, r1
 8003842:	4692      	mov	sl, r2
 8003844:	eb1b 0509 	adds.w	r5, fp, r9
 8003848:	eb4c 060a 	adc.w	r6, ip, sl
 800384c:	687b      	ldr	r3, [r7, #4]
 800384e:	685b      	ldr	r3, [r3, #4]
 8003850:	4619      	mov	r1, r3
 8003852:	f04f 0200 	mov.w	r2, #0
 8003856:	f04f 0300 	mov.w	r3, #0
 800385a:	f04f 0400 	mov.w	r4, #0
 800385e:	0094      	lsls	r4, r2, #2
 8003860:	ea44 7491 	orr.w	r4, r4, r1, lsr #30
 8003864:	008b      	lsls	r3, r1, #2
 8003866:	461a      	mov	r2, r3
 8003868:	4623      	mov	r3, r4
 800386a:	4628      	mov	r0, r5
 800386c:	4631      	mov	r1, r6
 800386e:	f7fc fd1f 	bl	80002b0 <__aeabi_uldivmod>
 8003872:	4603      	mov	r3, r0
 8003874:	460c      	mov	r4, r1
 8003876:	461a      	mov	r2, r3
 8003878:	4b0e      	ldr	r3, [pc, #56]	; (80038b4 <UART_SetConfig+0x6f4>)
 800387a:	fba3 1302 	umull	r1, r3, r3, r2
 800387e:	095b      	lsrs	r3, r3, #5
 8003880:	2164      	movs	r1, #100	; 0x64
 8003882:	fb01 f303 	mul.w	r3, r1, r3
 8003886:	1ad3      	subs	r3, r2, r3
 8003888:	011b      	lsls	r3, r3, #4
 800388a:	3332      	adds	r3, #50	; 0x32
 800388c:	4a09      	ldr	r2, [pc, #36]	; (80038b4 <UART_SetConfig+0x6f4>)
 800388e:	fba2 2303 	umull	r2, r3, r2, r3
 8003892:	095b      	lsrs	r3, r3, #5
 8003894:	f003 020f 	and.w	r2, r3, #15
 8003898:	687b      	ldr	r3, [r7, #4]
 800389a:	681b      	ldr	r3, [r3, #0]
 800389c:	4442      	add	r2, r8
 800389e:	609a      	str	r2, [r3, #8]
 80038a0:	e7ff      	b.n	80038a2 <UART_SetConfig+0x6e2>
 80038a2:	bf00      	nop
 80038a4:	3714      	adds	r7, #20
 80038a6:	46bd      	mov	sp, r7
 80038a8:	e8bd 8ff0 	ldmia.w	sp!, {r4, r5, r6, r7, r8, r9, sl, fp, pc}
 80038ac:	40011000 	.word	0x40011000
 80038b0:	40011400 	.word	0x40011400
 80038b4:	51eb851f 	.word	0x51eb851f

080038b8 <VL53L0X_GetDeviceInfo>:
 80038b8:	b580      	push	{r7, lr}
 80038ba:	b084      	sub	sp, #16
 80038bc:	af00      	add	r7, sp, #0
 80038be:	6078      	str	r0, [r7, #4]
 80038c0:	6039      	str	r1, [r7, #0]
 80038c2:	2300      	movs	r3, #0
 80038c4:	73fb      	strb	r3, [r7, #15]
 80038c6:	6839      	ldr	r1, [r7, #0]
 80038c8:	6878      	ldr	r0, [r7, #4]
 80038ca:	f004 fc4d 	bl	8008168 <VL53L0X_get_device_info>
 80038ce:	4603      	mov	r3, r0
 80038d0:	73fb      	strb	r3, [r7, #15]
 80038d2:	f997 300f 	ldrsb.w	r3, [r7, #15]
 80038d6:	4618      	mov	r0, r3
 80038d8:	3710      	adds	r7, #16
 80038da:	46bd      	mov	sp, r7
 80038dc:	bd80      	pop	{r7, pc}

080038de <VL53L0X_SetOffsetCalibrationDataMicroMeter>:
 80038de:	b580      	push	{r7, lr}
 80038e0:	b084      	sub	sp, #16
 80038e2:	af00      	add	r7, sp, #0
 80038e4:	6078      	str	r0, [r7, #4]
 80038e6:	6039      	str	r1, [r7, #0]
 80038e8:	2300      	movs	r3, #0
 80038ea:	73fb      	strb	r3, [r7, #15]
 80038ec:	6839      	ldr	r1, [r7, #0]
 80038ee:	6878      	ldr	r0, [r7, #4]
 80038f0:	f001 fcda 	bl	80052a8 <VL53L0X_set_offset_calibration_data_micro_meter>
 80038f4:	4603      	mov	r3, r0
 80038f6:	73fb      	strb	r3, [r7, #15]
 80038f8:	f997 300f 	ldrsb.w	r3, [r7, #15]
 80038fc:	4618      	mov	r0, r3
 80038fe:	3710      	adds	r7, #16
 8003900:	46bd      	mov	sp, r7
 8003902:	bd80      	pop	{r7, pc}

08003904 <VL53L0X_GetOffsetCalibrationDataMicroMeter>:
 8003904:	b580      	push	{r7, lr}
 8003906:	b084      	sub	sp, #16
 8003908:	af00      	add	r7, sp, #0
 800390a:	6078      	str	r0, [r7, #4]
 800390c:	6039      	str	r1, [r7, #0]
 800390e:	2300      	movs	r3, #0
 8003910:	73fb      	strb	r3, [r7, #15]
 8003912:	6839      	ldr	r1, [r7, #0]
 8003914:	6878      	ldr	r0, [r7, #4]
 8003916:	f001 fd0f 	bl	8005338 <VL53L0X_get_offset_calibration_data_micro_meter>
 800391a:	4603      	mov	r3, r0
 800391c:	73fb      	strb	r3, [r7, #15]
 800391e:	f997 300f 	ldrsb.w	r3, [r7, #15]
 8003922:	4618      	mov	r0, r3
 8003924:	3710      	adds	r7, #16
 8003926:	46bd      	mov	sp, r7
 8003928:	bd80      	pop	{r7, pc}
	...

0800392c <VL53L0X_DataInit>:
 800392c:	b5b0      	push	{r4, r5, r7, lr}
 800392e:	b096      	sub	sp, #88	; 0x58
 8003930:	af00      	add	r7, sp, #0
 8003932:	6078      	str	r0, [r7, #4]
 8003934:	2300      	movs	r3, #0
 8003936:	f887 3057 	strb.w	r3, [r7, #87]	; 0x57
 800393a:	f997 3057 	ldrsb.w	r3, [r7, #87]	; 0x57
 800393e:	2b00      	cmp	r3, #0
 8003940:	d107      	bne.n	8003952 <VL53L0X_DataInit+0x26>
 8003942:	2200      	movs	r2, #0
 8003944:	2188      	movs	r1, #136	; 0x88
 8003946:	6878      	ldr	r0, [r7, #4]
 8003948:	f004 fd30 	bl	80083ac <VL53L0X_WrByte>
 800394c:	4603      	mov	r3, r0
 800394e:	f887 3057 	strb.w	r3, [r7, #87]	; 0x57
 8003952:	687b      	ldr	r3, [r7, #4]
 8003954:	2200      	movs	r2, #0
 8003956:	f883 20f0 	strb.w	r2, [r3, #240]	; 0xf0
 800395a:	687b      	ldr	r3, [r7, #4]
 800395c:	f44f 727a 	mov.w	r2, #1000	; 0x3e8
 8003960:	f8a3 2152 	strh.w	r2, [r3, #338]	; 0x152
 8003964:	687b      	ldr	r3, [r7, #4]
 8003966:	f44f 72c8 	mov.w	r2, #400	; 0x190
 800396a:	f8a3 2154 	strh.w	r2, [r3, #340]	; 0x154
 800396e:	687b      	ldr	r3, [r7, #4]
 8003970:	4a9e      	ldr	r2, [pc, #632]	; (8003bec <VL53L0X_DataInit+0x2c0>)
 8003972:	f8c3 2158 	str.w	r2, [r3, #344]	; 0x158
 8003976:	687b      	ldr	r3, [r7, #4]
 8003978:	4a9d      	ldr	r2, [pc, #628]	; (8003bf0 <VL53L0X_DataInit+0x2c4>)
 800397a:	f8c3 20d4 	str.w	r2, [r3, #212]	; 0xd4
 800397e:	687b      	ldr	r3, [r7, #4]
 8003980:	2200      	movs	r2, #0
 8003982:	621a      	str	r2, [r3, #32]
 8003984:	f107 0310 	add.w	r3, r7, #16
 8003988:	4619      	mov	r1, r3
 800398a:	6878      	ldr	r0, [r7, #4]
 800398c:	f000 fab4 	bl	8003ef8 <VL53L0X_GetDeviceParameters>
 8003990:	4603      	mov	r3, r0
 8003992:	f887 3057 	strb.w	r3, [r7, #87]	; 0x57
 8003996:	f997 3057 	ldrsb.w	r3, [r7, #87]	; 0x57
 800399a:	2b00      	cmp	r3, #0
 800399c:	d112      	bne.n	80039c4 <VL53L0X_DataInit+0x98>
 800399e:	2300      	movs	r3, #0
 80039a0:	743b      	strb	r3, [r7, #16]
 80039a2:	2300      	movs	r3, #0
 80039a4:	747b      	strb	r3, [r7, #17]
 80039a6:	687b      	ldr	r3, [r7, #4]
 80039a8:	f103 0410 	add.w	r4, r3, #16
 80039ac:	f107 0510 	add.w	r5, r7, #16
 80039b0:	cd0f      	ldmia	r5!, {r0, r1, r2, r3}
 80039b2:	c40f      	stmia	r4!, {r0, r1, r2, r3}
 80039b4:	cd0f      	ldmia	r5!, {r0, r1, r2, r3}
 80039b6:	c40f      	stmia	r4!, {r0, r1, r2, r3}
 80039b8:	cd0f      	ldmia	r5!, {r0, r1, r2, r3}
 80039ba:	c40f      	stmia	r4!, {r0, r1, r2, r3}
 80039bc:	e895 000f 	ldmia.w	r5, {r0, r1, r2, r3}
 80039c0:	e884 000f 	stmia.w	r4, {r0, r1, r2, r3}
 80039c4:	687b      	ldr	r3, [r7, #4]
 80039c6:	2264      	movs	r2, #100	; 0x64
 80039c8:	f8a3 2134 	strh.w	r2, [r3, #308]	; 0x134
 80039cc:	687b      	ldr	r3, [r7, #4]
 80039ce:	f44f 7261 	mov.w	r2, #900	; 0x384
 80039d2:	f8a3 2136 	strh.w	r2, [r3, #310]	; 0x136
 80039d6:	687b      	ldr	r3, [r7, #4]
 80039d8:	f44f 72fa 	mov.w	r2, #500	; 0x1f4
 80039dc:	f8a3 2138 	strh.w	r2, [r3, #312]	; 0x138
 80039e0:	687b      	ldr	r3, [r7, #4]
 80039e2:	f44f 6220 	mov.w	r2, #2560	; 0xa00
 80039e6:	f8a3 213c 	strh.w	r2, [r3, #316]	; 0x13c
 80039ea:	687b      	ldr	r3, [r7, #4]
 80039ec:	2201      	movs	r2, #1
 80039ee:	f883 2150 	strb.w	r2, [r3, #336]	; 0x150
 80039f2:	2201      	movs	r2, #1
 80039f4:	2180      	movs	r1, #128	; 0x80
 80039f6:	6878      	ldr	r0, [r7, #4]
 80039f8:	f004 fcd8 	bl	80083ac <VL53L0X_WrByte>
 80039fc:	4603      	mov	r3, r0
 80039fe:	461a      	mov	r2, r3
 8003a00:	f897 3057 	ldrb.w	r3, [r7, #87]	; 0x57
 8003a04:	4313      	orrs	r3, r2
 8003a06:	f887 3057 	strb.w	r3, [r7, #87]	; 0x57
 8003a0a:	2201      	movs	r2, #1
 8003a0c:	21ff      	movs	r1, #255	; 0xff
 8003a0e:	6878      	ldr	r0, [r7, #4]
 8003a10:	f004 fccc 	bl	80083ac <VL53L0X_WrByte>
 8003a14:	4603      	mov	r3, r0
 8003a16:	461a      	mov	r2, r3
 8003a18:	f897 3057 	ldrb.w	r3, [r7, #87]	; 0x57
 8003a1c:	4313      	orrs	r3, r2
 8003a1e:	f887 3057 	strb.w	r3, [r7, #87]	; 0x57
 8003a22:	2200      	movs	r2, #0
 8003a24:	2100      	movs	r1, #0
 8003a26:	6878      	ldr	r0, [r7, #4]
 8003a28:	f004 fcc0 	bl	80083ac <VL53L0X_WrByte>
 8003a2c:	4603      	mov	r3, r0
 8003a2e:	461a      	mov	r2, r3
 8003a30:	f897 3057 	ldrb.w	r3, [r7, #87]	; 0x57
 8003a34:	4313      	orrs	r3, r2
 8003a36:	f887 3057 	strb.w	r3, [r7, #87]	; 0x57
 8003a3a:	f107 030f 	add.w	r3, r7, #15
 8003a3e:	461a      	mov	r2, r3
 8003a40:	2191      	movs	r1, #145	; 0x91
 8003a42:	6878      	ldr	r0, [r7, #4]
 8003a44:	f004 fd34 	bl	80084b0 <VL53L0X_RdByte>
 8003a48:	4603      	mov	r3, r0
 8003a4a:	461a      	mov	r2, r3
 8003a4c:	f897 3057 	ldrb.w	r3, [r7, #87]	; 0x57
 8003a50:	4313      	orrs	r3, r2
 8003a52:	f887 3057 	strb.w	r3, [r7, #87]	; 0x57
 8003a56:	7bfa      	ldrb	r2, [r7, #15]
 8003a58:	687b      	ldr	r3, [r7, #4]
 8003a5a:	f883 213a 	strb.w	r2, [r3, #314]	; 0x13a
 8003a5e:	2201      	movs	r2, #1
 8003a60:	2100      	movs	r1, #0
 8003a62:	6878      	ldr	r0, [r7, #4]
 8003a64:	f004 fca2 	bl	80083ac <VL53L0X_WrByte>
 8003a68:	4603      	mov	r3, r0
 8003a6a:	461a      	mov	r2, r3
 8003a6c:	f897 3057 	ldrb.w	r3, [r7, #87]	; 0x57
 8003a70:	4313      	orrs	r3, r2
 8003a72:	f887 3057 	strb.w	r3, [r7, #87]	; 0x57
 8003a76:	2200      	movs	r2, #0
 8003a78:	21ff      	movs	r1, #255	; 0xff
 8003a7a:	6878      	ldr	r0, [r7, #4]
 8003a7c:	f004 fc96 	bl	80083ac <VL53L0X_WrByte>
 8003a80:	4603      	mov	r3, r0
 8003a82:	461a      	mov	r2, r3
 8003a84:	f897 3057 	ldrb.w	r3, [r7, #87]	; 0x57
 8003a88:	4313      	orrs	r3, r2
 8003a8a:	f887 3057 	strb.w	r3, [r7, #87]	; 0x57
 8003a8e:	2200      	movs	r2, #0
 8003a90:	2180      	movs	r1, #128	; 0x80
 8003a92:	6878      	ldr	r0, [r7, #4]
 8003a94:	f004 fc8a 	bl	80083ac <VL53L0X_WrByte>
 8003a98:	4603      	mov	r3, r0
 8003a9a:	461a      	mov	r2, r3
 8003a9c:	f897 3057 	ldrb.w	r3, [r7, #87]	; 0x57
 8003aa0:	4313      	orrs	r3, r2
 8003aa2:	f887 3057 	strb.w	r3, [r7, #87]	; 0x57
 8003aa6:	2300      	movs	r3, #0
 8003aa8:	653b      	str	r3, [r7, #80]	; 0x50
 8003aaa:	e014      	b.n	8003ad6 <VL53L0X_DataInit+0x1aa>
 8003aac:	f997 3057 	ldrsb.w	r3, [r7, #87]	; 0x57
 8003ab0:	2b00      	cmp	r3, #0
 8003ab2:	d114      	bne.n	8003ade <VL53L0X_DataInit+0x1b2>
 8003ab4:	6d3b      	ldr	r3, [r7, #80]	; 0x50
 8003ab6:	b29b      	uxth	r3, r3
 8003ab8:	2201      	movs	r2, #1
 8003aba:	4619      	mov	r1, r3
 8003abc:	6878      	ldr	r0, [r7, #4]
 8003abe:	f000 fd5f 	bl	8004580 <VL53L0X_SetLimitCheckEnable>
 8003ac2:	4603      	mov	r3, r0
 8003ac4:	461a      	mov	r2, r3
 8003ac6:	f897 3057 	ldrb.w	r3, [r7, #87]	; 0x57
 8003aca:	4313      	orrs	r3, r2
 8003acc:	f887 3057 	strb.w	r3, [r7, #87]	; 0x57
 8003ad0:	6d3b      	ldr	r3, [r7, #80]	; 0x50
 8003ad2:	3301      	adds	r3, #1
 8003ad4:	653b      	str	r3, [r7, #80]	; 0x50
 8003ad6:	6d3b      	ldr	r3, [r7, #80]	; 0x50
 8003ad8:	2b05      	cmp	r3, #5
 8003ada:	dde7      	ble.n	8003aac <VL53L0X_DataInit+0x180>
 8003adc:	e000      	b.n	8003ae0 <VL53L0X_DataInit+0x1b4>
 8003ade:	bf00      	nop
 8003ae0:	f997 3057 	ldrsb.w	r3, [r7, #87]	; 0x57
 8003ae4:	2b00      	cmp	r3, #0
 8003ae6:	d107      	bne.n	8003af8 <VL53L0X_DataInit+0x1cc>
 8003ae8:	2200      	movs	r2, #0
 8003aea:	2102      	movs	r1, #2
 8003aec:	6878      	ldr	r0, [r7, #4]
 8003aee:	f000 fd47 	bl	8004580 <VL53L0X_SetLimitCheckEnable>
 8003af2:	4603      	mov	r3, r0
 8003af4:	f887 3057 	strb.w	r3, [r7, #87]	; 0x57
 8003af8:	f997 3057 	ldrsb.w	r3, [r7, #87]	; 0x57
 8003afc:	2b00      	cmp	r3, #0
 8003afe:	d107      	bne.n	8003b10 <VL53L0X_DataInit+0x1e4>
 8003b00:	2200      	movs	r2, #0
 8003b02:	2103      	movs	r1, #3
 8003b04:	6878      	ldr	r0, [r7, #4]
 8003b06:	f000 fd3b 	bl	8004580 <VL53L0X_SetLimitCheckEnable>
 8003b0a:	4603      	mov	r3, r0
 8003b0c:	f887 3057 	strb.w	r3, [r7, #87]	; 0x57
 8003b10:	f997 3057 	ldrsb.w	r3, [r7, #87]	; 0x57
 8003b14:	2b00      	cmp	r3, #0
 8003b16:	d107      	bne.n	8003b28 <VL53L0X_DataInit+0x1fc>
 8003b18:	2200      	movs	r2, #0
 8003b1a:	2104      	movs	r1, #4
 8003b1c:	6878      	ldr	r0, [r7, #4]
 8003b1e:	f000 fd2f 	bl	8004580 <VL53L0X_SetLimitCheckEnable>
 8003b22:	4603      	mov	r3, r0
 8003b24:	f887 3057 	strb.w	r3, [r7, #87]	; 0x57
 8003b28:	f997 3057 	ldrsb.w	r3, [r7, #87]	; 0x57
 8003b2c:	2b00      	cmp	r3, #0
 8003b2e:	d107      	bne.n	8003b40 <VL53L0X_DataInit+0x214>
 8003b30:	2200      	movs	r2, #0
 8003b32:	2105      	movs	r1, #5
 8003b34:	6878      	ldr	r0, [r7, #4]
 8003b36:	f000 fd23 	bl	8004580 <VL53L0X_SetLimitCheckEnable>
 8003b3a:	4603      	mov	r3, r0
 8003b3c:	f887 3057 	strb.w	r3, [r7, #87]	; 0x57
 8003b40:	f997 3057 	ldrsb.w	r3, [r7, #87]	; 0x57
 8003b44:	2b00      	cmp	r3, #0
 8003b46:	d108      	bne.n	8003b5a <VL53L0X_DataInit+0x22e>
 8003b48:	f44f 1290 	mov.w	r2, #1179648	; 0x120000
 8003b4c:	2100      	movs	r1, #0
 8003b4e:	6878      	ldr	r0, [r7, #4]
 8003b50:	f000 fdc6 	bl	80046e0 <VL53L0X_SetLimitCheckValue>
 8003b54:	4603      	mov	r3, r0
 8003b56:	f887 3057 	strb.w	r3, [r7, #87]	; 0x57
 8003b5a:	f997 3057 	ldrsb.w	r3, [r7, #87]	; 0x57
 8003b5e:	2b00      	cmp	r3, #0
 8003b60:	d108      	bne.n	8003b74 <VL53L0X_DataInit+0x248>
 8003b62:	f44f 4280 	mov.w	r2, #16384	; 0x4000
 8003b66:	2101      	movs	r1, #1
 8003b68:	6878      	ldr	r0, [r7, #4]
 8003b6a:	f000 fdb9 	bl	80046e0 <VL53L0X_SetLimitCheckValue>
 8003b6e:	4603      	mov	r3, r0
 8003b70:	f887 3057 	strb.w	r3, [r7, #87]	; 0x57
 8003b74:	f997 3057 	ldrsb.w	r3, [r7, #87]	; 0x57
 8003b78:	2b00      	cmp	r3, #0
 8003b7a:	d108      	bne.n	8003b8e <VL53L0X_DataInit+0x262>
 8003b7c:	f44f 120c 	mov.w	r2, #2293760	; 0x230000
 8003b80:	2102      	movs	r1, #2
 8003b82:	6878      	ldr	r0, [r7, #4]
 8003b84:	f000 fdac 	bl	80046e0 <VL53L0X_SetLimitCheckValue>
 8003b88:	4603      	mov	r3, r0
 8003b8a:	f887 3057 	strb.w	r3, [r7, #87]	; 0x57
 8003b8e:	f997 3057 	ldrsb.w	r3, [r7, #87]	; 0x57
 8003b92:	2b00      	cmp	r3, #0
 8003b94:	d107      	bne.n	8003ba6 <VL53L0X_DataInit+0x27a>
 8003b96:	2200      	movs	r2, #0
 8003b98:	2103      	movs	r1, #3
 8003b9a:	6878      	ldr	r0, [r7, #4]
 8003b9c:	f000 fda0 	bl	80046e0 <VL53L0X_SetLimitCheckValue>
 8003ba0:	4603      	mov	r3, r0
 8003ba2:	f887 3057 	strb.w	r3, [r7, #87]	; 0x57
 8003ba6:	f997 3057 	ldrsb.w	r3, [r7, #87]	; 0x57
 8003baa:	2b00      	cmp	r3, #0
 8003bac:	d10f      	bne.n	8003bce <VL53L0X_DataInit+0x2a2>
 8003bae:	687b      	ldr	r3, [r7, #4]
 8003bb0:	22ff      	movs	r2, #255	; 0xff
 8003bb2:	f883 2130 	strb.w	r2, [r3, #304]	; 0x130
 8003bb6:	22ff      	movs	r2, #255	; 0xff
 8003bb8:	2101      	movs	r1, #1
 8003bba:	6878      	ldr	r0, [r7, #4]
 8003bbc:	f004 fbf6 	bl	80083ac <VL53L0X_WrByte>
 8003bc0:	4603      	mov	r3, r0
 8003bc2:	f887 3057 	strb.w	r3, [r7, #87]	; 0x57
 8003bc6:	687b      	ldr	r3, [r7, #4]
 8003bc8:	2201      	movs	r2, #1
 8003bca:	f883 2132 	strb.w	r2, [r3, #306]	; 0x132
 8003bce:	f997 3057 	ldrsb.w	r3, [r7, #87]	; 0x57
 8003bd2:	2b00      	cmp	r3, #0
 8003bd4:	d103      	bne.n	8003bde <VL53L0X_DataInit+0x2b2>
 8003bd6:	687b      	ldr	r3, [r7, #4]
 8003bd8:	2200      	movs	r2, #0
 8003bda:	f883 2115 	strb.w	r2, [r3, #277]	; 0x115
 8003bde:	f997 3057 	ldrsb.w	r3, [r7, #87]	; 0x57
 8003be2:	4618      	mov	r0, r3
 8003be4:	3758      	adds	r7, #88	; 0x58
 8003be6:	46bd      	mov	sp, r7
 8003be8:	bdb0      	pop	{r4, r5, r7, pc}
 8003bea:	bf00      	nop
 8003bec:	00016b85 	.word	0x00016b85
 8003bf0:	000970a4 	.word	0x000970a4

08003bf4 <VL53L0X_StaticInit>:
 8003bf4:	b5b0      	push	{r4, r5, r7, lr}
 8003bf6:	b09e      	sub	sp, #120	; 0x78
 8003bf8:	af02      	add	r7, sp, #8
 8003bfa:	6078      	str	r0, [r7, #4]
 8003bfc:	2300      	movs	r3, #0
 8003bfe:	f887 306f 	strb.w	r3, [r7, #111]	; 0x6f
 8003c02:	f107 031c 	add.w	r3, r7, #28
 8003c06:	2240      	movs	r2, #64	; 0x40
 8003c08:	2100      	movs	r1, #0
 8003c0a:	4618      	mov	r0, r3
 8003c0c:	f004 fd33 	bl	8008676 <memset>
 8003c10:	2300      	movs	r3, #0
 8003c12:	837b      	strh	r3, [r7, #26]
 8003c14:	2300      	movs	r3, #0
 8003c16:	767b      	strb	r3, [r7, #25]
 8003c18:	2300      	movs	r3, #0
 8003c1a:	f887 3067 	strb.w	r3, [r7, #103]	; 0x67
 8003c1e:	2300      	movs	r3, #0
 8003c20:	663b      	str	r3, [r7, #96]	; 0x60
 8003c22:	2300      	movs	r3, #0
 8003c24:	763b      	strb	r3, [r7, #24]
 8003c26:	2300      	movs	r3, #0
 8003c28:	617b      	str	r3, [r7, #20]
 8003c2a:	2300      	movs	r3, #0
 8003c2c:	f887 305f 	strb.w	r3, [r7, #95]	; 0x5f
 8003c30:	2101      	movs	r1, #1
 8003c32:	6878      	ldr	r0, [r7, #4]
 8003c34:	f002 fac4 	bl	80061c0 <VL53L0X_get_info_from_device>
 8003c38:	4603      	mov	r3, r0
 8003c3a:	f887 306f 	strb.w	r3, [r7, #111]	; 0x6f
 8003c3e:	687b      	ldr	r3, [r7, #4]
 8003c40:	f893 3113 	ldrb.w	r3, [r3, #275]	; 0x113
 8003c44:	663b      	str	r3, [r7, #96]	; 0x60
 8003c46:	687b      	ldr	r3, [r7, #4]
 8003c48:	f893 3114 	ldrb.w	r3, [r3, #276]	; 0x114
 8003c4c:	f887 305f 	strb.w	r3, [r7, #95]	; 0x5f
 8003c50:	f897 305f 	ldrb.w	r3, [r7, #95]	; 0x5f
 8003c54:	2b01      	cmp	r3, #1
 8003c56:	d80d      	bhi.n	8003c74 <VL53L0X_StaticInit+0x80>
 8003c58:	f897 305f 	ldrb.w	r3, [r7, #95]	; 0x5f
 8003c5c:	2b01      	cmp	r3, #1
 8003c5e:	d102      	bne.n	8003c66 <VL53L0X_StaticInit+0x72>
 8003c60:	6e3b      	ldr	r3, [r7, #96]	; 0x60
 8003c62:	2b20      	cmp	r3, #32
 8003c64:	d806      	bhi.n	8003c74 <VL53L0X_StaticInit+0x80>
 8003c66:	f897 305f 	ldrb.w	r3, [r7, #95]	; 0x5f
 8003c6a:	2b00      	cmp	r3, #0
 8003c6c:	d10e      	bne.n	8003c8c <VL53L0X_StaticInit+0x98>
 8003c6e:	6e3b      	ldr	r3, [r7, #96]	; 0x60
 8003c70:	2b0c      	cmp	r3, #12
 8003c72:	d90b      	bls.n	8003c8c <VL53L0X_StaticInit+0x98>
 8003c74:	f107 0218 	add.w	r2, r7, #24
 8003c78:	f107 0314 	add.w	r3, r7, #20
 8003c7c:	4619      	mov	r1, r3
 8003c7e:	6878      	ldr	r0, [r7, #4]
 8003c80:	f001 fd56 	bl	8005730 <VL53L0X_perform_ref_spad_management>
 8003c84:	4603      	mov	r3, r0
 8003c86:	f887 306f 	strb.w	r3, [r7, #111]	; 0x6f
 8003c8a:	e009      	b.n	8003ca0 <VL53L0X_StaticInit+0xac>
 8003c8c:	f897 305f 	ldrb.w	r3, [r7, #95]	; 0x5f
 8003c90:	461a      	mov	r2, r3
 8003c92:	6e39      	ldr	r1, [r7, #96]	; 0x60
 8003c94:	6878      	ldr	r0, [r7, #4]
 8003c96:	f001 ff57 	bl	8005b48 <VL53L0X_set_reference_spads>
 8003c9a:	4603      	mov	r3, r0
 8003c9c:	f887 306f 	strb.w	r3, [r7, #111]	; 0x6f
 8003ca0:	4b94      	ldr	r3, [pc, #592]	; (8003ef4 <VL53L0X_StaticInit+0x300>)
 8003ca2:	66bb      	str	r3, [r7, #104]	; 0x68
 8003ca4:	f997 306f 	ldrsb.w	r3, [r7, #111]	; 0x6f
 8003ca8:	2b00      	cmp	r3, #0
 8003caa:	d10f      	bne.n	8003ccc <VL53L0X_StaticInit+0xd8>
 8003cac:	687b      	ldr	r3, [r7, #4]
 8003cae:	f893 3150 	ldrb.w	r3, [r3, #336]	; 0x150
 8003cb2:	f887 3067 	strb.w	r3, [r7, #103]	; 0x67
 8003cb6:	f897 3067 	ldrb.w	r3, [r7, #103]	; 0x67
 8003cba:	2b00      	cmp	r3, #0
 8003cbc:	d104      	bne.n	8003cc8 <VL53L0X_StaticInit+0xd4>
 8003cbe:	687b      	ldr	r3, [r7, #4]
 8003cc0:	f8d3 314c 	ldr.w	r3, [r3, #332]	; 0x14c
 8003cc4:	66bb      	str	r3, [r7, #104]	; 0x68
 8003cc6:	e001      	b.n	8003ccc <VL53L0X_StaticInit+0xd8>
 8003cc8:	4b8a      	ldr	r3, [pc, #552]	; (8003ef4 <VL53L0X_StaticInit+0x300>)
 8003cca:	66bb      	str	r3, [r7, #104]	; 0x68
 8003ccc:	f997 306f 	ldrsb.w	r3, [r7, #111]	; 0x6f
 8003cd0:	2b00      	cmp	r3, #0
 8003cd2:	d106      	bne.n	8003ce2 <VL53L0X_StaticInit+0xee>
 8003cd4:	6eb9      	ldr	r1, [r7, #104]	; 0x68
 8003cd6:	6878      	ldr	r0, [r7, #4]
 8003cd8:	f003 fb8e 	bl	80073f8 <VL53L0X_load_tuning_settings>
 8003cdc:	4603      	mov	r3, r0
 8003cde:	f887 306f 	strb.w	r3, [r7, #111]	; 0x6f
 8003ce2:	f997 306f 	ldrsb.w	r3, [r7, #111]	; 0x6f
 8003ce6:	2b00      	cmp	r3, #0
 8003ce8:	d10a      	bne.n	8003d00 <VL53L0X_StaticInit+0x10c>
 8003cea:	2300      	movs	r3, #0
 8003cec:	9300      	str	r3, [sp, #0]
 8003cee:	2304      	movs	r3, #4
 8003cf0:	2200      	movs	r2, #0
 8003cf2:	2100      	movs	r1, #0
 8003cf4:	6878      	ldr	r0, [r7, #4]
 8003cf6:	f001 f905 	bl	8004f04 <VL53L0X_SetGpioConfig>
 8003cfa:	4603      	mov	r3, r0
 8003cfc:	f887 306f 	strb.w	r3, [r7, #111]	; 0x6f
 8003d00:	f997 306f 	ldrsb.w	r3, [r7, #111]	; 0x6f
 8003d04:	2b00      	cmp	r3, #0
 8003d06:	d121      	bne.n	8003d4c <VL53L0X_StaticInit+0x158>
 8003d08:	2201      	movs	r2, #1
 8003d0a:	21ff      	movs	r1, #255	; 0xff
 8003d0c:	6878      	ldr	r0, [r7, #4]
 8003d0e:	f004 fb4d 	bl	80083ac <VL53L0X_WrByte>
 8003d12:	4603      	mov	r3, r0
 8003d14:	f887 306f 	strb.w	r3, [r7, #111]	; 0x6f
 8003d18:	f107 031a 	add.w	r3, r7, #26
 8003d1c:	461a      	mov	r2, r3
 8003d1e:	2184      	movs	r1, #132	; 0x84
 8003d20:	6878      	ldr	r0, [r7, #4]
 8003d22:	f004 fbef 	bl	8008504 <VL53L0X_RdWord>
 8003d26:	4603      	mov	r3, r0
 8003d28:	461a      	mov	r2, r3
 8003d2a:	f897 306f 	ldrb.w	r3, [r7, #111]	; 0x6f
 8003d2e:	4313      	orrs	r3, r2
 8003d30:	f887 306f 	strb.w	r3, [r7, #111]	; 0x6f
 8003d34:	2200      	movs	r2, #0
 8003d36:	21ff      	movs	r1, #255	; 0xff
 8003d38:	6878      	ldr	r0, [r7, #4]
 8003d3a:	f004 fb37 	bl	80083ac <VL53L0X_WrByte>
 8003d3e:	4603      	mov	r3, r0
 8003d40:	461a      	mov	r2, r3
 8003d42:	f897 306f 	ldrb.w	r3, [r7, #111]	; 0x6f
 8003d46:	4313      	orrs	r3, r2
 8003d48:	f887 306f 	strb.w	r3, [r7, #111]	; 0x6f
 8003d4c:	f997 306f 	ldrsb.w	r3, [r7, #111]	; 0x6f
 8003d50:	2b00      	cmp	r3, #0
 8003d52:	d105      	bne.n	8003d60 <VL53L0X_StaticInit+0x16c>
 8003d54:	8b7b      	ldrh	r3, [r7, #26]
 8003d56:	011b      	lsls	r3, r3, #4
 8003d58:	461a      	mov	r2, r3
 8003d5a:	687b      	ldr	r3, [r7, #4]
 8003d5c:	f8c3 20d4 	str.w	r2, [r3, #212]	; 0xd4
 8003d60:	f997 306f 	ldrsb.w	r3, [r7, #111]	; 0x6f
 8003d64:	2b00      	cmp	r3, #0
 8003d66:	d108      	bne.n	8003d7a <VL53L0X_StaticInit+0x186>
 8003d68:	f107 031c 	add.w	r3, r7, #28
 8003d6c:	4619      	mov	r1, r3
 8003d6e:	6878      	ldr	r0, [r7, #4]
 8003d70:	f000 f8c2 	bl	8003ef8 <VL53L0X_GetDeviceParameters>
 8003d74:	4603      	mov	r3, r0
 8003d76:	f887 306f 	strb.w	r3, [r7, #111]	; 0x6f
 8003d7a:	f997 306f 	ldrsb.w	r3, [r7, #111]	; 0x6f
 8003d7e:	2b00      	cmp	r3, #0
 8003d80:	d110      	bne.n	8003da4 <VL53L0X_StaticInit+0x1b0>
 8003d82:	f107 0319 	add.w	r3, r7, #25
 8003d86:	4619      	mov	r1, r3
 8003d88:	6878      	ldr	r0, [r7, #4]
 8003d8a:	f000 f9a0 	bl	80040ce <VL53L0X_GetFractionEnable>
 8003d8e:	4603      	mov	r3, r0
 8003d90:	f887 306f 	strb.w	r3, [r7, #111]	; 0x6f
 8003d94:	f997 306f 	ldrsb.w	r3, [r7, #111]	; 0x6f
 8003d98:	2b00      	cmp	r3, #0
 8003d9a:	d103      	bne.n	8003da4 <VL53L0X_StaticInit+0x1b0>
 8003d9c:	7e7a      	ldrb	r2, [r7, #25]
 8003d9e:	687b      	ldr	r3, [r7, #4]
 8003da0:	f883 2131 	strb.w	r2, [r3, #305]	; 0x131
 8003da4:	f997 306f 	ldrsb.w	r3, [r7, #111]	; 0x6f
 8003da8:	2b00      	cmp	r3, #0
 8003daa:	d10e      	bne.n	8003dca <VL53L0X_StaticInit+0x1d6>
 8003dac:	687b      	ldr	r3, [r7, #4]
 8003dae:	f103 0410 	add.w	r4, r3, #16
 8003db2:	f107 051c 	add.w	r5, r7, #28
 8003db6:	cd0f      	ldmia	r5!, {r0, r1, r2, r3}
 8003db8:	c40f      	stmia	r4!, {r0, r1, r2, r3}
 8003dba:	cd0f      	ldmia	r5!, {r0, r1, r2, r3}
 8003dbc:	c40f      	stmia	r4!, {r0, r1, r2, r3}
 8003dbe:	cd0f      	ldmia	r5!, {r0, r1, r2, r3}
 8003dc0:	c40f      	stmia	r4!, {r0, r1, r2, r3}
 8003dc2:	e895 000f 	ldmia.w	r5, {r0, r1, r2, r3}
 8003dc6:	e884 000f 	stmia.w	r4, {r0, r1, r2, r3}
 8003dca:	f997 306f 	ldrsb.w	r3, [r7, #111]	; 0x6f
 8003dce:	2b00      	cmp	r3, #0
 8003dd0:	d111      	bne.n	8003df6 <VL53L0X_StaticInit+0x202>
 8003dd2:	f107 0319 	add.w	r3, r7, #25
 8003dd6:	461a      	mov	r2, r3
 8003dd8:	2101      	movs	r1, #1
 8003dda:	6878      	ldr	r0, [r7, #4]
 8003ddc:	f004 fb68 	bl	80084b0 <VL53L0X_RdByte>
 8003de0:	4603      	mov	r3, r0
 8003de2:	f887 306f 	strb.w	r3, [r7, #111]	; 0x6f
 8003de6:	f997 306f 	ldrsb.w	r3, [r7, #111]	; 0x6f
 8003dea:	2b00      	cmp	r3, #0
 8003dec:	d103      	bne.n	8003df6 <VL53L0X_StaticInit+0x202>
 8003dee:	7e7a      	ldrb	r2, [r7, #25]
 8003df0:	687b      	ldr	r3, [r7, #4]
 8003df2:	f883 2130 	strb.w	r2, [r3, #304]	; 0x130
 8003df6:	f997 306f 	ldrsb.w	r3, [r7, #111]	; 0x6f
 8003dfa:	2b00      	cmp	r3, #0
 8003dfc:	d107      	bne.n	8003e0e <VL53L0X_StaticInit+0x21a>
 8003dfe:	2200      	movs	r2, #0
 8003e00:	2100      	movs	r1, #0
 8003e02:	6878      	ldr	r0, [r7, #4]
 8003e04:	f000 f9c0 	bl	8004188 <VL53L0X_SetSequenceStepEnable>
 8003e08:	4603      	mov	r3, r0
 8003e0a:	f887 306f 	strb.w	r3, [r7, #111]	; 0x6f
 8003e0e:	f997 306f 	ldrsb.w	r3, [r7, #111]	; 0x6f
 8003e12:	2b00      	cmp	r3, #0
 8003e14:	d107      	bne.n	8003e26 <VL53L0X_StaticInit+0x232>
 8003e16:	2200      	movs	r2, #0
 8003e18:	2102      	movs	r1, #2
 8003e1a:	6878      	ldr	r0, [r7, #4]
 8003e1c:	f000 f9b4 	bl	8004188 <VL53L0X_SetSequenceStepEnable>
 8003e20:	4603      	mov	r3, r0
 8003e22:	f887 306f 	strb.w	r3, [r7, #111]	; 0x6f
 8003e26:	f997 306f 	ldrsb.w	r3, [r7, #111]	; 0x6f
 8003e2a:	2b00      	cmp	r3, #0
 8003e2c:	d103      	bne.n	8003e36 <VL53L0X_StaticInit+0x242>
 8003e2e:	687b      	ldr	r3, [r7, #4]
 8003e30:	2203      	movs	r2, #3
 8003e32:	f883 2132 	strb.w	r2, [r3, #306]	; 0x132
 8003e36:	f997 306f 	ldrsb.w	r3, [r7, #111]	; 0x6f
 8003e3a:	2b00      	cmp	r3, #0
 8003e3c:	d109      	bne.n	8003e52 <VL53L0X_StaticInit+0x25e>
 8003e3e:	f107 0313 	add.w	r3, r7, #19
 8003e42:	461a      	mov	r2, r3
 8003e44:	2100      	movs	r1, #0
 8003e46:	6878      	ldr	r0, [r7, #4]
 8003e48:	f000 f986 	bl	8004158 <VL53L0X_GetVcselPulsePeriod>
 8003e4c:	4603      	mov	r3, r0
 8003e4e:	f887 306f 	strb.w	r3, [r7, #111]	; 0x6f
 8003e52:	f997 306f 	ldrsb.w	r3, [r7, #111]	; 0x6f
 8003e56:	2b00      	cmp	r3, #0
 8003e58:	d103      	bne.n	8003e62 <VL53L0X_StaticInit+0x26e>
 8003e5a:	7cfa      	ldrb	r2, [r7, #19]
 8003e5c:	687b      	ldr	r3, [r7, #4]
 8003e5e:	f883 20e8 	strb.w	r2, [r3, #232]	; 0xe8
 8003e62:	f997 306f 	ldrsb.w	r3, [r7, #111]	; 0x6f
 8003e66:	2b00      	cmp	r3, #0
 8003e68:	d109      	bne.n	8003e7e <VL53L0X_StaticInit+0x28a>
 8003e6a:	f107 0313 	add.w	r3, r7, #19
 8003e6e:	461a      	mov	r2, r3
 8003e70:	2101      	movs	r1, #1
 8003e72:	6878      	ldr	r0, [r7, #4]
 8003e74:	f000 f970 	bl	8004158 <VL53L0X_GetVcselPulsePeriod>
 8003e78:	4603      	mov	r3, r0
 8003e7a:	f887 306f 	strb.w	r3, [r7, #111]	; 0x6f
 8003e7e:	f997 306f 	ldrsb.w	r3, [r7, #111]	; 0x6f
 8003e82:	2b00      	cmp	r3, #0
 8003e84:	d103      	bne.n	8003e8e <VL53L0X_StaticInit+0x29a>
 8003e86:	7cfa      	ldrb	r2, [r7, #19]
 8003e88:	687b      	ldr	r3, [r7, #4]
 8003e8a:	f883 20e0 	strb.w	r2, [r3, #224]	; 0xe0
 8003e8e:	f997 306f 	ldrsb.w	r3, [r7, #111]	; 0x6f
 8003e92:	2b00      	cmp	r3, #0
 8003e94:	d109      	bne.n	8003eaa <VL53L0X_StaticInit+0x2b6>
 8003e96:	f107 030c 	add.w	r3, r7, #12
 8003e9a:	461a      	mov	r2, r3
 8003e9c:	2103      	movs	r1, #3
 8003e9e:	6878      	ldr	r0, [r7, #4]
 8003ea0:	f002 ff0e 	bl	8006cc0 <get_sequence_step_timeout>
 8003ea4:	4603      	mov	r3, r0
 8003ea6:	f887 306f 	strb.w	r3, [r7, #111]	; 0x6f
 8003eaa:	f997 306f 	ldrsb.w	r3, [r7, #111]	; 0x6f
 8003eae:	2b00      	cmp	r3, #0
 8003eb0:	d103      	bne.n	8003eba <VL53L0X_StaticInit+0x2c6>
 8003eb2:	68fa      	ldr	r2, [r7, #12]
 8003eb4:	687b      	ldr	r3, [r7, #4]
 8003eb6:	f8c3 20e4 	str.w	r2, [r3, #228]	; 0xe4
 8003eba:	f997 306f 	ldrsb.w	r3, [r7, #111]	; 0x6f
 8003ebe:	2b00      	cmp	r3, #0
 8003ec0:	d109      	bne.n	8003ed6 <VL53L0X_StaticInit+0x2e2>
 8003ec2:	f107 030c 	add.w	r3, r7, #12
 8003ec6:	461a      	mov	r2, r3
 8003ec8:	2104      	movs	r1, #4
 8003eca:	6878      	ldr	r0, [r7, #4]
 8003ecc:	f002 fef8 	bl	8006cc0 <get_sequence_step_timeout>
 8003ed0:	4603      	mov	r3, r0
 8003ed2:	f887 306f 	strb.w	r3, [r7, #111]	; 0x6f
 8003ed6:	f997 306f 	ldrsb.w	r3, [r7, #111]	; 0x6f
 8003eda:	2b00      	cmp	r3, #0
 8003edc:	d103      	bne.n	8003ee6 <VL53L0X_StaticInit+0x2f2>
 8003ede:	68fa      	ldr	r2, [r7, #12]
 8003ee0:	687b      	ldr	r3, [r7, #4]
 8003ee2:	f8c3 20dc 	str.w	r2, [r3, #220]	; 0xdc
 8003ee6:	f997 306f 	ldrsb.w	r3, [r7, #111]	; 0x6f
 8003eea:	4618      	mov	r0, r3
 8003eec:	3770      	adds	r7, #112	; 0x70
 8003eee:	46bd      	mov	sp, r7
 8003ef0:	bdb0      	pop	{r4, r5, r7, pc}
 8003ef2:	bf00      	nop
 8003ef4:	2000000c 	.word	0x2000000c

08003ef8 <VL53L0X_GetDeviceParameters>:
 8003ef8:	b580      	push	{r7, lr}
 8003efa:	b084      	sub	sp, #16
 8003efc:	af00      	add	r7, sp, #0
 8003efe:	6078      	str	r0, [r7, #4]
 8003f00:	6039      	str	r1, [r7, #0]
 8003f02:	2300      	movs	r3, #0
 8003f04:	73fb      	strb	r3, [r7, #15]
 8003f06:	683b      	ldr	r3, [r7, #0]
 8003f08:	4619      	mov	r1, r3
 8003f0a:	6878      	ldr	r0, [r7, #4]
 8003f0c:	f000 f8cc 	bl	80040a8 <VL53L0X_GetDeviceMode>
 8003f10:	4603      	mov	r3, r0
 8003f12:	73fb      	strb	r3, [r7, #15]
 8003f14:	f997 300f 	ldrsb.w	r3, [r7, #15]
 8003f18:	2b00      	cmp	r3, #0
 8003f1a:	d107      	bne.n	8003f2c <VL53L0X_GetDeviceParameters+0x34>
 8003f1c:	683b      	ldr	r3, [r7, #0]
 8003f1e:	3308      	adds	r3, #8
 8003f20:	4619      	mov	r1, r3
 8003f22:	6878      	ldr	r0, [r7, #4]
 8003f24:	f000 fa7c 	bl	8004420 <VL53L0X_GetInterMeasurementPeriodMilliSeconds>
 8003f28:	4603      	mov	r3, r0
 8003f2a:	73fb      	strb	r3, [r7, #15]
 8003f2c:	f997 300f 	ldrsb.w	r3, [r7, #15]
 8003f30:	2b00      	cmp	r3, #0
 8003f32:	d102      	bne.n	8003f3a <VL53L0X_GetDeviceParameters+0x42>
 8003f34:	683b      	ldr	r3, [r7, #0]
 8003f36:	2200      	movs	r2, #0
 8003f38:	731a      	strb	r2, [r3, #12]
 8003f3a:	f997 300f 	ldrsb.w	r3, [r7, #15]
 8003f3e:	2b00      	cmp	r3, #0
 8003f40:	d107      	bne.n	8003f52 <VL53L0X_GetDeviceParameters+0x5a>
 8003f42:	683b      	ldr	r3, [r7, #0]
 8003f44:	3310      	adds	r3, #16
 8003f46:	4619      	mov	r1, r3
 8003f48:	6878      	ldr	r0, [r7, #4]
 8003f4a:	f000 fae6 	bl	800451a <VL53L0X_GetXTalkCompensationRateMegaCps>
 8003f4e:	4603      	mov	r3, r0
 8003f50:	73fb      	strb	r3, [r7, #15]
 8003f52:	f997 300f 	ldrsb.w	r3, [r7, #15]
 8003f56:	2b00      	cmp	r3, #0
 8003f58:	d107      	bne.n	8003f6a <VL53L0X_GetDeviceParameters+0x72>
 8003f5a:	683b      	ldr	r3, [r7, #0]
 8003f5c:	3314      	adds	r3, #20
 8003f5e:	4619      	mov	r1, r3
 8003f60:	6878      	ldr	r0, [r7, #4]
 8003f62:	f7ff fccf 	bl	8003904 <VL53L0X_GetOffsetCalibrationDataMicroMeter>
 8003f66:	4603      	mov	r3, r0
 8003f68:	73fb      	strb	r3, [r7, #15]
 8003f6a:	f997 300f 	ldrsb.w	r3, [r7, #15]
 8003f6e:	2b00      	cmp	r3, #0
 8003f70:	d134      	bne.n	8003fdc <VL53L0X_GetDeviceParameters+0xe4>
 8003f72:	2300      	movs	r3, #0
 8003f74:	60bb      	str	r3, [r7, #8]
 8003f76:	e02a      	b.n	8003fce <VL53L0X_GetDeviceParameters+0xd6>
 8003f78:	f997 300f 	ldrsb.w	r3, [r7, #15]
 8003f7c:	2b00      	cmp	r3, #0
 8003f7e:	d12a      	bne.n	8003fd6 <VL53L0X_GetDeviceParameters+0xde>
 8003f80:	68bb      	ldr	r3, [r7, #8]
 8003f82:	b299      	uxth	r1, r3
 8003f84:	68bb      	ldr	r3, [r7, #8]
 8003f86:	3308      	adds	r3, #8
 8003f88:	009b      	lsls	r3, r3, #2
 8003f8a:	683a      	ldr	r2, [r7, #0]
 8003f8c:	4413      	add	r3, r2
 8003f8e:	3304      	adds	r3, #4
 8003f90:	461a      	mov	r2, r3
 8003f92:	6878      	ldr	r0, [r7, #4]
 8003f94:	f000 fc06 	bl	80047a4 <VL53L0X_GetLimitCheckValue>
 8003f98:	4603      	mov	r3, r0
 8003f9a:	461a      	mov	r2, r3
 8003f9c:	7bfb      	ldrb	r3, [r7, #15]
 8003f9e:	4313      	orrs	r3, r2
 8003fa0:	73fb      	strb	r3, [r7, #15]
 8003fa2:	f997 300f 	ldrsb.w	r3, [r7, #15]
 8003fa6:	2b00      	cmp	r3, #0
 8003fa8:	d117      	bne.n	8003fda <VL53L0X_GetDeviceParameters+0xe2>
 8003faa:	68bb      	ldr	r3, [r7, #8]
 8003fac:	b299      	uxth	r1, r3
 8003fae:	68bb      	ldr	r3, [r7, #8]
 8003fb0:	3318      	adds	r3, #24
 8003fb2:	683a      	ldr	r2, [r7, #0]
 8003fb4:	4413      	add	r3, r2
 8003fb6:	461a      	mov	r2, r3
 8003fb8:	6878      	ldr	r0, [r7, #4]
 8003fba:	f000 fb6d 	bl	8004698 <VL53L0X_GetLimitCheckEnable>
 8003fbe:	4603      	mov	r3, r0
 8003fc0:	461a      	mov	r2, r3
 8003fc2:	7bfb      	ldrb	r3, [r7, #15]
 8003fc4:	4313      	orrs	r3, r2
 8003fc6:	73fb      	strb	r3, [r7, #15]
 8003fc8:	68bb      	ldr	r3, [r7, #8]
 8003fca:	3301      	adds	r3, #1
 8003fcc:	60bb      	str	r3, [r7, #8]
 8003fce:	68bb      	ldr	r3, [r7, #8]
 8003fd0:	2b05      	cmp	r3, #5
 8003fd2:	ddd1      	ble.n	8003f78 <VL53L0X_GetDeviceParameters+0x80>
 8003fd4:	e002      	b.n	8003fdc <VL53L0X_GetDeviceParameters+0xe4>
 8003fd6:	bf00      	nop
 8003fd8:	e000      	b.n	8003fdc <VL53L0X_GetDeviceParameters+0xe4>
 8003fda:	bf00      	nop
 8003fdc:	f997 300f 	ldrsb.w	r3, [r7, #15]
 8003fe0:	2b00      	cmp	r3, #0
 8003fe2:	d107      	bne.n	8003ff4 <VL53L0X_GetDeviceParameters+0xfc>
 8003fe4:	683b      	ldr	r3, [r7, #0]
 8003fe6:	333c      	adds	r3, #60	; 0x3c
 8003fe8:	4619      	mov	r1, r3
 8003fea:	6878      	ldr	r0, [r7, #4]
 8003fec:	f000 fc68 	bl	80048c0 <VL53L0X_GetWrapAroundCheckEnable>
 8003ff0:	4603      	mov	r3, r0
 8003ff2:	73fb      	strb	r3, [r7, #15]
 8003ff4:	f997 300f 	ldrsb.w	r3, [r7, #15]
 8003ff8:	2b00      	cmp	r3, #0
 8003ffa:	d107      	bne.n	800400c <VL53L0X_GetDeviceParameters+0x114>
 8003ffc:	683b      	ldr	r3, [r7, #0]
 8003ffe:	3304      	adds	r3, #4
 8004000:	4619      	mov	r1, r3
 8004002:	6878      	ldr	r0, [r7, #4]
 8004004:	f000 f895 	bl	8004132 <VL53L0X_GetMeasurementTimingBudgetMicroSeconds>
 8004008:	4603      	mov	r3, r0
 800400a:	73fb      	strb	r3, [r7, #15]
 800400c:	f997 300f 	ldrsb.w	r3, [r7, #15]
 8004010:	4618      	mov	r0, r3
 8004012:	3710      	adds	r7, #16
 8004014:	46bd      	mov	sp, r7
 8004016:	bd80      	pop	{r7, pc}

08004018 <VL53L0X_SetDeviceMode>:
 8004018:	b480      	push	{r7}
 800401a:	b085      	sub	sp, #20
 800401c:	af00      	add	r7, sp, #0
 800401e:	6078      	str	r0, [r7, #4]
 8004020:	460b      	mov	r3, r1
 8004022:	70fb      	strb	r3, [r7, #3]
 8004024:	2300      	movs	r3, #0
 8004026:	73fb      	strb	r3, [r7, #15]
 8004028:	78fb      	ldrb	r3, [r7, #3]
 800402a:	2b15      	cmp	r3, #21
 800402c:	d832      	bhi.n	8004094 <VL53L0X_SetDeviceMode+0x7c>
 800402e:	a201      	add	r2, pc, #4	; (adr r2, 8004034 <VL53L0X_SetDeviceMode+0x1c>)
 8004030:	f852 f023 	ldr.w	pc, [r2, r3, lsl #2]
 8004034:	0800408d 	.word	0x0800408d
 8004038:	0800408d 	.word	0x0800408d
 800403c:	08004095 	.word	0x08004095
 8004040:	0800408d 	.word	0x0800408d
 8004044:	08004095 	.word	0x08004095
 8004048:	08004095 	.word	0x08004095
 800404c:	08004095 	.word	0x08004095
 8004050:	08004095 	.word	0x08004095
 8004054:	08004095 	.word	0x08004095
 8004058:	08004095 	.word	0x08004095
 800405c:	08004095 	.word	0x08004095
 8004060:	08004095 	.word	0x08004095
 8004064:	08004095 	.word	0x08004095
 8004068:	08004095 	.word	0x08004095
 800406c:	08004095 	.word	0x08004095
 8004070:	08004095 	.word	0x08004095
 8004074:	08004095 	.word	0x08004095
 8004078:	08004095 	.word	0x08004095
 800407c:	08004095 	.word	0x08004095
 8004080:	08004095 	.word	0x08004095
 8004084:	0800408d 	.word	0x0800408d
 8004088:	0800408d 	.word	0x0800408d
 800408c:	687b      	ldr	r3, [r7, #4]
 800408e:	78fa      	ldrb	r2, [r7, #3]
 8004090:	741a      	strb	r2, [r3, #16]
 8004092:	e001      	b.n	8004098 <VL53L0X_SetDeviceMode+0x80>
 8004094:	23f8      	movs	r3, #248	; 0xf8
 8004096:	73fb      	strb	r3, [r7, #15]
 8004098:	f997 300f 	ldrsb.w	r3, [r7, #15]
 800409c:	4618      	mov	r0, r3
 800409e:	3714      	adds	r7, #20
 80040a0:	46bd      	mov	sp, r7
 80040a2:	f85d 7b04 	ldr.w	r7, [sp], #4
 80040a6:	4770      	bx	lr

080040a8 <VL53L0X_GetDeviceMode>:
 80040a8:	b480      	push	{r7}
 80040aa:	b085      	sub	sp, #20
 80040ac:	af00      	add	r7, sp, #0
 80040ae:	6078      	str	r0, [r7, #4]
 80040b0:	6039      	str	r1, [r7, #0]
 80040b2:	2300      	movs	r3, #0
 80040b4:	73fb      	strb	r3, [r7, #15]
 80040b6:	687b      	ldr	r3, [r7, #4]
 80040b8:	7c1a      	ldrb	r2, [r3, #16]
 80040ba:	683b      	ldr	r3, [r7, #0]
 80040bc:	701a      	strb	r2, [r3, #0]
 80040be:	f997 300f 	ldrsb.w	r3, [r7, #15]
 80040c2:	4618      	mov	r0, r3
 80040c4:	3714      	adds	r7, #20
 80040c6:	46bd      	mov	sp, r7
 80040c8:	f85d 7b04 	ldr.w	r7, [sp], #4
 80040cc:	4770      	bx	lr

080040ce <VL53L0X_GetFractionEnable>:
 80040ce:	b580      	push	{r7, lr}
 80040d0:	b084      	sub	sp, #16
 80040d2:	af00      	add	r7, sp, #0
 80040d4:	6078      	str	r0, [r7, #4]
 80040d6:	6039      	str	r1, [r7, #0]
 80040d8:	2300      	movs	r3, #0
 80040da:	73fb      	strb	r3, [r7, #15]
 80040dc:	683a      	ldr	r2, [r7, #0]
 80040de:	2109      	movs	r1, #9
 80040e0:	6878      	ldr	r0, [r7, #4]
 80040e2:	f004 f9e5 	bl	80084b0 <VL53L0X_RdByte>
 80040e6:	4603      	mov	r3, r0
 80040e8:	73fb      	strb	r3, [r7, #15]
 80040ea:	f997 300f 	ldrsb.w	r3, [r7, #15]
 80040ee:	2b00      	cmp	r3, #0
 80040f0:	d106      	bne.n	8004100 <VL53L0X_GetFractionEnable+0x32>
 80040f2:	683b      	ldr	r3, [r7, #0]
 80040f4:	781b      	ldrb	r3, [r3, #0]
 80040f6:	f003 0301 	and.w	r3, r3, #1
 80040fa:	b2da      	uxtb	r2, r3
 80040fc:	683b      	ldr	r3, [r7, #0]
 80040fe:	701a      	strb	r2, [r3, #0]
 8004100:	f997 300f 	ldrsb.w	r3, [r7, #15]
 8004104:	4618      	mov	r0, r3
 8004106:	3710      	adds	r7, #16
 8004108:	46bd      	mov	sp, r7
 800410a:	bd80      	pop	{r7, pc}

0800410c <VL53L0X_SetMeasurementTimingBudgetMicroSeconds>:
 800410c:	b580      	push	{r7, lr}
 800410e:	b084      	sub	sp, #16
 8004110:	af00      	add	r7, sp, #0
 8004112:	6078      	str	r0, [r7, #4]
 8004114:	6039      	str	r1, [r7, #0]
 8004116:	2300      	movs	r3, #0
 8004118:	73fb      	strb	r3, [r7, #15]
 800411a:	6839      	ldr	r1, [r7, #0]
 800411c:	6878      	ldr	r0, [r7, #4]
 800411e:	f002 ffd9 	bl	80070d4 <VL53L0X_set_measurement_timing_budget_micro_seconds>
 8004122:	4603      	mov	r3, r0
 8004124:	73fb      	strb	r3, [r7, #15]
 8004126:	f997 300f 	ldrsb.w	r3, [r7, #15]
 800412a:	4618      	mov	r0, r3
 800412c:	3710      	adds	r7, #16
 800412e:	46bd      	mov	sp, r7
 8004130:	bd80      	pop	{r7, pc}

08004132 <VL53L0X_GetMeasurementTimingBudgetMicroSeconds>:
 8004132:	b580      	push	{r7, lr}
 8004134:	b084      	sub	sp, #16
 8004136:	af00      	add	r7, sp, #0
 8004138:	6078      	str	r0, [r7, #4]
 800413a:	6039      	str	r1, [r7, #0]
 800413c:	2300      	movs	r3, #0
 800413e:	73fb      	strb	r3, [r7, #15]
 8004140:	6839      	ldr	r1, [r7, #0]
 8004142:	6878      	ldr	r0, [r7, #4]
 8004144:	f003 f8a6 	bl	8007294 <VL53L0X_get_measurement_timing_budget_micro_seconds>
 8004148:	4603      	mov	r3, r0
 800414a:	73fb      	strb	r3, [r7, #15]
 800414c:	f997 300f 	ldrsb.w	r3, [r7, #15]
 8004150:	4618      	mov	r0, r3
 8004152:	3710      	adds	r7, #16
 8004154:	46bd      	mov	sp, r7
 8004156:	bd80      	pop	{r7, pc}

08004158 <VL53L0X_GetVcselPulsePeriod>:
 8004158:	b580      	push	{r7, lr}
 800415a:	b086      	sub	sp, #24
 800415c:	af00      	add	r7, sp, #0
 800415e:	60f8      	str	r0, [r7, #12]
 8004160:	460b      	mov	r3, r1
 8004162:	607a      	str	r2, [r7, #4]
 8004164:	72fb      	strb	r3, [r7, #11]
 8004166:	2300      	movs	r3, #0
 8004168:	75fb      	strb	r3, [r7, #23]
 800416a:	7afb      	ldrb	r3, [r7, #11]
 800416c:	687a      	ldr	r2, [r7, #4]
 800416e:	4619      	mov	r1, r3
 8004170:	68f8      	ldr	r0, [r7, #12]
 8004172:	f002 ff78 	bl	8007066 <VL53L0X_get_vcsel_pulse_period>
 8004176:	4603      	mov	r3, r0
 8004178:	75fb      	strb	r3, [r7, #23]
 800417a:	f997 3017 	ldrsb.w	r3, [r7, #23]
 800417e:	4618      	mov	r0, r3
 8004180:	3718      	adds	r7, #24
 8004182:	46bd      	mov	sp, r7
 8004184:	bd80      	pop	{r7, pc}
	...

08004188 <VL53L0X_SetSequenceStepEnable>:
 8004188:	b580      	push	{r7, lr}
 800418a:	b086      	sub	sp, #24
 800418c:	af00      	add	r7, sp, #0
 800418e:	6078      	str	r0, [r7, #4]
 8004190:	460b      	mov	r3, r1
 8004192:	70fb      	strb	r3, [r7, #3]
 8004194:	4613      	mov	r3, r2
 8004196:	70bb      	strb	r3, [r7, #2]
 8004198:	2300      	movs	r3, #0
 800419a:	75fb      	strb	r3, [r7, #23]
 800419c:	2300      	movs	r3, #0
 800419e:	73fb      	strb	r3, [r7, #15]
 80041a0:	2300      	movs	r3, #0
 80041a2:	75bb      	strb	r3, [r7, #22]
 80041a4:	f107 030f 	add.w	r3, r7, #15
 80041a8:	461a      	mov	r2, r3
 80041aa:	2101      	movs	r1, #1
 80041ac:	6878      	ldr	r0, [r7, #4]
 80041ae:	f004 f97f 	bl	80084b0 <VL53L0X_RdByte>
 80041b2:	4603      	mov	r3, r0
 80041b4:	75fb      	strb	r3, [r7, #23]
 80041b6:	7bfb      	ldrb	r3, [r7, #15]
 80041b8:	75bb      	strb	r3, [r7, #22]
 80041ba:	f997 3017 	ldrsb.w	r3, [r7, #23]
 80041be:	2b00      	cmp	r3, #0
 80041c0:	d15a      	bne.n	8004278 <VL53L0X_SetSequenceStepEnable+0xf0>
 80041c2:	78bb      	ldrb	r3, [r7, #2]
 80041c4:	2b01      	cmp	r3, #1
 80041c6:	d12b      	bne.n	8004220 <VL53L0X_SetSequenceStepEnable+0x98>
 80041c8:	78fb      	ldrb	r3, [r7, #3]
 80041ca:	2b04      	cmp	r3, #4
 80041cc:	d825      	bhi.n	800421a <VL53L0X_SetSequenceStepEnable+0x92>
 80041ce:	a201      	add	r2, pc, #4	; (adr r2, 80041d4 <VL53L0X_SetSequenceStepEnable+0x4c>)
 80041d0:	f852 f023 	ldr.w	pc, [r2, r3, lsl #2]
 80041d4:	080041e9 	.word	0x080041e9
 80041d8:	080041f3 	.word	0x080041f3
 80041dc:	080041fd 	.word	0x080041fd
 80041e0:	08004207 	.word	0x08004207
 80041e4:	08004211 	.word	0x08004211
 80041e8:	7dbb      	ldrb	r3, [r7, #22]
 80041ea:	f043 0310 	orr.w	r3, r3, #16
 80041ee:	75bb      	strb	r3, [r7, #22]
 80041f0:	e043      	b.n	800427a <VL53L0X_SetSequenceStepEnable+0xf2>
 80041f2:	7dbb      	ldrb	r3, [r7, #22]
 80041f4:	f043 0328 	orr.w	r3, r3, #40	; 0x28
 80041f8:	75bb      	strb	r3, [r7, #22]
 80041fa:	e03e      	b.n	800427a <VL53L0X_SetSequenceStepEnable+0xf2>
 80041fc:	7dbb      	ldrb	r3, [r7, #22]
 80041fe:	f043 0304 	orr.w	r3, r3, #4
 8004202:	75bb      	strb	r3, [r7, #22]
 8004204:	e039      	b.n	800427a <VL53L0X_SetSequenceStepEnable+0xf2>
 8004206:	7dbb      	ldrb	r3, [r7, #22]
 8004208:	f043 0340 	orr.w	r3, r3, #64	; 0x40
 800420c:	75bb      	strb	r3, [r7, #22]
 800420e:	e034      	b.n	800427a <VL53L0X_SetSequenceStepEnable+0xf2>
 8004210:	7dbb      	ldrb	r3, [r7, #22]
 8004212:	f063 037f 	orn	r3, r3, #127	; 0x7f
 8004216:	75bb      	strb	r3, [r7, #22]
 8004218:	e02f      	b.n	800427a <VL53L0X_SetSequenceStepEnable+0xf2>
 800421a:	23fc      	movs	r3, #252	; 0xfc
 800421c:	75fb      	strb	r3, [r7, #23]
 800421e:	e02c      	b.n	800427a <VL53L0X_SetSequenceStepEnable+0xf2>
 8004220:	78fb      	ldrb	r3, [r7, #3]
 8004222:	2b04      	cmp	r3, #4
 8004224:	d825      	bhi.n	8004272 <VL53L0X_SetSequenceStepEnable+0xea>
 8004226:	a201      	add	r2, pc, #4	; (adr r2, 800422c <VL53L0X_SetSequenceStepEnable+0xa4>)
 8004228:	f852 f023 	ldr.w	pc, [r2, r3, lsl #2]
 800422c:	08004241 	.word	0x08004241
 8004230:	0800424b 	.word	0x0800424b
 8004234:	08004255 	.word	0x08004255
 8004238:	0800425f 	.word	0x0800425f
 800423c:	08004269 	.word	0x08004269
 8004240:	7dbb      	ldrb	r3, [r7, #22]
 8004242:	f023 0310 	bic.w	r3, r3, #16
 8004246:	75bb      	strb	r3, [r7, #22]
 8004248:	e017      	b.n	800427a <VL53L0X_SetSequenceStepEnable+0xf2>
 800424a:	7dbb      	ldrb	r3, [r7, #22]
 800424c:	f023 0328 	bic.w	r3, r3, #40	; 0x28
 8004250:	75bb      	strb	r3, [r7, #22]
 8004252:	e012      	b.n	800427a <VL53L0X_SetSequenceStepEnable+0xf2>
 8004254:	7dbb      	ldrb	r3, [r7, #22]
 8004256:	f023 0304 	bic.w	r3, r3, #4
 800425a:	75bb      	strb	r3, [r7, #22]
 800425c:	e00d      	b.n	800427a <VL53L0X_SetSequenceStepEnable+0xf2>
 800425e:	7dbb      	ldrb	r3, [r7, #22]
 8004260:	f023 0340 	bic.w	r3, r3, #64	; 0x40
 8004264:	75bb      	strb	r3, [r7, #22]
 8004266:	e008      	b.n	800427a <VL53L0X_SetSequenceStepEnable+0xf2>
 8004268:	7dbb      	ldrb	r3, [r7, #22]
 800426a:	f003 037f 	and.w	r3, r3, #127	; 0x7f
 800426e:	75bb      	strb	r3, [r7, #22]
 8004270:	e003      	b.n	800427a <VL53L0X_SetSequenceStepEnable+0xf2>
 8004272:	23fc      	movs	r3, #252	; 0xfc
 8004274:	75fb      	strb	r3, [r7, #23]
 8004276:	e000      	b.n	800427a <VL53L0X_SetSequenceStepEnable+0xf2>
 8004278:	bf00      	nop
 800427a:	7bfb      	ldrb	r3, [r7, #15]
 800427c:	7dba      	ldrb	r2, [r7, #22]
 800427e:	429a      	cmp	r2, r3
 8004280:	d01e      	beq.n	80042c0 <VL53L0X_SetSequenceStepEnable+0x138>
 8004282:	f997 3017 	ldrsb.w	r3, [r7, #23]
 8004286:	2b00      	cmp	r3, #0
 8004288:	d107      	bne.n	800429a <VL53L0X_SetSequenceStepEnable+0x112>
 800428a:	7dbb      	ldrb	r3, [r7, #22]
 800428c:	461a      	mov	r2, r3
 800428e:	2101      	movs	r1, #1
 8004290:	6878      	ldr	r0, [r7, #4]
 8004292:	f004 f88b 	bl	80083ac <VL53L0X_WrByte>
 8004296:	4603      	mov	r3, r0
 8004298:	75fb      	strb	r3, [r7, #23]
 800429a:	f997 3017 	ldrsb.w	r3, [r7, #23]
 800429e:	2b00      	cmp	r3, #0
 80042a0:	d103      	bne.n	80042aa <VL53L0X_SetSequenceStepEnable+0x122>
 80042a2:	687b      	ldr	r3, [r7, #4]
 80042a4:	7dba      	ldrb	r2, [r7, #22]
 80042a6:	f883 2130 	strb.w	r2, [r3, #304]	; 0x130
 80042aa:	f997 3017 	ldrsb.w	r3, [r7, #23]
 80042ae:	2b00      	cmp	r3, #0
 80042b0:	d106      	bne.n	80042c0 <VL53L0X_SetSequenceStepEnable+0x138>
 80042b2:	687b      	ldr	r3, [r7, #4]
 80042b4:	695b      	ldr	r3, [r3, #20]
 80042b6:	613b      	str	r3, [r7, #16]
 80042b8:	6939      	ldr	r1, [r7, #16]
 80042ba:	6878      	ldr	r0, [r7, #4]
 80042bc:	f7ff ff26 	bl	800410c <VL53L0X_SetMeasurementTimingBudgetMicroSeconds>
 80042c0:	f997 3017 	ldrsb.w	r3, [r7, #23]
 80042c4:	4618      	mov	r0, r3
 80042c6:	3718      	adds	r7, #24
 80042c8:	46bd      	mov	sp, r7
 80042ca:	bd80      	pop	{r7, pc}

080042cc <sequence_step_enabled>:
 80042cc:	b480      	push	{r7}
 80042ce:	b087      	sub	sp, #28
 80042d0:	af00      	add	r7, sp, #0
 80042d2:	60f8      	str	r0, [r7, #12]
 80042d4:	607b      	str	r3, [r7, #4]
 80042d6:	460b      	mov	r3, r1
 80042d8:	72fb      	strb	r3, [r7, #11]
 80042da:	4613      	mov	r3, r2
 80042dc:	72bb      	strb	r3, [r7, #10]
 80042de:	2300      	movs	r3, #0
 80042e0:	75fb      	strb	r3, [r7, #23]
 80042e2:	687b      	ldr	r3, [r7, #4]
 80042e4:	2200      	movs	r2, #0
 80042e6:	701a      	strb	r2, [r3, #0]
 80042e8:	7afb      	ldrb	r3, [r7, #11]
 80042ea:	2b04      	cmp	r3, #4
 80042ec:	d836      	bhi.n	800435c <sequence_step_enabled+0x90>
 80042ee:	a201      	add	r2, pc, #4	; (adr r2, 80042f4 <sequence_step_enabled+0x28>)
 80042f0:	f852 f023 	ldr.w	pc, [r2, r3, lsl #2]
 80042f4:	08004309 	.word	0x08004309
 80042f8:	0800431b 	.word	0x0800431b
 80042fc:	0800432d 	.word	0x0800432d
 8004300:	0800433f 	.word	0x0800433f
 8004304:	08004351 	.word	0x08004351
 8004308:	7abb      	ldrb	r3, [r7, #10]
 800430a:	111b      	asrs	r3, r3, #4
 800430c:	b2db      	uxtb	r3, r3
 800430e:	f003 0301 	and.w	r3, r3, #1
 8004312:	b2da      	uxtb	r2, r3
 8004314:	687b      	ldr	r3, [r7, #4]
 8004316:	701a      	strb	r2, [r3, #0]
 8004318:	e022      	b.n	8004360 <sequence_step_enabled+0x94>
 800431a:	7abb      	ldrb	r3, [r7, #10]
 800431c:	10db      	asrs	r3, r3, #3
 800431e:	b2db      	uxtb	r3, r3
 8004320:	f003 0301 	and.w	r3, r3, #1
 8004324:	b2da      	uxtb	r2, r3
 8004326:	687b      	ldr	r3, [r7, #4]
 8004328:	701a      	strb	r2, [r3, #0]
 800432a:	e019      	b.n	8004360 <sequence_step_enabled+0x94>
 800432c:	7abb      	ldrb	r3, [r7, #10]
 800432e:	109b      	asrs	r3, r3, #2
 8004330:	b2db      	uxtb	r3, r3
 8004332:	f003 0301 	and.w	r3, r3, #1
 8004336:	b2da      	uxtb	r2, r3
 8004338:	687b      	ldr	r3, [r7, #4]
 800433a:	701a      	strb	r2, [r3, #0]
 800433c:	e010      	b.n	8004360 <sequence_step_enabled+0x94>
 800433e:	7abb      	ldrb	r3, [r7, #10]
 8004340:	119b      	asrs	r3, r3, #6
 8004342:	b2db      	uxtb	r3, r3
 8004344:	f003 0301 	and.w	r3, r3, #1
 8004348:	b2da      	uxtb	r2, r3
 800434a:	687b      	ldr	r3, [r7, #4]
 800434c:	701a      	strb	r2, [r3, #0]
 800434e:	e007      	b.n	8004360 <sequence_step_enabled+0x94>
 8004350:	7abb      	ldrb	r3, [r7, #10]
 8004352:	09db      	lsrs	r3, r3, #7
 8004354:	b2da      	uxtb	r2, r3
 8004356:	687b      	ldr	r3, [r7, #4]
 8004358:	701a      	strb	r2, [r3, #0]
 800435a:	e001      	b.n	8004360 <sequence_step_enabled+0x94>
 800435c:	23fc      	movs	r3, #252	; 0xfc
 800435e:	75fb      	strb	r3, [r7, #23]
 8004360:	f997 3017 	ldrsb.w	r3, [r7, #23]
 8004364:	4618      	mov	r0, r3
 8004366:	371c      	adds	r7, #28
 8004368:	46bd      	mov	sp, r7
 800436a:	f85d 7b04 	ldr.w	r7, [sp], #4
 800436e:	4770      	bx	lr

08004370 <VL53L0X_GetSequenceStepEnables>:
 8004370:	b580      	push	{r7, lr}
 8004372:	b084      	sub	sp, #16
 8004374:	af00      	add	r7, sp, #0
 8004376:	6078      	str	r0, [r7, #4]
 8004378:	6039      	str	r1, [r7, #0]
 800437a:	2300      	movs	r3, #0
 800437c:	73fb      	strb	r3, [r7, #15]
 800437e:	2300      	movs	r3, #0
 8004380:	73bb      	strb	r3, [r7, #14]
 8004382:	f107 030e 	add.w	r3, r7, #14
 8004386:	461a      	mov	r2, r3
 8004388:	2101      	movs	r1, #1
 800438a:	6878      	ldr	r0, [r7, #4]
 800438c:	f004 f890 	bl	80084b0 <VL53L0X_RdByte>
 8004390:	4603      	mov	r3, r0
 8004392:	73fb      	strb	r3, [r7, #15]
 8004394:	f997 300f 	ldrsb.w	r3, [r7, #15]
 8004398:	2b00      	cmp	r3, #0
 800439a:	d107      	bne.n	80043ac <VL53L0X_GetSequenceStepEnables+0x3c>
 800439c:	7bba      	ldrb	r2, [r7, #14]
 800439e:	683b      	ldr	r3, [r7, #0]
 80043a0:	2100      	movs	r1, #0
 80043a2:	6878      	ldr	r0, [r7, #4]
 80043a4:	f7ff ff92 	bl	80042cc <sequence_step_enabled>
 80043a8:	4603      	mov	r3, r0
 80043aa:	73fb      	strb	r3, [r7, #15]
 80043ac:	f997 300f 	ldrsb.w	r3, [r7, #15]
 80043b0:	2b00      	cmp	r3, #0
 80043b2:	d108      	bne.n	80043c6 <VL53L0X_GetSequenceStepEnables+0x56>
 80043b4:	7bba      	ldrb	r2, [r7, #14]
 80043b6:	683b      	ldr	r3, [r7, #0]
 80043b8:	3302      	adds	r3, #2
 80043ba:	2101      	movs	r1, #1
 80043bc:	6878      	ldr	r0, [r7, #4]
 80043be:	f7ff ff85 	bl	80042cc <sequence_step_enabled>
 80043c2:	4603      	mov	r3, r0
 80043c4:	73fb      	strb	r3, [r7, #15]
 80043c6:	f997 300f 	ldrsb.w	r3, [r7, #15]
 80043ca:	2b00      	cmp	r3, #0
 80043cc:	d108      	bne.n	80043e0 <VL53L0X_GetSequenceStepEnables+0x70>
 80043ce:	7bba      	ldrb	r2, [r7, #14]
 80043d0:	683b      	ldr	r3, [r7, #0]
 80043d2:	3301      	adds	r3, #1
 80043d4:	2102      	movs	r1, #2
 80043d6:	6878      	ldr	r0, [r7, #4]
 80043d8:	f7ff ff78 	bl	80042cc <sequence_step_enabled>
 80043dc:	4603      	mov	r3, r0
 80043de:	73fb      	strb	r3, [r7, #15]
 80043e0:	f997 300f 	ldrsb.w	r3, [r7, #15]
 80043e4:	2b00      	cmp	r3, #0
 80043e6:	d108      	bne.n	80043fa <VL53L0X_GetSequenceStepEnables+0x8a>
 80043e8:	7bba      	ldrb	r2, [r7, #14]
 80043ea:	683b      	ldr	r3, [r7, #0]
 80043ec:	3303      	adds	r3, #3
 80043ee:	2103      	movs	r1, #3
 80043f0:	6878      	ldr	r0, [r7, #4]
 80043f2:	f7ff ff6b 	bl	80042cc <sequence_step_enabled>
 80043f6:	4603      	mov	r3, r0
 80043f8:	73fb      	strb	r3, [r7, #15]
 80043fa:	f997 300f 	ldrsb.w	r3, [r7, #15]
 80043fe:	2b00      	cmp	r3, #0
 8004400:	d108      	bne.n	8004414 <VL53L0X_GetSequenceStepEnables+0xa4>
 8004402:	7bba      	ldrb	r2, [r7, #14]
 8004404:	683b      	ldr	r3, [r7, #0]
 8004406:	3304      	adds	r3, #4
 8004408:	2104      	movs	r1, #4
 800440a:	6878      	ldr	r0, [r7, #4]
 800440c:	f7ff ff5e 	bl	80042cc <sequence_step_enabled>
 8004410:	4603      	mov	r3, r0
 8004412:	73fb      	strb	r3, [r7, #15]
 8004414:	f997 300f 	ldrsb.w	r3, [r7, #15]
 8004418:	4618      	mov	r0, r3
 800441a:	3710      	adds	r7, #16
 800441c:	46bd      	mov	sp, r7
 800441e:	bd80      	pop	{r7, pc}

08004420 <VL53L0X_GetInterMeasurementPeriodMilliSeconds>:
 8004420:	b580      	push	{r7, lr}
 8004422:	b084      	sub	sp, #16
 8004424:	af00      	add	r7, sp, #0
 8004426:	6078      	str	r0, [r7, #4]
 8004428:	6039      	str	r1, [r7, #0]
 800442a:	2300      	movs	r3, #0
 800442c:	73fb      	strb	r3, [r7, #15]
 800442e:	f107 030c 	add.w	r3, r7, #12
 8004432:	461a      	mov	r2, r3
 8004434:	21f8      	movs	r1, #248	; 0xf8
 8004436:	6878      	ldr	r0, [r7, #4]
 8004438:	f004 f864 	bl	8008504 <VL53L0X_RdWord>
 800443c:	4603      	mov	r3, r0
 800443e:	73fb      	strb	r3, [r7, #15]
 8004440:	f997 300f 	ldrsb.w	r3, [r7, #15]
 8004444:	2b00      	cmp	r3, #0
 8004446:	d108      	bne.n	800445a <VL53L0X_GetInterMeasurementPeriodMilliSeconds+0x3a>
 8004448:	f107 0308 	add.w	r3, r7, #8
 800444c:	461a      	mov	r2, r3
 800444e:	2104      	movs	r1, #4
 8004450:	6878      	ldr	r0, [r7, #4]
 8004452:	f004 f88f 	bl	8008574 <VL53L0X_RdDWord>
 8004456:	4603      	mov	r3, r0
 8004458:	73fb      	strb	r3, [r7, #15]
 800445a:	f997 300f 	ldrsb.w	r3, [r7, #15]
 800445e:	2b00      	cmp	r3, #0
 8004460:	d10c      	bne.n	800447c <VL53L0X_GetInterMeasurementPeriodMilliSeconds+0x5c>
 8004462:	89bb      	ldrh	r3, [r7, #12]
 8004464:	2b00      	cmp	r3, #0
 8004466:	d005      	beq.n	8004474 <VL53L0X_GetInterMeasurementPeriodMilliSeconds+0x54>
 8004468:	68bb      	ldr	r3, [r7, #8]
 800446a:	89ba      	ldrh	r2, [r7, #12]
 800446c:	fbb3 f2f2 	udiv	r2, r3, r2
 8004470:	683b      	ldr	r3, [r7, #0]
 8004472:	601a      	str	r2, [r3, #0]
 8004474:	683b      	ldr	r3, [r7, #0]
 8004476:	681a      	ldr	r2, [r3, #0]
 8004478:	687b      	ldr	r3, [r7, #4]
 800447a:	619a      	str	r2, [r3, #24]
 800447c:	f997 300f 	ldrsb.w	r3, [r7, #15]
 8004480:	4618      	mov	r0, r3
 8004482:	3710      	adds	r7, #16
 8004484:	46bd      	mov	sp, r7
 8004486:	bd80      	pop	{r7, pc}

08004488 <VL53L0X_GetXTalkCompensationEnable>:
 8004488:	b480      	push	{r7}
 800448a:	b085      	sub	sp, #20
 800448c:	af00      	add	r7, sp, #0
 800448e:	6078      	str	r0, [r7, #4]
 8004490:	6039      	str	r1, [r7, #0]
 8004492:	2300      	movs	r3, #0
 8004494:	73fb      	strb	r3, [r7, #15]
 8004496:	687b      	ldr	r3, [r7, #4]
 8004498:	7f1b      	ldrb	r3, [r3, #28]
 800449a:	73bb      	strb	r3, [r7, #14]
 800449c:	683b      	ldr	r3, [r7, #0]
 800449e:	7bba      	ldrb	r2, [r7, #14]
 80044a0:	701a      	strb	r2, [r3, #0]
 80044a2:	f997 300f 	ldrsb.w	r3, [r7, #15]
 80044a6:	4618      	mov	r0, r3
 80044a8:	3714      	adds	r7, #20
 80044aa:	46bd      	mov	sp, r7
 80044ac:	f85d 7b04 	ldr.w	r7, [sp], #4
 80044b0:	4770      	bx	lr

080044b2 <VL53L0X_SetXTalkCompensationRateMegaCps>:
 80044b2:	b580      	push	{r7, lr}
 80044b4:	b084      	sub	sp, #16
 80044b6:	af00      	add	r7, sp, #0
 80044b8:	6078      	str	r0, [r7, #4]
 80044ba:	6039      	str	r1, [r7, #0]
 80044bc:	2300      	movs	r3, #0
 80044be:	73fb      	strb	r3, [r7, #15]
 80044c0:	687b      	ldr	r3, [r7, #4]
 80044c2:	7f1b      	ldrb	r3, [r3, #28]
 80044c4:	72fb      	strb	r3, [r7, #11]
 80044c6:	687b      	ldr	r3, [r7, #4]
 80044c8:	f8b3 3152 	ldrh.w	r3, [r3, #338]	; 0x152
 80044cc:	813b      	strh	r3, [r7, #8]
 80044ce:	7afb      	ldrb	r3, [r7, #11]
 80044d0:	2b00      	cmp	r3, #0
 80044d2:	d103      	bne.n	80044dc <VL53L0X_SetXTalkCompensationRateMegaCps+0x2a>
 80044d4:	687b      	ldr	r3, [r7, #4]
 80044d6:	683a      	ldr	r2, [r7, #0]
 80044d8:	621a      	str	r2, [r3, #32]
 80044da:	e018      	b.n	800450e <VL53L0X_SetXTalkCompensationRateMegaCps+0x5c>
 80044dc:	893b      	ldrh	r3, [r7, #8]
 80044de:	f5b3 7f7a 	cmp.w	r3, #1000	; 0x3e8
 80044e2:	d103      	bne.n	80044ec <VL53L0X_SetXTalkCompensationRateMegaCps+0x3a>
 80044e4:	683b      	ldr	r3, [r7, #0]
 80044e6:	08db      	lsrs	r3, r3, #3
 80044e8:	81bb      	strh	r3, [r7, #12]
 80044ea:	e001      	b.n	80044f0 <VL53L0X_SetXTalkCompensationRateMegaCps+0x3e>
 80044ec:	2300      	movs	r3, #0
 80044ee:	81bb      	strh	r3, [r7, #12]
 80044f0:	89bb      	ldrh	r3, [r7, #12]
 80044f2:	461a      	mov	r2, r3
 80044f4:	2120      	movs	r1, #32
 80044f6:	6878      	ldr	r0, [r7, #4]
 80044f8:	f003 ff7c 	bl	80083f4 <VL53L0X_WrWord>
 80044fc:	4603      	mov	r3, r0
 80044fe:	73fb      	strb	r3, [r7, #15]
 8004500:	f997 300f 	ldrsb.w	r3, [r7, #15]
 8004504:	2b00      	cmp	r3, #0
 8004506:	d102      	bne.n	800450e <VL53L0X_SetXTalkCompensationRateMegaCps+0x5c>
 8004508:	687b      	ldr	r3, [r7, #4]
 800450a:	683a      	ldr	r2, [r7, #0]
 800450c:	621a      	str	r2, [r3, #32]
 800450e:	f997 300f 	ldrsb.w	r3, [r7, #15]
 8004512:	4618      	mov	r0, r3
 8004514:	3710      	adds	r7, #16
 8004516:	46bd      	mov	sp, r7
 8004518:	bd80      	pop	{r7, pc}

0800451a <VL53L0X_GetXTalkCompensationRateMegaCps>:
 800451a:	b580      	push	{r7, lr}
 800451c:	b086      	sub	sp, #24
 800451e:	af00      	add	r7, sp, #0
 8004520:	6078      	str	r0, [r7, #4]
 8004522:	6039      	str	r1, [r7, #0]
 8004524:	2300      	movs	r3, #0
 8004526:	75fb      	strb	r3, [r7, #23]
 8004528:	f107 030e 	add.w	r3, r7, #14
 800452c:	461a      	mov	r2, r3
 800452e:	2120      	movs	r1, #32
 8004530:	6878      	ldr	r0, [r7, #4]
 8004532:	f003 ffe7 	bl	8008504 <VL53L0X_RdWord>
 8004536:	4603      	mov	r3, r0
 8004538:	75fb      	strb	r3, [r7, #23]
 800453a:	f997 3017 	ldrsb.w	r3, [r7, #23]
 800453e:	2b00      	cmp	r3, #0
 8004540:	d118      	bne.n	8004574 <VL53L0X_GetXTalkCompensationRateMegaCps+0x5a>
 8004542:	89fb      	ldrh	r3, [r7, #14]
 8004544:	2b00      	cmp	r3, #0
 8004546:	d109      	bne.n	800455c <VL53L0X_GetXTalkCompensationRateMegaCps+0x42>
 8004548:	687b      	ldr	r3, [r7, #4]
 800454a:	6a1b      	ldr	r3, [r3, #32]
 800454c:	613b      	str	r3, [r7, #16]
 800454e:	683b      	ldr	r3, [r7, #0]
 8004550:	693a      	ldr	r2, [r7, #16]
 8004552:	601a      	str	r2, [r3, #0]
 8004554:	687b      	ldr	r3, [r7, #4]
 8004556:	2200      	movs	r2, #0
 8004558:	771a      	strb	r2, [r3, #28]
 800455a:	e00b      	b.n	8004574 <VL53L0X_GetXTalkCompensationRateMegaCps+0x5a>
 800455c:	89fb      	ldrh	r3, [r7, #14]
 800455e:	00db      	lsls	r3, r3, #3
 8004560:	613b      	str	r3, [r7, #16]
 8004562:	683b      	ldr	r3, [r7, #0]
 8004564:	693a      	ldr	r2, [r7, #16]
 8004566:	601a      	str	r2, [r3, #0]
 8004568:	687b      	ldr	r3, [r7, #4]
 800456a:	693a      	ldr	r2, [r7, #16]
 800456c:	621a      	str	r2, [r3, #32]
 800456e:	687b      	ldr	r3, [r7, #4]
 8004570:	2201      	movs	r2, #1
 8004572:	771a      	strb	r2, [r3, #28]
 8004574:	f997 3017 	ldrsb.w	r3, [r7, #23]
 8004578:	4618      	mov	r0, r3
 800457a:	3718      	adds	r7, #24
 800457c:	46bd      	mov	sp, r7
 800457e:	bd80      	pop	{r7, pc}

08004580 <VL53L0X_SetLimitCheckEnable>:
 8004580:	b580      	push	{r7, lr}
 8004582:	b086      	sub	sp, #24
 8004584:	af00      	add	r7, sp, #0
 8004586:	6078      	str	r0, [r7, #4]
 8004588:	460b      	mov	r3, r1
 800458a:	807b      	strh	r3, [r7, #2]
 800458c:	4613      	mov	r3, r2
 800458e:	707b      	strb	r3, [r7, #1]
 8004590:	2300      	movs	r3, #0
 8004592:	75fb      	strb	r3, [r7, #23]
 8004594:	2300      	movs	r3, #0
 8004596:	613b      	str	r3, [r7, #16]
 8004598:	2300      	movs	r3, #0
 800459a:	73fb      	strb	r3, [r7, #15]
 800459c:	2300      	movs	r3, #0
 800459e:	73bb      	strb	r3, [r7, #14]
 80045a0:	887b      	ldrh	r3, [r7, #2]
 80045a2:	2b05      	cmp	r3, #5
 80045a4:	d902      	bls.n	80045ac <VL53L0X_SetLimitCheckEnable+0x2c>
 80045a6:	23fc      	movs	r3, #252	; 0xfc
 80045a8:	75fb      	strb	r3, [r7, #23]
 80045aa:	e05b      	b.n	8004664 <VL53L0X_SetLimitCheckEnable+0xe4>
 80045ac:	787b      	ldrb	r3, [r7, #1]
 80045ae:	2b00      	cmp	r3, #0
 80045b0:	d106      	bne.n	80045c0 <VL53L0X_SetLimitCheckEnable+0x40>
 80045b2:	2300      	movs	r3, #0
 80045b4:	613b      	str	r3, [r7, #16]
 80045b6:	2300      	movs	r3, #0
 80045b8:	73fb      	strb	r3, [r7, #15]
 80045ba:	2301      	movs	r3, #1
 80045bc:	73bb      	strb	r3, [r7, #14]
 80045be:	e00a      	b.n	80045d6 <VL53L0X_SetLimitCheckEnable+0x56>
 80045c0:	887b      	ldrh	r3, [r7, #2]
 80045c2:	687a      	ldr	r2, [r7, #4]
 80045c4:	330c      	adds	r3, #12
 80045c6:	009b      	lsls	r3, r3, #2
 80045c8:	4413      	add	r3, r2
 80045ca:	685b      	ldr	r3, [r3, #4]
 80045cc:	613b      	str	r3, [r7, #16]
 80045ce:	2300      	movs	r3, #0
 80045d0:	73bb      	strb	r3, [r7, #14]
 80045d2:	2301      	movs	r3, #1
 80045d4:	73fb      	strb	r3, [r7, #15]
 80045d6:	887b      	ldrh	r3, [r7, #2]
 80045d8:	2b05      	cmp	r3, #5
 80045da:	d841      	bhi.n	8004660 <VL53L0X_SetLimitCheckEnable+0xe0>
 80045dc:	a201      	add	r2, pc, #4	; (adr r2, 80045e4 <VL53L0X_SetLimitCheckEnable+0x64>)
 80045de:	f852 f023 	ldr.w	pc, [r2, r3, lsl #2]
 80045e2:	bf00      	nop
 80045e4:	080045fd 	.word	0x080045fd
 80045e8:	08004607 	.word	0x08004607
 80045ec:	0800461d 	.word	0x0800461d
 80045f0:	08004627 	.word	0x08004627
 80045f4:	08004631 	.word	0x08004631
 80045f8:	08004649 	.word	0x08004649
 80045fc:	687b      	ldr	r3, [r7, #4]
 80045fe:	7bfa      	ldrb	r2, [r7, #15]
 8004600:	f883 2028 	strb.w	r2, [r3, #40]	; 0x28
 8004604:	e02e      	b.n	8004664 <VL53L0X_SetLimitCheckEnable+0xe4>
 8004606:	693b      	ldr	r3, [r7, #16]
 8004608:	0a5b      	lsrs	r3, r3, #9
 800460a:	b29b      	uxth	r3, r3
 800460c:	461a      	mov	r2, r3
 800460e:	2144      	movs	r1, #68	; 0x44
 8004610:	6878      	ldr	r0, [r7, #4]
 8004612:	f003 feef 	bl	80083f4 <VL53L0X_WrWord>
 8004616:	4603      	mov	r3, r0
 8004618:	75fb      	strb	r3, [r7, #23]
 800461a:	e023      	b.n	8004664 <VL53L0X_SetLimitCheckEnable+0xe4>
 800461c:	687b      	ldr	r3, [r7, #4]
 800461e:	7bfa      	ldrb	r2, [r7, #15]
 8004620:	f883 202a 	strb.w	r2, [r3, #42]	; 0x2a
 8004624:	e01e      	b.n	8004664 <VL53L0X_SetLimitCheckEnable+0xe4>
 8004626:	687b      	ldr	r3, [r7, #4]
 8004628:	7bfa      	ldrb	r2, [r7, #15]
 800462a:	f883 202b 	strb.w	r2, [r3, #43]	; 0x2b
 800462e:	e019      	b.n	8004664 <VL53L0X_SetLimitCheckEnable+0xe4>
 8004630:	7bbb      	ldrb	r3, [r7, #14]
 8004632:	005b      	lsls	r3, r3, #1
 8004634:	737b      	strb	r3, [r7, #13]
 8004636:	7b7b      	ldrb	r3, [r7, #13]
 8004638:	22fe      	movs	r2, #254	; 0xfe
 800463a:	2160      	movs	r1, #96	; 0x60
 800463c:	6878      	ldr	r0, [r7, #4]
 800463e:	f003 ff03 	bl	8008448 <VL53L0X_UpdateByte>
 8004642:	4603      	mov	r3, r0
 8004644:	75fb      	strb	r3, [r7, #23]
 8004646:	e00d      	b.n	8004664 <VL53L0X_SetLimitCheckEnable+0xe4>
 8004648:	7bbb      	ldrb	r3, [r7, #14]
 800464a:	011b      	lsls	r3, r3, #4
 800464c:	737b      	strb	r3, [r7, #13]
 800464e:	7b7b      	ldrb	r3, [r7, #13]
 8004650:	22ef      	movs	r2, #239	; 0xef
 8004652:	2160      	movs	r1, #96	; 0x60
 8004654:	6878      	ldr	r0, [r7, #4]
 8004656:	f003 fef7 	bl	8008448 <VL53L0X_UpdateByte>
 800465a:	4603      	mov	r3, r0
 800465c:	75fb      	strb	r3, [r7, #23]
 800465e:	e001      	b.n	8004664 <VL53L0X_SetLimitCheckEnable+0xe4>
 8004660:	23fc      	movs	r3, #252	; 0xfc
 8004662:	75fb      	strb	r3, [r7, #23]
 8004664:	f997 3017 	ldrsb.w	r3, [r7, #23]
 8004668:	2b00      	cmp	r3, #0
 800466a:	d10f      	bne.n	800468c <VL53L0X_SetLimitCheckEnable+0x10c>
 800466c:	787b      	ldrb	r3, [r7, #1]
 800466e:	2b00      	cmp	r3, #0
 8004670:	d106      	bne.n	8004680 <VL53L0X_SetLimitCheckEnable+0x100>
 8004672:	887b      	ldrh	r3, [r7, #2]
 8004674:	687a      	ldr	r2, [r7, #4]
 8004676:	4413      	add	r3, r2
 8004678:	2200      	movs	r2, #0
 800467a:	f883 2028 	strb.w	r2, [r3, #40]	; 0x28
 800467e:	e005      	b.n	800468c <VL53L0X_SetLimitCheckEnable+0x10c>
 8004680:	887b      	ldrh	r3, [r7, #2]
 8004682:	687a      	ldr	r2, [r7, #4]
 8004684:	4413      	add	r3, r2
 8004686:	2201      	movs	r2, #1
 8004688:	f883 2028 	strb.w	r2, [r3, #40]	; 0x28
 800468c:	f997 3017 	ldrsb.w	r3, [r7, #23]
 8004690:	4618      	mov	r0, r3
 8004692:	3718      	adds	r7, #24
 8004694:	46bd      	mov	sp, r7
 8004696:	bd80      	pop	{r7, pc}

08004698 <VL53L0X_GetLimitCheckEnable>:
 8004698:	b480      	push	{r7}
 800469a:	b087      	sub	sp, #28
 800469c:	af00      	add	r7, sp, #0
 800469e:	60f8      	str	r0, [r7, #12]
 80046a0:	460b      	mov	r3, r1
 80046a2:	607a      	str	r2, [r7, #4]
 80046a4:	817b      	strh	r3, [r7, #10]
 80046a6:	2300      	movs	r3, #0
 80046a8:	75fb      	strb	r3, [r7, #23]
 80046aa:	897b      	ldrh	r3, [r7, #10]
 80046ac:	2b05      	cmp	r3, #5
 80046ae:	d905      	bls.n	80046bc <VL53L0X_GetLimitCheckEnable+0x24>
 80046b0:	23fc      	movs	r3, #252	; 0xfc
 80046b2:	75fb      	strb	r3, [r7, #23]
 80046b4:	687b      	ldr	r3, [r7, #4]
 80046b6:	2200      	movs	r2, #0
 80046b8:	701a      	strb	r2, [r3, #0]
 80046ba:	e008      	b.n	80046ce <VL53L0X_GetLimitCheckEnable+0x36>
 80046bc:	897b      	ldrh	r3, [r7, #10]
 80046be:	68fa      	ldr	r2, [r7, #12]
 80046c0:	4413      	add	r3, r2
 80046c2:	f893 3028 	ldrb.w	r3, [r3, #40]	; 0x28
 80046c6:	75bb      	strb	r3, [r7, #22]
 80046c8:	687b      	ldr	r3, [r7, #4]
 80046ca:	7dba      	ldrb	r2, [r7, #22]
 80046cc:	701a      	strb	r2, [r3, #0]
 80046ce:	f997 3017 	ldrsb.w	r3, [r7, #23]
 80046d2:	4618      	mov	r0, r3
 80046d4:	371c      	adds	r7, #28
 80046d6:	46bd      	mov	sp, r7
 80046d8:	f85d 7b04 	ldr.w	r7, [sp], #4
 80046dc:	4770      	bx	lr
	...

080046e0 <VL53L0X_SetLimitCheckValue>:
 80046e0:	b580      	push	{r7, lr}
 80046e2:	b086      	sub	sp, #24
 80046e4:	af00      	add	r7, sp, #0
 80046e6:	60f8      	str	r0, [r7, #12]
 80046e8:	460b      	mov	r3, r1
 80046ea:	607a      	str	r2, [r7, #4]
 80046ec:	817b      	strh	r3, [r7, #10]
 80046ee:	2300      	movs	r3, #0
 80046f0:	75fb      	strb	r3, [r7, #23]
 80046f2:	897b      	ldrh	r3, [r7, #10]
 80046f4:	68fa      	ldr	r2, [r7, #12]
 80046f6:	4413      	add	r3, r2
 80046f8:	f893 3028 	ldrb.w	r3, [r3, #40]	; 0x28
 80046fc:	75bb      	strb	r3, [r7, #22]
 80046fe:	7dbb      	ldrb	r3, [r7, #22]
 8004700:	2b00      	cmp	r3, #0
 8004702:	d107      	bne.n	8004714 <VL53L0X_SetLimitCheckValue+0x34>
 8004704:	897b      	ldrh	r3, [r7, #10]
 8004706:	68fa      	ldr	r2, [r7, #12]
 8004708:	330c      	adds	r3, #12
 800470a:	009b      	lsls	r3, r3, #2
 800470c:	4413      	add	r3, r2
 800470e:	687a      	ldr	r2, [r7, #4]
 8004710:	605a      	str	r2, [r3, #4]
 8004712:	e040      	b.n	8004796 <VL53L0X_SetLimitCheckValue+0xb6>
 8004714:	897b      	ldrh	r3, [r7, #10]
 8004716:	2b05      	cmp	r3, #5
 8004718:	d830      	bhi.n	800477c <VL53L0X_SetLimitCheckValue+0x9c>
 800471a:	a201      	add	r2, pc, #4	; (adr r2, 8004720 <VL53L0X_SetLimitCheckValue+0x40>)
 800471c:	f852 f023 	ldr.w	pc, [r2, r3, lsl #2]
 8004720:	08004739 	.word	0x08004739
 8004724:	08004741 	.word	0x08004741
 8004728:	08004757 	.word	0x08004757
 800472c:	0800475f 	.word	0x0800475f
 8004730:	08004767 	.word	0x08004767
 8004734:	08004767 	.word	0x08004767
 8004738:	68fb      	ldr	r3, [r7, #12]
 800473a:	687a      	ldr	r2, [r7, #4]
 800473c:	635a      	str	r2, [r3, #52]	; 0x34
 800473e:	e01f      	b.n	8004780 <VL53L0X_SetLimitCheckValue+0xa0>
 8004740:	687b      	ldr	r3, [r7, #4]
 8004742:	0a5b      	lsrs	r3, r3, #9
 8004744:	b29b      	uxth	r3, r3
 8004746:	461a      	mov	r2, r3
 8004748:	2144      	movs	r1, #68	; 0x44
 800474a:	68f8      	ldr	r0, [r7, #12]
 800474c:	f003 fe52 	bl	80083f4 <VL53L0X_WrWord>
 8004750:	4603      	mov	r3, r0
 8004752:	75fb      	strb	r3, [r7, #23]
 8004754:	e014      	b.n	8004780 <VL53L0X_SetLimitCheckValue+0xa0>
 8004756:	68fb      	ldr	r3, [r7, #12]
 8004758:	687a      	ldr	r2, [r7, #4]
 800475a:	63da      	str	r2, [r3, #60]	; 0x3c
 800475c:	e010      	b.n	8004780 <VL53L0X_SetLimitCheckValue+0xa0>
 800475e:	68fb      	ldr	r3, [r7, #12]
 8004760:	687a      	ldr	r2, [r7, #4]
 8004762:	641a      	str	r2, [r3, #64]	; 0x40
 8004764:	e00c      	b.n	8004780 <VL53L0X_SetLimitCheckValue+0xa0>
 8004766:	687b      	ldr	r3, [r7, #4]
 8004768:	0a5b      	lsrs	r3, r3, #9
 800476a:	b29b      	uxth	r3, r3
 800476c:	461a      	mov	r2, r3
 800476e:	2164      	movs	r1, #100	; 0x64
 8004770:	68f8      	ldr	r0, [r7, #12]
 8004772:	f003 fe3f 	bl	80083f4 <VL53L0X_WrWord>
 8004776:	4603      	mov	r3, r0
 8004778:	75fb      	strb	r3, [r7, #23]
 800477a:	e001      	b.n	8004780 <VL53L0X_SetLimitCheckValue+0xa0>
 800477c:	23fc      	movs	r3, #252	; 0xfc
 800477e:	75fb      	strb	r3, [r7, #23]
 8004780:	f997 3017 	ldrsb.w	r3, [r7, #23]
 8004784:	2b00      	cmp	r3, #0
 8004786:	d106      	bne.n	8004796 <VL53L0X_SetLimitCheckValue+0xb6>
 8004788:	897b      	ldrh	r3, [r7, #10]
 800478a:	68fa      	ldr	r2, [r7, #12]
 800478c:	330c      	adds	r3, #12
 800478e:	009b      	lsls	r3, r3, #2
 8004790:	4413      	add	r3, r2
 8004792:	687a      	ldr	r2, [r7, #4]
 8004794:	605a      	str	r2, [r3, #4]
 8004796:	f997 3017 	ldrsb.w	r3, [r7, #23]
 800479a:	4618      	mov	r0, r3
 800479c:	3718      	adds	r7, #24
 800479e:	46bd      	mov	sp, r7
 80047a0:	bd80      	pop	{r7, pc}
 80047a2:	bf00      	nop

080047a4 <VL53L0X_GetLimitCheckValue>:
 80047a4:	b580      	push	{r7, lr}
 80047a6:	b088      	sub	sp, #32
 80047a8:	af00      	add	r7, sp, #0
 80047aa:	60f8      	str	r0, [r7, #12]
 80047ac:	460b      	mov	r3, r1
 80047ae:	607a      	str	r2, [r7, #4]
 80047b0:	817b      	strh	r3, [r7, #10]
 80047b2:	2300      	movs	r3, #0
 80047b4:	77fb      	strb	r3, [r7, #31]
 80047b6:	2300      	movs	r3, #0
 80047b8:	77bb      	strb	r3, [r7, #30]
 80047ba:	897b      	ldrh	r3, [r7, #10]
 80047bc:	2b05      	cmp	r3, #5
 80047be:	d847      	bhi.n	8004850 <VL53L0X_GetLimitCheckValue+0xac>
 80047c0:	a201      	add	r2, pc, #4	; (adr r2, 80047c8 <VL53L0X_GetLimitCheckValue+0x24>)
 80047c2:	f852 f023 	ldr.w	pc, [r2, r3, lsl #2]
 80047c6:	bf00      	nop
 80047c8:	080047e1 	.word	0x080047e1
 80047cc:	080047ed 	.word	0x080047ed
 80047d0:	08004813 	.word	0x08004813
 80047d4:	0800481f 	.word	0x0800481f
 80047d8:	0800482b 	.word	0x0800482b
 80047dc:	0800482b 	.word	0x0800482b
 80047e0:	68fb      	ldr	r3, [r7, #12]
 80047e2:	6b5b      	ldr	r3, [r3, #52]	; 0x34
 80047e4:	61bb      	str	r3, [r7, #24]
 80047e6:	2300      	movs	r3, #0
 80047e8:	77bb      	strb	r3, [r7, #30]
 80047ea:	e033      	b.n	8004854 <VL53L0X_GetLimitCheckValue+0xb0>
 80047ec:	f107 0316 	add.w	r3, r7, #22
 80047f0:	461a      	mov	r2, r3
 80047f2:	2144      	movs	r1, #68	; 0x44
 80047f4:	68f8      	ldr	r0, [r7, #12]
 80047f6:	f003 fe85 	bl	8008504 <VL53L0X_RdWord>
 80047fa:	4603      	mov	r3, r0
 80047fc:	77fb      	strb	r3, [r7, #31]
 80047fe:	f997 301f 	ldrsb.w	r3, [r7, #31]
 8004802:	2b00      	cmp	r3, #0
 8004804:	d102      	bne.n	800480c <VL53L0X_GetLimitCheckValue+0x68>
 8004806:	8afb      	ldrh	r3, [r7, #22]
 8004808:	025b      	lsls	r3, r3, #9
 800480a:	61bb      	str	r3, [r7, #24]
 800480c:	2301      	movs	r3, #1
 800480e:	77bb      	strb	r3, [r7, #30]
 8004810:	e020      	b.n	8004854 <VL53L0X_GetLimitCheckValue+0xb0>
 8004812:	68fb      	ldr	r3, [r7, #12]
 8004814:	6bdb      	ldr	r3, [r3, #60]	; 0x3c
 8004816:	61bb      	str	r3, [r7, #24]
 8004818:	2300      	movs	r3, #0
 800481a:	77bb      	strb	r3, [r7, #30]
 800481c:	e01a      	b.n	8004854 <VL53L0X_GetLimitCheckValue+0xb0>
 800481e:	68fb      	ldr	r3, [r7, #12]
 8004820:	6c1b      	ldr	r3, [r3, #64]	; 0x40
 8004822:	61bb      	str	r3, [r7, #24]
 8004824:	2300      	movs	r3, #0
 8004826:	77bb      	strb	r3, [r7, #30]
 8004828:	e014      	b.n	8004854 <VL53L0X_GetLimitCheckValue+0xb0>
 800482a:	f107 0316 	add.w	r3, r7, #22
 800482e:	461a      	mov	r2, r3
 8004830:	2164      	movs	r1, #100	; 0x64
 8004832:	68f8      	ldr	r0, [r7, #12]
 8004834:	f003 fe66 	bl	8008504 <VL53L0X_RdWord>
 8004838:	4603      	mov	r3, r0
 800483a:	77fb      	strb	r3, [r7, #31]
 800483c:	f997 301f 	ldrsb.w	r3, [r7, #31]
 8004840:	2b00      	cmp	r3, #0
 8004842:	d102      	bne.n	800484a <VL53L0X_GetLimitCheckValue+0xa6>
 8004844:	8afb      	ldrh	r3, [r7, #22]
 8004846:	025b      	lsls	r3, r3, #9
 8004848:	61bb      	str	r3, [r7, #24]
 800484a:	2300      	movs	r3, #0
 800484c:	77bb      	strb	r3, [r7, #30]
 800484e:	e001      	b.n	8004854 <VL53L0X_GetLimitCheckValue+0xb0>
 8004850:	23fc      	movs	r3, #252	; 0xfc
 8004852:	77fb      	strb	r3, [r7, #31]
 8004854:	f997 301f 	ldrsb.w	r3, [r7, #31]
 8004858:	2b00      	cmp	r3, #0
 800485a:	d12a      	bne.n	80048b2 <VL53L0X_GetLimitCheckValue+0x10e>
 800485c:	7fbb      	ldrb	r3, [r7, #30]
 800485e:	2b01      	cmp	r3, #1
 8004860:	d124      	bne.n	80048ac <VL53L0X_GetLimitCheckValue+0x108>
 8004862:	69bb      	ldr	r3, [r7, #24]
 8004864:	2b00      	cmp	r3, #0
 8004866:	d110      	bne.n	800488a <VL53L0X_GetLimitCheckValue+0xe6>
 8004868:	897b      	ldrh	r3, [r7, #10]
 800486a:	68fa      	ldr	r2, [r7, #12]
 800486c:	330c      	adds	r3, #12
 800486e:	009b      	lsls	r3, r3, #2
 8004870:	4413      	add	r3, r2
 8004872:	685b      	ldr	r3, [r3, #4]
 8004874:	61bb      	str	r3, [r7, #24]
 8004876:	687b      	ldr	r3, [r7, #4]
 8004878:	69ba      	ldr	r2, [r7, #24]
 800487a:	601a      	str	r2, [r3, #0]
 800487c:	897b      	ldrh	r3, [r7, #10]
 800487e:	68fa      	ldr	r2, [r7, #12]
 8004880:	4413      	add	r3, r2
 8004882:	2200      	movs	r2, #0
 8004884:	f883 2028 	strb.w	r2, [r3, #40]	; 0x28
 8004888:	e013      	b.n	80048b2 <VL53L0X_GetLimitCheckValue+0x10e>
 800488a:	687b      	ldr	r3, [r7, #4]
 800488c:	69ba      	ldr	r2, [r7, #24]
 800488e:	601a      	str	r2, [r3, #0]
 8004890:	897b      	ldrh	r3, [r7, #10]
 8004892:	68fa      	ldr	r2, [r7, #12]
 8004894:	330c      	adds	r3, #12
 8004896:	009b      	lsls	r3, r3, #2
 8004898:	4413      	add	r3, r2
 800489a:	69ba      	ldr	r2, [r7, #24]
 800489c:	605a      	str	r2, [r3, #4]
 800489e:	897b      	ldrh	r3, [r7, #10]
 80048a0:	68fa      	ldr	r2, [r7, #12]
 80048a2:	4413      	add	r3, r2
 80048a4:	2201      	movs	r2, #1
 80048a6:	f883 2028 	strb.w	r2, [r3, #40]	; 0x28
 80048aa:	e002      	b.n	80048b2 <VL53L0X_GetLimitCheckValue+0x10e>
 80048ac:	687b      	ldr	r3, [r7, #4]
 80048ae:	69ba      	ldr	r2, [r7, #24]
 80048b0:	601a      	str	r2, [r3, #0]
 80048b2:	f997 301f 	ldrsb.w	r3, [r7, #31]
 80048b6:	4618      	mov	r0, r3
 80048b8:	3720      	adds	r7, #32
 80048ba:	46bd      	mov	sp, r7
 80048bc:	bd80      	pop	{r7, pc}
 80048be:	bf00      	nop

080048c0 <VL53L0X_GetWrapAroundCheckEnable>:
 80048c0:	b580      	push	{r7, lr}
 80048c2:	b084      	sub	sp, #16
 80048c4:	af00      	add	r7, sp, #0
 80048c6:	6078      	str	r0, [r7, #4]
 80048c8:	6039      	str	r1, [r7, #0]
 80048ca:	2300      	movs	r3, #0
 80048cc:	73fb      	strb	r3, [r7, #15]
 80048ce:	f107 030e 	add.w	r3, r7, #14
 80048d2:	461a      	mov	r2, r3
 80048d4:	2101      	movs	r1, #1
 80048d6:	6878      	ldr	r0, [r7, #4]
 80048d8:	f003 fdea 	bl	80084b0 <VL53L0X_RdByte>
 80048dc:	4603      	mov	r3, r0
 80048de:	73fb      	strb	r3, [r7, #15]
 80048e0:	f997 300f 	ldrsb.w	r3, [r7, #15]
 80048e4:	2b00      	cmp	r3, #0
 80048e6:	d10e      	bne.n	8004906 <VL53L0X_GetWrapAroundCheckEnable+0x46>
 80048e8:	7bba      	ldrb	r2, [r7, #14]
 80048ea:	687b      	ldr	r3, [r7, #4]
 80048ec:	f883 2130 	strb.w	r2, [r3, #304]	; 0x130
 80048f0:	7bbb      	ldrb	r3, [r7, #14]
 80048f2:	b25b      	sxtb	r3, r3
 80048f4:	2b00      	cmp	r3, #0
 80048f6:	da03      	bge.n	8004900 <VL53L0X_GetWrapAroundCheckEnable+0x40>
 80048f8:	683b      	ldr	r3, [r7, #0]
 80048fa:	2201      	movs	r2, #1
 80048fc:	701a      	strb	r2, [r3, #0]
 80048fe:	e002      	b.n	8004906 <VL53L0X_GetWrapAroundCheckEnable+0x46>
 8004900:	683b      	ldr	r3, [r7, #0]
 8004902:	2200      	movs	r2, #0
 8004904:	701a      	strb	r2, [r3, #0]
 8004906:	f997 300f 	ldrsb.w	r3, [r7, #15]
 800490a:	2b00      	cmp	r3, #0
 800490c:	d104      	bne.n	8004918 <VL53L0X_GetWrapAroundCheckEnable+0x58>
 800490e:	683b      	ldr	r3, [r7, #0]
 8004910:	781a      	ldrb	r2, [r3, #0]
 8004912:	687b      	ldr	r3, [r7, #4]
 8004914:	f883 204c 	strb.w	r2, [r3, #76]	; 0x4c
 8004918:	f997 300f 	ldrsb.w	r3, [r7, #15]
 800491c:	4618      	mov	r0, r3
 800491e:	3710      	adds	r7, #16
 8004920:	46bd      	mov	sp, r7
 8004922:	bd80      	pop	{r7, pc}

08004924 <VL53L0X_PerformSingleMeasurement>:
 8004924:	b580      	push	{r7, lr}
 8004926:	b084      	sub	sp, #16
 8004928:	af00      	add	r7, sp, #0
 800492a:	6078      	str	r0, [r7, #4]
 800492c:	2300      	movs	r3, #0
 800492e:	73fb      	strb	r3, [r7, #15]
 8004930:	f107 030e 	add.w	r3, r7, #14
 8004934:	4619      	mov	r1, r3
 8004936:	6878      	ldr	r0, [r7, #4]
 8004938:	f7ff fbb6 	bl	80040a8 <VL53L0X_GetDeviceMode>
 800493c:	4603      	mov	r3, r0
 800493e:	73fb      	strb	r3, [r7, #15]
 8004940:	f997 300f 	ldrsb.w	r3, [r7, #15]
 8004944:	2b00      	cmp	r3, #0
 8004946:	d107      	bne.n	8004958 <VL53L0X_PerformSingleMeasurement+0x34>
 8004948:	7bbb      	ldrb	r3, [r7, #14]
 800494a:	2b00      	cmp	r3, #0
 800494c:	d104      	bne.n	8004958 <VL53L0X_PerformSingleMeasurement+0x34>
 800494e:	6878      	ldr	r0, [r7, #4]
 8004950:	f000 f882 	bl	8004a58 <VL53L0X_StartMeasurement>
 8004954:	4603      	mov	r3, r0
 8004956:	73fb      	strb	r3, [r7, #15]
 8004958:	f997 300f 	ldrsb.w	r3, [r7, #15]
 800495c:	2b00      	cmp	r3, #0
 800495e:	d104      	bne.n	800496a <VL53L0X_PerformSingleMeasurement+0x46>
 8004960:	6878      	ldr	r0, [r7, #4]
 8004962:	f001 fb73 	bl	800604c <VL53L0X_measurement_poll_for_completion>
 8004966:	4603      	mov	r3, r0
 8004968:	73fb      	strb	r3, [r7, #15]
 800496a:	f997 300f 	ldrsb.w	r3, [r7, #15]
 800496e:	2b00      	cmp	r3, #0
 8004970:	d106      	bne.n	8004980 <VL53L0X_PerformSingleMeasurement+0x5c>
 8004972:	7bbb      	ldrb	r3, [r7, #14]
 8004974:	2b00      	cmp	r3, #0
 8004976:	d103      	bne.n	8004980 <VL53L0X_PerformSingleMeasurement+0x5c>
 8004978:	687b      	ldr	r3, [r7, #4]
 800497a:	2203      	movs	r2, #3
 800497c:	f883 2132 	strb.w	r2, [r3, #306]	; 0x132
 8004980:	f997 300f 	ldrsb.w	r3, [r7, #15]
 8004984:	4618      	mov	r0, r3
 8004986:	3710      	adds	r7, #16
 8004988:	46bd      	mov	sp, r7
 800498a:	bd80      	pop	{r7, pc}

0800498c <VL53L0X_CheckAndLoadInterruptSettings>:
 800498c:	b580      	push	{r7, lr}
 800498e:	b086      	sub	sp, #24
 8004990:	af00      	add	r7, sp, #0
 8004992:	6078      	str	r0, [r7, #4]
 8004994:	460b      	mov	r3, r1
 8004996:	70fb      	strb	r3, [r7, #3]
 8004998:	2300      	movs	r3, #0
 800499a:	75fb      	strb	r3, [r7, #23]
 800499c:	687b      	ldr	r3, [r7, #4]
 800499e:	f893 30da 	ldrb.w	r3, [r3, #218]	; 0xda
 80049a2:	75bb      	strb	r3, [r7, #22]
 80049a4:	7dbb      	ldrb	r3, [r7, #22]
 80049a6:	2b01      	cmp	r3, #1
 80049a8:	d005      	beq.n	80049b6 <VL53L0X_CheckAndLoadInterruptSettings+0x2a>
 80049aa:	7dbb      	ldrb	r3, [r7, #22]
 80049ac:	2b02      	cmp	r3, #2
 80049ae:	d002      	beq.n	80049b6 <VL53L0X_CheckAndLoadInterruptSettings+0x2a>
 80049b0:	7dbb      	ldrb	r3, [r7, #22]
 80049b2:	2b03      	cmp	r3, #3
 80049b4:	d147      	bne.n	8004a46 <VL53L0X_CheckAndLoadInterruptSettings+0xba>
 80049b6:	f107 030c 	add.w	r3, r7, #12
 80049ba:	f107 0210 	add.w	r2, r7, #16
 80049be:	2101      	movs	r1, #1
 80049c0:	6878      	ldr	r0, [r7, #4]
 80049c2:	f000 fbc3 	bl	800514c <VL53L0X_GetInterruptThresholds>
 80049c6:	4603      	mov	r3, r0
 80049c8:	75fb      	strb	r3, [r7, #23]
 80049ca:	693b      	ldr	r3, [r7, #16]
 80049cc:	f5b3 0f7f 	cmp.w	r3, #16711680	; 0xff0000
 80049d0:	d803      	bhi.n	80049da <VL53L0X_CheckAndLoadInterruptSettings+0x4e>
 80049d2:	68fb      	ldr	r3, [r7, #12]
 80049d4:	f5b3 0f7f 	cmp.w	r3, #16711680	; 0xff0000
 80049d8:	d935      	bls.n	8004a46 <VL53L0X_CheckAndLoadInterruptSettings+0xba>
 80049da:	f997 3017 	ldrsb.w	r3, [r7, #23]
 80049de:	2b00      	cmp	r3, #0
 80049e0:	d131      	bne.n	8004a46 <VL53L0X_CheckAndLoadInterruptSettings+0xba>
 80049e2:	78fb      	ldrb	r3, [r7, #3]
 80049e4:	2b00      	cmp	r3, #0
 80049e6:	d006      	beq.n	80049f6 <VL53L0X_CheckAndLoadInterruptSettings+0x6a>
 80049e8:	491a      	ldr	r1, [pc, #104]	; (8004a54 <VL53L0X_CheckAndLoadInterruptSettings+0xc8>)
 80049ea:	6878      	ldr	r0, [r7, #4]
 80049ec:	f002 fd04 	bl	80073f8 <VL53L0X_load_tuning_settings>
 80049f0:	4603      	mov	r3, r0
 80049f2:	75fb      	strb	r3, [r7, #23]
 80049f4:	e027      	b.n	8004a46 <VL53L0X_CheckAndLoadInterruptSettings+0xba>
 80049f6:	2204      	movs	r2, #4
 80049f8:	21ff      	movs	r1, #255	; 0xff
 80049fa:	6878      	ldr	r0, [r7, #4]
 80049fc:	f003 fcd6 	bl	80083ac <VL53L0X_WrByte>
 8004a00:	4603      	mov	r3, r0
 8004a02:	461a      	mov	r2, r3
 8004a04:	7dfb      	ldrb	r3, [r7, #23]
 8004a06:	4313      	orrs	r3, r2
 8004a08:	75fb      	strb	r3, [r7, #23]
 8004a0a:	2200      	movs	r2, #0
 8004a0c:	2170      	movs	r1, #112	; 0x70
 8004a0e:	6878      	ldr	r0, [r7, #4]
 8004a10:	f003 fccc 	bl	80083ac <VL53L0X_WrByte>
 8004a14:	4603      	mov	r3, r0
 8004a16:	461a      	mov	r2, r3
 8004a18:	7dfb      	ldrb	r3, [r7, #23]
 8004a1a:	4313      	orrs	r3, r2
 8004a1c:	75fb      	strb	r3, [r7, #23]
 8004a1e:	2200      	movs	r2, #0
 8004a20:	21ff      	movs	r1, #255	; 0xff
 8004a22:	6878      	ldr	r0, [r7, #4]
 8004a24:	f003 fcc2 	bl	80083ac <VL53L0X_WrByte>
 8004a28:	4603      	mov	r3, r0
 8004a2a:	461a      	mov	r2, r3
 8004a2c:	7dfb      	ldrb	r3, [r7, #23]
 8004a2e:	4313      	orrs	r3, r2
 8004a30:	75fb      	strb	r3, [r7, #23]
 8004a32:	2200      	movs	r2, #0
 8004a34:	2180      	movs	r1, #128	; 0x80
 8004a36:	6878      	ldr	r0, [r7, #4]
 8004a38:	f003 fcb8 	bl	80083ac <VL53L0X_WrByte>
 8004a3c:	4603      	mov	r3, r0
 8004a3e:	461a      	mov	r2, r3
 8004a40:	7dfb      	ldrb	r3, [r7, #23]
 8004a42:	4313      	orrs	r3, r2
 8004a44:	75fb      	strb	r3, [r7, #23]
 8004a46:	f997 3017 	ldrsb.w	r3, [r7, #23]
 8004a4a:	4618      	mov	r0, r3
 8004a4c:	3718      	adds	r7, #24
 8004a4e:	46bd      	mov	sp, r7
 8004a50:	bd80      	pop	{r7, pc}
 8004a52:	bf00      	nop
 8004a54:	20000100 	.word	0x20000100

08004a58 <VL53L0X_StartMeasurement>:
 8004a58:	b580      	push	{r7, lr}
 8004a5a:	b086      	sub	sp, #24
 8004a5c:	af00      	add	r7, sp, #0
 8004a5e:	6078      	str	r0, [r7, #4]
 8004a60:	2300      	movs	r3, #0
 8004a62:	75fb      	strb	r3, [r7, #23]
 8004a64:	2301      	movs	r3, #1
 8004a66:	73fb      	strb	r3, [r7, #15]
 8004a68:	f107 030e 	add.w	r3, r7, #14
 8004a6c:	4619      	mov	r1, r3
 8004a6e:	6878      	ldr	r0, [r7, #4]
 8004a70:	f7ff fb1a 	bl	80040a8 <VL53L0X_GetDeviceMode>
 8004a74:	2201      	movs	r2, #1
 8004a76:	2180      	movs	r1, #128	; 0x80
 8004a78:	6878      	ldr	r0, [r7, #4]
 8004a7a:	f003 fc97 	bl	80083ac <VL53L0X_WrByte>
 8004a7e:	4603      	mov	r3, r0
 8004a80:	75fb      	strb	r3, [r7, #23]
 8004a82:	2201      	movs	r2, #1
 8004a84:	21ff      	movs	r1, #255	; 0xff
 8004a86:	6878      	ldr	r0, [r7, #4]
 8004a88:	f003 fc90 	bl	80083ac <VL53L0X_WrByte>
 8004a8c:	4603      	mov	r3, r0
 8004a8e:	75fb      	strb	r3, [r7, #23]
 8004a90:	2200      	movs	r2, #0
 8004a92:	2100      	movs	r1, #0
 8004a94:	6878      	ldr	r0, [r7, #4]
 8004a96:	f003 fc89 	bl	80083ac <VL53L0X_WrByte>
 8004a9a:	4603      	mov	r3, r0
 8004a9c:	75fb      	strb	r3, [r7, #23]
 8004a9e:	687b      	ldr	r3, [r7, #4]
 8004aa0:	f893 313a 	ldrb.w	r3, [r3, #314]	; 0x13a
 8004aa4:	461a      	mov	r2, r3
 8004aa6:	2191      	movs	r1, #145	; 0x91
 8004aa8:	6878      	ldr	r0, [r7, #4]
 8004aaa:	f003 fc7f 	bl	80083ac <VL53L0X_WrByte>
 8004aae:	4603      	mov	r3, r0
 8004ab0:	75fb      	strb	r3, [r7, #23]
 8004ab2:	2201      	movs	r2, #1
 8004ab4:	2100      	movs	r1, #0
 8004ab6:	6878      	ldr	r0, [r7, #4]
 8004ab8:	f003 fc78 	bl	80083ac <VL53L0X_WrByte>
 8004abc:	4603      	mov	r3, r0
 8004abe:	75fb      	strb	r3, [r7, #23]
 8004ac0:	2200      	movs	r2, #0
 8004ac2:	21ff      	movs	r1, #255	; 0xff
 8004ac4:	6878      	ldr	r0, [r7, #4]
 8004ac6:	f003 fc71 	bl	80083ac <VL53L0X_WrByte>
 8004aca:	4603      	mov	r3, r0
 8004acc:	75fb      	strb	r3, [r7, #23]
 8004ace:	2200      	movs	r2, #0
 8004ad0:	2180      	movs	r1, #128	; 0x80
 8004ad2:	6878      	ldr	r0, [r7, #4]
 8004ad4:	f003 fc6a 	bl	80083ac <VL53L0X_WrByte>
 8004ad8:	4603      	mov	r3, r0
 8004ada:	75fb      	strb	r3, [r7, #23]
 8004adc:	7bbb      	ldrb	r3, [r7, #14]
 8004ade:	2b01      	cmp	r3, #1
 8004ae0:	d037      	beq.n	8004b52 <VL53L0X_StartMeasurement+0xfa>
 8004ae2:	2b03      	cmp	r3, #3
 8004ae4:	d04f      	beq.n	8004b86 <VL53L0X_StartMeasurement+0x12e>
 8004ae6:	2b00      	cmp	r3, #0
 8004ae8:	d167      	bne.n	8004bba <VL53L0X_StartMeasurement+0x162>
 8004aea:	2201      	movs	r2, #1
 8004aec:	2100      	movs	r1, #0
 8004aee:	6878      	ldr	r0, [r7, #4]
 8004af0:	f003 fc5c 	bl	80083ac <VL53L0X_WrByte>
 8004af4:	4603      	mov	r3, r0
 8004af6:	75fb      	strb	r3, [r7, #23]
 8004af8:	7bfb      	ldrb	r3, [r7, #15]
 8004afa:	737b      	strb	r3, [r7, #13]
 8004afc:	f997 3017 	ldrsb.w	r3, [r7, #23]
 8004b00:	2b00      	cmp	r3, #0
 8004b02:	d15d      	bne.n	8004bc0 <VL53L0X_StartMeasurement+0x168>
 8004b04:	2300      	movs	r3, #0
 8004b06:	613b      	str	r3, [r7, #16]
 8004b08:	693b      	ldr	r3, [r7, #16]
 8004b0a:	2b00      	cmp	r3, #0
 8004b0c:	d008      	beq.n	8004b20 <VL53L0X_StartMeasurement+0xc8>
 8004b0e:	f107 030d 	add.w	r3, r7, #13
 8004b12:	461a      	mov	r2, r3
 8004b14:	2100      	movs	r1, #0
 8004b16:	6878      	ldr	r0, [r7, #4]
 8004b18:	f003 fcca 	bl	80084b0 <VL53L0X_RdByte>
 8004b1c:	4603      	mov	r3, r0
 8004b1e:	75fb      	strb	r3, [r7, #23]
 8004b20:	693b      	ldr	r3, [r7, #16]
 8004b22:	3301      	adds	r3, #1
 8004b24:	613b      	str	r3, [r7, #16]
 8004b26:	7b7a      	ldrb	r2, [r7, #13]
 8004b28:	7bfb      	ldrb	r3, [r7, #15]
 8004b2a:	4013      	ands	r3, r2
 8004b2c:	b2db      	uxtb	r3, r3
 8004b2e:	7bfa      	ldrb	r2, [r7, #15]
 8004b30:	429a      	cmp	r2, r3
 8004b32:	d107      	bne.n	8004b44 <VL53L0X_StartMeasurement+0xec>
 8004b34:	f997 3017 	ldrsb.w	r3, [r7, #23]
 8004b38:	2b00      	cmp	r3, #0
 8004b3a:	d103      	bne.n	8004b44 <VL53L0X_StartMeasurement+0xec>
 8004b3c:	693b      	ldr	r3, [r7, #16]
 8004b3e:	f5b3 6ffa 	cmp.w	r3, #2000	; 0x7d0
 8004b42:	d3e1      	bcc.n	8004b08 <VL53L0X_StartMeasurement+0xb0>
 8004b44:	693b      	ldr	r3, [r7, #16]
 8004b46:	f5b3 6ffa 	cmp.w	r3, #2000	; 0x7d0
 8004b4a:	d339      	bcc.n	8004bc0 <VL53L0X_StartMeasurement+0x168>
 8004b4c:	23f9      	movs	r3, #249	; 0xf9
 8004b4e:	75fb      	strb	r3, [r7, #23]
 8004b50:	e036      	b.n	8004bc0 <VL53L0X_StartMeasurement+0x168>
 8004b52:	f997 3017 	ldrsb.w	r3, [r7, #23]
 8004b56:	2b00      	cmp	r3, #0
 8004b58:	d105      	bne.n	8004b66 <VL53L0X_StartMeasurement+0x10e>
 8004b5a:	2101      	movs	r1, #1
 8004b5c:	6878      	ldr	r0, [r7, #4]
 8004b5e:	f7ff ff15 	bl	800498c <VL53L0X_CheckAndLoadInterruptSettings>
 8004b62:	4603      	mov	r3, r0
 8004b64:	75fb      	strb	r3, [r7, #23]
 8004b66:	2202      	movs	r2, #2
 8004b68:	2100      	movs	r1, #0
 8004b6a:	6878      	ldr	r0, [r7, #4]
 8004b6c:	f003 fc1e 	bl	80083ac <VL53L0X_WrByte>
 8004b70:	4603      	mov	r3, r0
 8004b72:	75fb      	strb	r3, [r7, #23]
 8004b74:	f997 3017 	ldrsb.w	r3, [r7, #23]
 8004b78:	2b00      	cmp	r3, #0
 8004b7a:	d123      	bne.n	8004bc4 <VL53L0X_StartMeasurement+0x16c>
 8004b7c:	687b      	ldr	r3, [r7, #4]
 8004b7e:	2204      	movs	r2, #4
 8004b80:	f883 2132 	strb.w	r2, [r3, #306]	; 0x132
 8004b84:	e01e      	b.n	8004bc4 <VL53L0X_StartMeasurement+0x16c>
 8004b86:	f997 3017 	ldrsb.w	r3, [r7, #23]
 8004b8a:	2b00      	cmp	r3, #0
 8004b8c:	d105      	bne.n	8004b9a <VL53L0X_StartMeasurement+0x142>
 8004b8e:	2101      	movs	r1, #1
 8004b90:	6878      	ldr	r0, [r7, #4]
 8004b92:	f7ff fefb 	bl	800498c <VL53L0X_CheckAndLoadInterruptSettings>
 8004b96:	4603      	mov	r3, r0
 8004b98:	75fb      	strb	r3, [r7, #23]
 8004b9a:	2204      	movs	r2, #4
 8004b9c:	2100      	movs	r1, #0
 8004b9e:	6878      	ldr	r0, [r7, #4]
 8004ba0:	f003 fc04 	bl	80083ac <VL53L0X_WrByte>
 8004ba4:	4603      	mov	r3, r0
 8004ba6:	75fb      	strb	r3, [r7, #23]
 8004ba8:	f997 3017 	ldrsb.w	r3, [r7, #23]
 8004bac:	2b00      	cmp	r3, #0
 8004bae:	d10b      	bne.n	8004bc8 <VL53L0X_StartMeasurement+0x170>
 8004bb0:	687b      	ldr	r3, [r7, #4]
 8004bb2:	2204      	movs	r2, #4
 8004bb4:	f883 2132 	strb.w	r2, [r3, #306]	; 0x132
 8004bb8:	e006      	b.n	8004bc8 <VL53L0X_StartMeasurement+0x170>
 8004bba:	23f8      	movs	r3, #248	; 0xf8
 8004bbc:	75fb      	strb	r3, [r7, #23]
 8004bbe:	e004      	b.n	8004bca <VL53L0X_StartMeasurement+0x172>
 8004bc0:	bf00      	nop
 8004bc2:	e002      	b.n	8004bca <VL53L0X_StartMeasurement+0x172>
 8004bc4:	bf00      	nop
 8004bc6:	e000      	b.n	8004bca <VL53L0X_StartMeasurement+0x172>
 8004bc8:	bf00      	nop
 8004bca:	f997 3017 	ldrsb.w	r3, [r7, #23]
 8004bce:	4618      	mov	r0, r3
 8004bd0:	3718      	adds	r7, #24
 8004bd2:	46bd      	mov	sp, r7
 8004bd4:	bd80      	pop	{r7, pc}

08004bd6 <VL53L0X_GetMeasurementDataReady>:
 8004bd6:	b580      	push	{r7, lr}
 8004bd8:	b084      	sub	sp, #16
 8004bda:	af00      	add	r7, sp, #0
 8004bdc:	6078      	str	r0, [r7, #4]
 8004bde:	6039      	str	r1, [r7, #0]
 8004be0:	2300      	movs	r3, #0
 8004be2:	73fb      	strb	r3, [r7, #15]
 8004be4:	687b      	ldr	r3, [r7, #4]
 8004be6:	f893 30da 	ldrb.w	r3, [r3, #218]	; 0xda
 8004bea:	73bb      	strb	r3, [r7, #14]
 8004bec:	7bbb      	ldrb	r3, [r7, #14]
 8004bee:	2b04      	cmp	r3, #4
 8004bf0:	d112      	bne.n	8004c18 <VL53L0X_GetMeasurementDataReady+0x42>
 8004bf2:	f107 0308 	add.w	r3, r7, #8
 8004bf6:	4619      	mov	r1, r3
 8004bf8:	6878      	ldr	r0, [r7, #4]
 8004bfa:	f000 fb1d 	bl	8005238 <VL53L0X_GetInterruptMaskStatus>
 8004bfe:	4603      	mov	r3, r0
 8004c00:	73fb      	strb	r3, [r7, #15]
 8004c02:	68bb      	ldr	r3, [r7, #8]
 8004c04:	2b04      	cmp	r3, #4
 8004c06:	d103      	bne.n	8004c10 <VL53L0X_GetMeasurementDataReady+0x3a>
 8004c08:	683b      	ldr	r3, [r7, #0]
 8004c0a:	2201      	movs	r2, #1
 8004c0c:	701a      	strb	r2, [r3, #0]
 8004c0e:	e01c      	b.n	8004c4a <VL53L0X_GetMeasurementDataReady+0x74>
 8004c10:	683b      	ldr	r3, [r7, #0]
 8004c12:	2200      	movs	r2, #0
 8004c14:	701a      	strb	r2, [r3, #0]
 8004c16:	e018      	b.n	8004c4a <VL53L0X_GetMeasurementDataReady+0x74>
 8004c18:	f107 030d 	add.w	r3, r7, #13
 8004c1c:	461a      	mov	r2, r3
 8004c1e:	2114      	movs	r1, #20
 8004c20:	6878      	ldr	r0, [r7, #4]
 8004c22:	f003 fc45 	bl	80084b0 <VL53L0X_RdByte>
 8004c26:	4603      	mov	r3, r0
 8004c28:	73fb      	strb	r3, [r7, #15]
 8004c2a:	f997 300f 	ldrsb.w	r3, [r7, #15]
 8004c2e:	2b00      	cmp	r3, #0
 8004c30:	d10b      	bne.n	8004c4a <VL53L0X_GetMeasurementDataReady+0x74>
 8004c32:	7b7b      	ldrb	r3, [r7, #13]
 8004c34:	f003 0301 	and.w	r3, r3, #1
 8004c38:	2b00      	cmp	r3, #0
 8004c3a:	d003      	beq.n	8004c44 <VL53L0X_GetMeasurementDataReady+0x6e>
 8004c3c:	683b      	ldr	r3, [r7, #0]
 8004c3e:	2201      	movs	r2, #1
 8004c40:	701a      	strb	r2, [r3, #0]
 8004c42:	e002      	b.n	8004c4a <VL53L0X_GetMeasurementDataReady+0x74>
 8004c44:	683b      	ldr	r3, [r7, #0]
 8004c46:	2200      	movs	r2, #0
 8004c48:	701a      	strb	r2, [r3, #0]
 8004c4a:	f997 300f 	ldrsb.w	r3, [r7, #15]
 8004c4e:	4618      	mov	r0, r3
 8004c50:	3710      	adds	r7, #16
 8004c52:	46bd      	mov	sp, r7
 8004c54:	bd80      	pop	{r7, pc}
	...

08004c58 <VL53L0X_GetRangingMeasurementData>:
 8004c58:	b5b0      	push	{r4, r5, r7, lr}
 8004c5a:	b096      	sub	sp, #88	; 0x58
 8004c5c:	af02      	add	r7, sp, #8
 8004c5e:	6078      	str	r0, [r7, #4]
 8004c60:	6039      	str	r1, [r7, #0]
 8004c62:	2300      	movs	r3, #0
 8004c64:	f887 304f 	strb.w	r3, [r7, #79]	; 0x4f
 8004c68:	f107 0228 	add.w	r2, r7, #40	; 0x28
 8004c6c:	230c      	movs	r3, #12
 8004c6e:	2114      	movs	r1, #20
 8004c70:	6878      	ldr	r0, [r7, #4]
 8004c72:	f003 fb6f 	bl	8008354 <VL53L0X_ReadMulti>
 8004c76:	4603      	mov	r3, r0
 8004c78:	f887 304f 	strb.w	r3, [r7, #79]	; 0x4f
 8004c7c:	f997 304f 	ldrsb.w	r3, [r7, #79]	; 0x4f
 8004c80:	2b00      	cmp	r3, #0
 8004c82:	f040 80d2 	bne.w	8004e2a <VL53L0X_GetRangingMeasurementData+0x1d2>
 8004c86:	683b      	ldr	r3, [r7, #0]
 8004c88:	2200      	movs	r2, #0
 8004c8a:	759a      	strb	r2, [r3, #22]
 8004c8c:	683b      	ldr	r3, [r7, #0]
 8004c8e:	2200      	movs	r2, #0
 8004c90:	601a      	str	r2, [r3, #0]
 8004c92:	f897 3032 	ldrb.w	r3, [r7, #50]	; 0x32
 8004c96:	b29b      	uxth	r3, r3
 8004c98:	021b      	lsls	r3, r3, #8
 8004c9a:	b29a      	uxth	r2, r3
 8004c9c:	f897 3033 	ldrb.w	r3, [r7, #51]	; 0x33
 8004ca0:	b29b      	uxth	r3, r3
 8004ca2:	4413      	add	r3, r2
 8004ca4:	f8a7 304c 	strh.w	r3, [r7, #76]	; 0x4c
 8004ca8:	683b      	ldr	r3, [r7, #0]
 8004caa:	2200      	movs	r2, #0
 8004cac:	605a      	str	r2, [r3, #4]
 8004cae:	f897 302e 	ldrb.w	r3, [r7, #46]	; 0x2e
 8004cb2:	b29b      	uxth	r3, r3
 8004cb4:	021b      	lsls	r3, r3, #8
 8004cb6:	b29a      	uxth	r2, r3
 8004cb8:	f897 302f 	ldrb.w	r3, [r7, #47]	; 0x2f
 8004cbc:	b29b      	uxth	r3, r3
 8004cbe:	4413      	add	r3, r2
 8004cc0:	b29b      	uxth	r3, r3
 8004cc2:	025b      	lsls	r3, r3, #9
 8004cc4:	647b      	str	r3, [r7, #68]	; 0x44
 8004cc6:	683b      	ldr	r3, [r7, #0]
 8004cc8:	6c7a      	ldr	r2, [r7, #68]	; 0x44
 8004cca:	60da      	str	r2, [r3, #12]
 8004ccc:	f897 3030 	ldrb.w	r3, [r7, #48]	; 0x30
 8004cd0:	b29b      	uxth	r3, r3
 8004cd2:	021b      	lsls	r3, r3, #8
 8004cd4:	b29a      	uxth	r2, r3
 8004cd6:	f897 3031 	ldrb.w	r3, [r7, #49]	; 0x31
 8004cda:	b29b      	uxth	r3, r3
 8004cdc:	4413      	add	r3, r2
 8004cde:	f8a7 3042 	strh.w	r3, [r7, #66]	; 0x42
 8004ce2:	f8b7 3042 	ldrh.w	r3, [r7, #66]	; 0x42
 8004ce6:	025b      	lsls	r3, r3, #9
 8004ce8:	461a      	mov	r2, r3
 8004cea:	683b      	ldr	r3, [r7, #0]
 8004cec:	611a      	str	r2, [r3, #16]
 8004cee:	f897 302a 	ldrb.w	r3, [r7, #42]	; 0x2a
 8004cf2:	b29b      	uxth	r3, r3
 8004cf4:	021b      	lsls	r3, r3, #8
 8004cf6:	b29a      	uxth	r2, r3
 8004cf8:	f897 302b 	ldrb.w	r3, [r7, #43]	; 0x2b
 8004cfc:	b29b      	uxth	r3, r3
 8004cfe:	4413      	add	r3, r2
 8004d00:	f8a7 3040 	strh.w	r3, [r7, #64]	; 0x40
 8004d04:	683b      	ldr	r3, [r7, #0]
 8004d06:	f8b7 2040 	ldrh.w	r2, [r7, #64]	; 0x40
 8004d0a:	829a      	strh	r2, [r3, #20]
 8004d0c:	f897 3028 	ldrb.w	r3, [r7, #40]	; 0x28
 8004d10:	f887 303f 	strb.w	r3, [r7, #63]	; 0x3f
 8004d14:	687b      	ldr	r3, [r7, #4]
 8004d16:	f8b3 3152 	ldrh.w	r3, [r3, #338]	; 0x152
 8004d1a:	87bb      	strh	r3, [r7, #60]	; 0x3c
 8004d1c:	687b      	ldr	r3, [r7, #4]
 8004d1e:	f893 3131 	ldrb.w	r3, [r3, #305]	; 0x131
 8004d22:	f887 303b 	strb.w	r3, [r7, #59]	; 0x3b
 8004d26:	8fbb      	ldrh	r3, [r7, #60]	; 0x3c
 8004d28:	f5b3 7f7a 	cmp.w	r3, #1000	; 0x3e8
 8004d2c:	d047      	beq.n	8004dbe <VL53L0X_GetRangingMeasurementData+0x166>
 8004d2e:	8fbb      	ldrh	r3, [r7, #60]	; 0x3c
 8004d30:	f8b7 204c 	ldrh.w	r2, [r7, #76]	; 0x4c
 8004d34:	fb02 f303 	mul.w	r3, r2, r3
 8004d38:	f503 73fa 	add.w	r3, r3, #500	; 0x1f4
 8004d3c:	4a58      	ldr	r2, [pc, #352]	; (8004ea0 <VL53L0X_GetRangingMeasurementData+0x248>)
 8004d3e:	fb82 1203 	smull	r1, r2, r2, r3
 8004d42:	1192      	asrs	r2, r2, #6
 8004d44:	17db      	asrs	r3, r3, #31
 8004d46:	1ad3      	subs	r3, r2, r3
 8004d48:	f8a7 304c 	strh.w	r3, [r7, #76]	; 0x4c
 8004d4c:	687b      	ldr	r3, [r7, #4]
 8004d4e:	6a1b      	ldr	r3, [r3, #32]
 8004d50:	873b      	strh	r3, [r7, #56]	; 0x38
 8004d52:	687b      	ldr	r3, [r7, #4]
 8004d54:	7f1b      	ldrb	r3, [r3, #28]
 8004d56:	f887 3037 	strb.w	r3, [r7, #55]	; 0x37
 8004d5a:	f897 3037 	ldrb.w	r3, [r7, #55]	; 0x37
 8004d5e:	2b00      	cmp	r3, #0
 8004d60:	d02d      	beq.n	8004dbe <VL53L0X_GetRangingMeasurementData+0x166>
 8004d62:	8f3b      	ldrh	r3, [r7, #56]	; 0x38
 8004d64:	f8b7 2040 	ldrh.w	r2, [r7, #64]	; 0x40
 8004d68:	fb02 f303 	mul.w	r3, r2, r3
 8004d6c:	121b      	asrs	r3, r3, #8
 8004d6e:	461a      	mov	r2, r3
 8004d70:	6c7b      	ldr	r3, [r7, #68]	; 0x44
 8004d72:	4293      	cmp	r3, r2
 8004d74:	d10d      	bne.n	8004d92 <VL53L0X_GetRangingMeasurementData+0x13a>
 8004d76:	f897 303b 	ldrb.w	r3, [r7, #59]	; 0x3b
 8004d7a:	2b00      	cmp	r3, #0
 8004d7c:	d004      	beq.n	8004d88 <VL53L0X_GetRangingMeasurementData+0x130>
 8004d7e:	f242 23b8 	movw	r3, #8888	; 0x22b8
 8004d82:	f8a7 304a 	strh.w	r3, [r7, #74]	; 0x4a
 8004d86:	e016      	b.n	8004db6 <VL53L0X_GetRangingMeasurementData+0x15e>
 8004d88:	f648 23e0 	movw	r3, #35552	; 0x8ae0
 8004d8c:	f8a7 304a 	strh.w	r3, [r7, #74]	; 0x4a
 8004d90:	e011      	b.n	8004db6 <VL53L0X_GetRangingMeasurementData+0x15e>
 8004d92:	f8b7 304c 	ldrh.w	r3, [r7, #76]	; 0x4c
 8004d96:	6c7a      	ldr	r2, [r7, #68]	; 0x44
 8004d98:	fb02 f203 	mul.w	r2, r2, r3
 8004d9c:	8f3b      	ldrh	r3, [r7, #56]	; 0x38
 8004d9e:	f8b7 1040 	ldrh.w	r1, [r7, #64]	; 0x40
 8004da2:	fb01 f303 	mul.w	r3, r1, r3
 8004da6:	121b      	asrs	r3, r3, #8
 8004da8:	4619      	mov	r1, r3
 8004daa:	6c7b      	ldr	r3, [r7, #68]	; 0x44
 8004dac:	1a5b      	subs	r3, r3, r1
 8004dae:	fbb2 f3f3 	udiv	r3, r2, r3
 8004db2:	f8a7 304a 	strh.w	r3, [r7, #74]	; 0x4a
 8004db6:	f8b7 304a 	ldrh.w	r3, [r7, #74]	; 0x4a
 8004dba:	f8a7 304c 	strh.w	r3, [r7, #76]	; 0x4c
 8004dbe:	f897 303b 	ldrb.w	r3, [r7, #59]	; 0x3b
 8004dc2:	2b00      	cmp	r3, #0
 8004dc4:	d00d      	beq.n	8004de2 <VL53L0X_GetRangingMeasurementData+0x18a>
 8004dc6:	f8b7 304c 	ldrh.w	r3, [r7, #76]	; 0x4c
 8004dca:	089b      	lsrs	r3, r3, #2
 8004dcc:	b29a      	uxth	r2, r3
 8004dce:	683b      	ldr	r3, [r7, #0]
 8004dd0:	811a      	strh	r2, [r3, #8]
 8004dd2:	f8b7 304c 	ldrh.w	r3, [r7, #76]	; 0x4c
 8004dd6:	b2db      	uxtb	r3, r3
 8004dd8:	019b      	lsls	r3, r3, #6
 8004dda:	b2da      	uxtb	r2, r3
 8004ddc:	683b      	ldr	r3, [r7, #0]
 8004dde:	75da      	strb	r2, [r3, #23]
 8004de0:	e006      	b.n	8004df0 <VL53L0X_GetRangingMeasurementData+0x198>
 8004de2:	683b      	ldr	r3, [r7, #0]
 8004de4:	f8b7 204c 	ldrh.w	r2, [r7, #76]	; 0x4c
 8004de8:	811a      	strh	r2, [r3, #8]
 8004dea:	683b      	ldr	r3, [r7, #0]
 8004dec:	2200      	movs	r2, #0
 8004dee:	75da      	strb	r2, [r3, #23]
 8004df0:	f8b7 2040 	ldrh.w	r2, [r7, #64]	; 0x40
 8004df4:	f897 103f 	ldrb.w	r1, [r7, #63]	; 0x3f
 8004df8:	f107 0336 	add.w	r3, r7, #54	; 0x36
 8004dfc:	9301      	str	r3, [sp, #4]
 8004dfe:	683b      	ldr	r3, [r7, #0]
 8004e00:	9300      	str	r3, [sp, #0]
 8004e02:	4613      	mov	r3, r2
 8004e04:	6c7a      	ldr	r2, [r7, #68]	; 0x44
 8004e06:	6878      	ldr	r0, [r7, #4]
 8004e08:	f002 ff9e 	bl	8007d48 <VL53L0X_get_pal_range_status>
 8004e0c:	4603      	mov	r3, r0
 8004e0e:	461a      	mov	r2, r3
 8004e10:	f897 304f 	ldrb.w	r3, [r7, #79]	; 0x4f
 8004e14:	4313      	orrs	r3, r2
 8004e16:	f887 304f 	strb.w	r3, [r7, #79]	; 0x4f
 8004e1a:	f997 304f 	ldrsb.w	r3, [r7, #79]	; 0x4f
 8004e1e:	2b00      	cmp	r3, #0
 8004e20:	d103      	bne.n	8004e2a <VL53L0X_GetRangingMeasurementData+0x1d2>
 8004e22:	f897 2036 	ldrb.w	r2, [r7, #54]	; 0x36
 8004e26:	683b      	ldr	r3, [r7, #0]
 8004e28:	761a      	strb	r2, [r3, #24]
 8004e2a:	f997 304f 	ldrsb.w	r3, [r7, #79]	; 0x4f
 8004e2e:	2b00      	cmp	r3, #0
 8004e30:	d12f      	bne.n	8004e92 <VL53L0X_GetRangingMeasurementData+0x23a>
 8004e32:	687b      	ldr	r3, [r7, #4]
 8004e34:	f107 040c 	add.w	r4, r7, #12
 8004e38:	f103 0550 	add.w	r5, r3, #80	; 0x50
 8004e3c:	cd0f      	ldmia	r5!, {r0, r1, r2, r3}
 8004e3e:	c40f      	stmia	r4!, {r0, r1, r2, r3}
 8004e40:	e895 0007 	ldmia.w	r5, {r0, r1, r2}
 8004e44:	e884 0007 	stmia.w	r4, {r0, r1, r2}
 8004e48:	683b      	ldr	r3, [r7, #0]
 8004e4a:	891b      	ldrh	r3, [r3, #8]
 8004e4c:	82bb      	strh	r3, [r7, #20]
 8004e4e:	683b      	ldr	r3, [r7, #0]
 8004e50:	7ddb      	ldrb	r3, [r3, #23]
 8004e52:	f887 3023 	strb.w	r3, [r7, #35]	; 0x23
 8004e56:	683b      	ldr	r3, [r7, #0]
 8004e58:	895b      	ldrh	r3, [r3, #10]
 8004e5a:	82fb      	strh	r3, [r7, #22]
 8004e5c:	683b      	ldr	r3, [r7, #0]
 8004e5e:	685b      	ldr	r3, [r3, #4]
 8004e60:	613b      	str	r3, [r7, #16]
 8004e62:	683b      	ldr	r3, [r7, #0]
 8004e64:	68db      	ldr	r3, [r3, #12]
 8004e66:	61bb      	str	r3, [r7, #24]
 8004e68:	683b      	ldr	r3, [r7, #0]
 8004e6a:	691b      	ldr	r3, [r3, #16]
 8004e6c:	61fb      	str	r3, [r7, #28]
 8004e6e:	683b      	ldr	r3, [r7, #0]
 8004e70:	8a9b      	ldrh	r3, [r3, #20]
 8004e72:	843b      	strh	r3, [r7, #32]
 8004e74:	683b      	ldr	r3, [r7, #0]
 8004e76:	7e1b      	ldrb	r3, [r3, #24]
 8004e78:	f887 3024 	strb.w	r3, [r7, #36]	; 0x24
 8004e7c:	687b      	ldr	r3, [r7, #4]
 8004e7e:	f103 0450 	add.w	r4, r3, #80	; 0x50
 8004e82:	f107 050c 	add.w	r5, r7, #12
 8004e86:	cd0f      	ldmia	r5!, {r0, r1, r2, r3}
 8004e88:	c40f      	stmia	r4!, {r0, r1, r2, r3}
 8004e8a:	e895 0007 	ldmia.w	r5, {r0, r1, r2}
 8004e8e:	e884 0007 	stmia.w	r4, {r0, r1, r2}
 8004e92:	f997 304f 	ldrsb.w	r3, [r7, #79]	; 0x4f
 8004e96:	4618      	mov	r0, r3
 8004e98:	3750      	adds	r7, #80	; 0x50
 8004e9a:	46bd      	mov	sp, r7
 8004e9c:	bdb0      	pop	{r4, r5, r7, pc}
 8004e9e:	bf00      	nop
 8004ea0:	10624dd3 	.word	0x10624dd3

08004ea4 <VL53L0X_PerformSingleRangingMeasurement>:
 8004ea4:	b580      	push	{r7, lr}
 8004ea6:	b084      	sub	sp, #16
 8004ea8:	af00      	add	r7, sp, #0
 8004eaa:	6078      	str	r0, [r7, #4]
 8004eac:	6039      	str	r1, [r7, #0]
 8004eae:	2300      	movs	r3, #0
 8004eb0:	73fb      	strb	r3, [r7, #15]
 8004eb2:	2100      	movs	r1, #0
 8004eb4:	6878      	ldr	r0, [r7, #4]
 8004eb6:	f7ff f8af 	bl	8004018 <VL53L0X_SetDeviceMode>
 8004eba:	4603      	mov	r3, r0
 8004ebc:	73fb      	strb	r3, [r7, #15]
 8004ebe:	f997 300f 	ldrsb.w	r3, [r7, #15]
 8004ec2:	2b00      	cmp	r3, #0
 8004ec4:	d104      	bne.n	8004ed0 <VL53L0X_PerformSingleRangingMeasurement+0x2c>
 8004ec6:	6878      	ldr	r0, [r7, #4]
 8004ec8:	f7ff fd2c 	bl	8004924 <VL53L0X_PerformSingleMeasurement>
 8004ecc:	4603      	mov	r3, r0
 8004ece:	73fb      	strb	r3, [r7, #15]
 8004ed0:	f997 300f 	ldrsb.w	r3, [r7, #15]
 8004ed4:	2b00      	cmp	r3, #0
 8004ed6:	d105      	bne.n	8004ee4 <VL53L0X_PerformSingleRangingMeasurement+0x40>
 8004ed8:	6839      	ldr	r1, [r7, #0]
 8004eda:	6878      	ldr	r0, [r7, #4]
 8004edc:	f7ff febc 	bl	8004c58 <VL53L0X_GetRangingMeasurementData>
 8004ee0:	4603      	mov	r3, r0
 8004ee2:	73fb      	strb	r3, [r7, #15]
 8004ee4:	f997 300f 	ldrsb.w	r3, [r7, #15]
 8004ee8:	2b00      	cmp	r3, #0
 8004eea:	d105      	bne.n	8004ef8 <VL53L0X_PerformSingleRangingMeasurement+0x54>
 8004eec:	2100      	movs	r1, #0
 8004eee:	6878      	ldr	r0, [r7, #4]
 8004ef0:	f000 f962 	bl	80051b8 <VL53L0X_ClearInterruptMask>
 8004ef4:	4603      	mov	r3, r0
 8004ef6:	73fb      	strb	r3, [r7, #15]
 8004ef8:	f997 300f 	ldrsb.w	r3, [r7, #15]
 8004efc:	4618      	mov	r0, r3
 8004efe:	3710      	adds	r7, #16
 8004f00:	46bd      	mov	sp, r7
 8004f02:	bd80      	pop	{r7, pc}

08004f04 <VL53L0X_SetGpioConfig>:
 8004f04:	b580      	push	{r7, lr}
 8004f06:	b084      	sub	sp, #16
 8004f08:	af00      	add	r7, sp, #0
 8004f0a:	6078      	str	r0, [r7, #4]
 8004f0c:	4608      	mov	r0, r1
 8004f0e:	4611      	mov	r1, r2
 8004f10:	461a      	mov	r2, r3
 8004f12:	4603      	mov	r3, r0
 8004f14:	70fb      	strb	r3, [r7, #3]
 8004f16:	460b      	mov	r3, r1
 8004f18:	70bb      	strb	r3, [r7, #2]
 8004f1a:	4613      	mov	r3, r2
 8004f1c:	707b      	strb	r3, [r7, #1]
 8004f1e:	2300      	movs	r3, #0
 8004f20:	73fb      	strb	r3, [r7, #15]
 8004f22:	78fb      	ldrb	r3, [r7, #3]
 8004f24:	2b00      	cmp	r3, #0
 8004f26:	d002      	beq.n	8004f2e <VL53L0X_SetGpioConfig+0x2a>
 8004f28:	23f6      	movs	r3, #246	; 0xf6
 8004f2a:	73fb      	strb	r3, [r7, #15]
 8004f2c:	e107      	b.n	800513e <VL53L0X_SetGpioConfig+0x23a>
 8004f2e:	78bb      	ldrb	r3, [r7, #2]
 8004f30:	2b14      	cmp	r3, #20
 8004f32:	d110      	bne.n	8004f56 <VL53L0X_SetGpioConfig+0x52>
 8004f34:	7e3b      	ldrb	r3, [r7, #24]
 8004f36:	2b00      	cmp	r3, #0
 8004f38:	d102      	bne.n	8004f40 <VL53L0X_SetGpioConfig+0x3c>
 8004f3a:	2310      	movs	r3, #16
 8004f3c:	73bb      	strb	r3, [r7, #14]
 8004f3e:	e001      	b.n	8004f44 <VL53L0X_SetGpioConfig+0x40>
 8004f40:	2301      	movs	r3, #1
 8004f42:	73bb      	strb	r3, [r7, #14]
 8004f44:	7bbb      	ldrb	r3, [r7, #14]
 8004f46:	461a      	mov	r2, r3
 8004f48:	2184      	movs	r1, #132	; 0x84
 8004f4a:	6878      	ldr	r0, [r7, #4]
 8004f4c:	f003 fa2e 	bl	80083ac <VL53L0X_WrByte>
 8004f50:	4603      	mov	r3, r0
 8004f52:	73fb      	strb	r3, [r7, #15]
 8004f54:	e0f3      	b.n	800513e <VL53L0X_SetGpioConfig+0x23a>
 8004f56:	78bb      	ldrb	r3, [r7, #2]
 8004f58:	2b15      	cmp	r3, #21
 8004f5a:	f040 8097 	bne.w	800508c <VL53L0X_SetGpioConfig+0x188>
 8004f5e:	2201      	movs	r2, #1
 8004f60:	21ff      	movs	r1, #255	; 0xff
 8004f62:	6878      	ldr	r0, [r7, #4]
 8004f64:	f003 fa22 	bl	80083ac <VL53L0X_WrByte>
 8004f68:	4603      	mov	r3, r0
 8004f6a:	461a      	mov	r2, r3
 8004f6c:	7bfb      	ldrb	r3, [r7, #15]
 8004f6e:	4313      	orrs	r3, r2
 8004f70:	73fb      	strb	r3, [r7, #15]
 8004f72:	2200      	movs	r2, #0
 8004f74:	2100      	movs	r1, #0
 8004f76:	6878      	ldr	r0, [r7, #4]
 8004f78:	f003 fa18 	bl	80083ac <VL53L0X_WrByte>
 8004f7c:	4603      	mov	r3, r0
 8004f7e:	461a      	mov	r2, r3
 8004f80:	7bfb      	ldrb	r3, [r7, #15]
 8004f82:	4313      	orrs	r3, r2
 8004f84:	73fb      	strb	r3, [r7, #15]
 8004f86:	2200      	movs	r2, #0
 8004f88:	21ff      	movs	r1, #255	; 0xff
 8004f8a:	6878      	ldr	r0, [r7, #4]
 8004f8c:	f003 fa0e 	bl	80083ac <VL53L0X_WrByte>
 8004f90:	4603      	mov	r3, r0
 8004f92:	461a      	mov	r2, r3
 8004f94:	7bfb      	ldrb	r3, [r7, #15]
 8004f96:	4313      	orrs	r3, r2
 8004f98:	73fb      	strb	r3, [r7, #15]
 8004f9a:	2201      	movs	r2, #1
 8004f9c:	2180      	movs	r1, #128	; 0x80
 8004f9e:	6878      	ldr	r0, [r7, #4]
 8004fa0:	f003 fa04 	bl	80083ac <VL53L0X_WrByte>
 8004fa4:	4603      	mov	r3, r0
 8004fa6:	461a      	mov	r2, r3
 8004fa8:	7bfb      	ldrb	r3, [r7, #15]
 8004faa:	4313      	orrs	r3, r2
 8004fac:	73fb      	strb	r3, [r7, #15]
 8004fae:	2202      	movs	r2, #2
 8004fb0:	2185      	movs	r1, #133	; 0x85
 8004fb2:	6878      	ldr	r0, [r7, #4]
 8004fb4:	f003 f9fa 	bl	80083ac <VL53L0X_WrByte>
 8004fb8:	4603      	mov	r3, r0
 8004fba:	461a      	mov	r2, r3
 8004fbc:	7bfb      	ldrb	r3, [r7, #15]
 8004fbe:	4313      	orrs	r3, r2
 8004fc0:	73fb      	strb	r3, [r7, #15]
 8004fc2:	2204      	movs	r2, #4
 8004fc4:	21ff      	movs	r1, #255	; 0xff
 8004fc6:	6878      	ldr	r0, [r7, #4]
 8004fc8:	f003 f9f0 	bl	80083ac <VL53L0X_WrByte>
 8004fcc:	4603      	mov	r3, r0
 8004fce:	461a      	mov	r2, r3
 8004fd0:	7bfb      	ldrb	r3, [r7, #15]
 8004fd2:	4313      	orrs	r3, r2
 8004fd4:	73fb      	strb	r3, [r7, #15]
 8004fd6:	2200      	movs	r2, #0
 8004fd8:	21cd      	movs	r1, #205	; 0xcd
 8004fda:	6878      	ldr	r0, [r7, #4]
 8004fdc:	f003 f9e6 	bl	80083ac <VL53L0X_WrByte>
 8004fe0:	4603      	mov	r3, r0
 8004fe2:	461a      	mov	r2, r3
 8004fe4:	7bfb      	ldrb	r3, [r7, #15]
 8004fe6:	4313      	orrs	r3, r2
 8004fe8:	73fb      	strb	r3, [r7, #15]
 8004fea:	2211      	movs	r2, #17
 8004fec:	21cc      	movs	r1, #204	; 0xcc
 8004fee:	6878      	ldr	r0, [r7, #4]
 8004ff0:	f003 f9dc 	bl	80083ac <VL53L0X_WrByte>
 8004ff4:	4603      	mov	r3, r0
 8004ff6:	461a      	mov	r2, r3
 8004ff8:	7bfb      	ldrb	r3, [r7, #15]
 8004ffa:	4313      	orrs	r3, r2
 8004ffc:	73fb      	strb	r3, [r7, #15]
 8004ffe:	2207      	movs	r2, #7
 8005000:	21ff      	movs	r1, #255	; 0xff
 8005002:	6878      	ldr	r0, [r7, #4]
 8005004:	f003 f9d2 	bl	80083ac <VL53L0X_WrByte>
 8005008:	4603      	mov	r3, r0
 800500a:	461a      	mov	r2, r3
 800500c:	7bfb      	ldrb	r3, [r7, #15]
 800500e:	4313      	orrs	r3, r2
 8005010:	73fb      	strb	r3, [r7, #15]
 8005012:	2200      	movs	r2, #0
 8005014:	21be      	movs	r1, #190	; 0xbe
 8005016:	6878      	ldr	r0, [r7, #4]
 8005018:	f003 f9c8 	bl	80083ac <VL53L0X_WrByte>
 800501c:	4603      	mov	r3, r0
 800501e:	461a      	mov	r2, r3
 8005020:	7bfb      	ldrb	r3, [r7, #15]
 8005022:	4313      	orrs	r3, r2
 8005024:	73fb      	strb	r3, [r7, #15]
 8005026:	2206      	movs	r2, #6
 8005028:	21ff      	movs	r1, #255	; 0xff
 800502a:	6878      	ldr	r0, [r7, #4]
 800502c:	f003 f9be 	bl	80083ac <VL53L0X_WrByte>
 8005030:	4603      	mov	r3, r0
 8005032:	461a      	mov	r2, r3
 8005034:	7bfb      	ldrb	r3, [r7, #15]
 8005036:	4313      	orrs	r3, r2
 8005038:	73fb      	strb	r3, [r7, #15]
 800503a:	2209      	movs	r2, #9
 800503c:	21cc      	movs	r1, #204	; 0xcc
 800503e:	6878      	ldr	r0, [r7, #4]
 8005040:	f003 f9b4 	bl	80083ac <VL53L0X_WrByte>
 8005044:	4603      	mov	r3, r0
 8005046:	461a      	mov	r2, r3
 8005048:	7bfb      	ldrb	r3, [r7, #15]
 800504a:	4313      	orrs	r3, r2
 800504c:	73fb      	strb	r3, [r7, #15]
 800504e:	2200      	movs	r2, #0
 8005050:	21ff      	movs	r1, #255	; 0xff
 8005052:	6878      	ldr	r0, [r7, #4]
 8005054:	f003 f9aa 	bl	80083ac <VL53L0X_WrByte>
 8005058:	4603      	mov	r3, r0
 800505a:	461a      	mov	r2, r3
 800505c:	7bfb      	ldrb	r3, [r7, #15]
 800505e:	4313      	orrs	r3, r2
 8005060:	73fb      	strb	r3, [r7, #15]
 8005062:	2201      	movs	r2, #1
 8005064:	21ff      	movs	r1, #255	; 0xff
 8005066:	6878      	ldr	r0, [r7, #4]
 8005068:	f003 f9a0 	bl	80083ac <VL53L0X_WrByte>
 800506c:	4603      	mov	r3, r0
 800506e:	461a      	mov	r2, r3
 8005070:	7bfb      	ldrb	r3, [r7, #15]
 8005072:	4313      	orrs	r3, r2
 8005074:	73fb      	strb	r3, [r7, #15]
 8005076:	2200      	movs	r2, #0
 8005078:	2100      	movs	r1, #0
 800507a:	6878      	ldr	r0, [r7, #4]
 800507c:	f003 f996 	bl	80083ac <VL53L0X_WrByte>
 8005080:	4603      	mov	r3, r0
 8005082:	461a      	mov	r2, r3
 8005084:	7bfb      	ldrb	r3, [r7, #15]
 8005086:	4313      	orrs	r3, r2
 8005088:	73fb      	strb	r3, [r7, #15]
 800508a:	e058      	b.n	800513e <VL53L0X_SetGpioConfig+0x23a>
 800508c:	f997 300f 	ldrsb.w	r3, [r7, #15]
 8005090:	2b00      	cmp	r3, #0
 8005092:	d121      	bne.n	80050d8 <VL53L0X_SetGpioConfig+0x1d4>
 8005094:	787b      	ldrb	r3, [r7, #1]
 8005096:	2b04      	cmp	r3, #4
 8005098:	d81b      	bhi.n	80050d2 <VL53L0X_SetGpioConfig+0x1ce>
 800509a:	a201      	add	r2, pc, #4	; (adr r2, 80050a0 <VL53L0X_SetGpioConfig+0x19c>)
 800509c:	f852 f023 	ldr.w	pc, [r2, r3, lsl #2]
 80050a0:	080050b5 	.word	0x080050b5
 80050a4:	080050bb 	.word	0x080050bb
 80050a8:	080050c1 	.word	0x080050c1
 80050ac:	080050c7 	.word	0x080050c7
 80050b0:	080050cd 	.word	0x080050cd
 80050b4:	2300      	movs	r3, #0
 80050b6:	73bb      	strb	r3, [r7, #14]
 80050b8:	e00f      	b.n	80050da <VL53L0X_SetGpioConfig+0x1d6>
 80050ba:	2301      	movs	r3, #1
 80050bc:	73bb      	strb	r3, [r7, #14]
 80050be:	e00c      	b.n	80050da <VL53L0X_SetGpioConfig+0x1d6>
 80050c0:	2302      	movs	r3, #2
 80050c2:	73bb      	strb	r3, [r7, #14]
 80050c4:	e009      	b.n	80050da <VL53L0X_SetGpioConfig+0x1d6>
 80050c6:	2303      	movs	r3, #3
 80050c8:	73bb      	strb	r3, [r7, #14]
 80050ca:	e006      	b.n	80050da <VL53L0X_SetGpioConfig+0x1d6>
 80050cc:	2304      	movs	r3, #4
 80050ce:	73bb      	strb	r3, [r7, #14]
 80050d0:	e003      	b.n	80050da <VL53L0X_SetGpioConfig+0x1d6>
 80050d2:	23f5      	movs	r3, #245	; 0xf5
 80050d4:	73fb      	strb	r3, [r7, #15]
 80050d6:	e000      	b.n	80050da <VL53L0X_SetGpioConfig+0x1d6>
 80050d8:	bf00      	nop
 80050da:	f997 300f 	ldrsb.w	r3, [r7, #15]
 80050de:	2b00      	cmp	r3, #0
 80050e0:	d107      	bne.n	80050f2 <VL53L0X_SetGpioConfig+0x1ee>
 80050e2:	7bbb      	ldrb	r3, [r7, #14]
 80050e4:	461a      	mov	r2, r3
 80050e6:	210a      	movs	r1, #10
 80050e8:	6878      	ldr	r0, [r7, #4]
 80050ea:	f003 f95f 	bl	80083ac <VL53L0X_WrByte>
 80050ee:	4603      	mov	r3, r0
 80050f0:	73fb      	strb	r3, [r7, #15]
 80050f2:	f997 300f 	ldrsb.w	r3, [r7, #15]
 80050f6:	2b00      	cmp	r3, #0
 80050f8:	d10f      	bne.n	800511a <VL53L0X_SetGpioConfig+0x216>
 80050fa:	7e3b      	ldrb	r3, [r7, #24]
 80050fc:	2b00      	cmp	r3, #0
 80050fe:	d102      	bne.n	8005106 <VL53L0X_SetGpioConfig+0x202>
 8005100:	2300      	movs	r3, #0
 8005102:	73bb      	strb	r3, [r7, #14]
 8005104:	e001      	b.n	800510a <VL53L0X_SetGpioConfig+0x206>
 8005106:	2310      	movs	r3, #16
 8005108:	73bb      	strb	r3, [r7, #14]
 800510a:	7bbb      	ldrb	r3, [r7, #14]
 800510c:	22ef      	movs	r2, #239	; 0xef
 800510e:	2184      	movs	r1, #132	; 0x84
 8005110:	6878      	ldr	r0, [r7, #4]
 8005112:	f003 f999 	bl	8008448 <VL53L0X_UpdateByte>
 8005116:	4603      	mov	r3, r0
 8005118:	73fb      	strb	r3, [r7, #15]
 800511a:	f997 300f 	ldrsb.w	r3, [r7, #15]
 800511e:	2b00      	cmp	r3, #0
 8005120:	d103      	bne.n	800512a <VL53L0X_SetGpioConfig+0x226>
 8005122:	687b      	ldr	r3, [r7, #4]
 8005124:	787a      	ldrb	r2, [r7, #1]
 8005126:	f883 20da 	strb.w	r2, [r3, #218]	; 0xda
 800512a:	f997 300f 	ldrsb.w	r3, [r7, #15]
 800512e:	2b00      	cmp	r3, #0
 8005130:	d105      	bne.n	800513e <VL53L0X_SetGpioConfig+0x23a>
 8005132:	2100      	movs	r1, #0
 8005134:	6878      	ldr	r0, [r7, #4]
 8005136:	f000 f83f 	bl	80051b8 <VL53L0X_ClearInterruptMask>
 800513a:	4603      	mov	r3, r0
 800513c:	73fb      	strb	r3, [r7, #15]
 800513e:	f997 300f 	ldrsb.w	r3, [r7, #15]
 8005142:	4618      	mov	r0, r3
 8005144:	3710      	adds	r7, #16
 8005146:	46bd      	mov	sp, r7
 8005148:	bd80      	pop	{r7, pc}
 800514a:	bf00      	nop

0800514c <VL53L0X_GetInterruptThresholds>:
 800514c:	b580      	push	{r7, lr}
 800514e:	b086      	sub	sp, #24
 8005150:	af00      	add	r7, sp, #0
 8005152:	60f8      	str	r0, [r7, #12]
 8005154:	607a      	str	r2, [r7, #4]
 8005156:	603b      	str	r3, [r7, #0]
 8005158:	460b      	mov	r3, r1
 800515a:	72fb      	strb	r3, [r7, #11]
 800515c:	2300      	movs	r3, #0
 800515e:	75fb      	strb	r3, [r7, #23]
 8005160:	f107 0314 	add.w	r3, r7, #20
 8005164:	461a      	mov	r2, r3
 8005166:	210e      	movs	r1, #14
 8005168:	68f8      	ldr	r0, [r7, #12]
 800516a:	f003 f9cb 	bl	8008504 <VL53L0X_RdWord>
 800516e:	4603      	mov	r3, r0
 8005170:	75fb      	strb	r3, [r7, #23]
 8005172:	8abb      	ldrh	r3, [r7, #20]
 8005174:	045b      	lsls	r3, r3, #17
 8005176:	461a      	mov	r2, r3
 8005178:	4b0e      	ldr	r3, [pc, #56]	; (80051b4 <VL53L0X_GetInterruptThresholds+0x68>)
 800517a:	4013      	ands	r3, r2
 800517c:	687a      	ldr	r2, [r7, #4]
 800517e:	6013      	str	r3, [r2, #0]
 8005180:	f997 3017 	ldrsb.w	r3, [r7, #23]
 8005184:	2b00      	cmp	r3, #0
 8005186:	d10f      	bne.n	80051a8 <VL53L0X_GetInterruptThresholds+0x5c>
 8005188:	f107 0314 	add.w	r3, r7, #20
 800518c:	461a      	mov	r2, r3
 800518e:	210c      	movs	r1, #12
 8005190:	68f8      	ldr	r0, [r7, #12]
 8005192:	f003 f9b7 	bl	8008504 <VL53L0X_RdWord>
 8005196:	4603      	mov	r3, r0
 8005198:	75fb      	strb	r3, [r7, #23]
 800519a:	8abb      	ldrh	r3, [r7, #20]
 800519c:	045b      	lsls	r3, r3, #17
 800519e:	461a      	mov	r2, r3
 80051a0:	4b04      	ldr	r3, [pc, #16]	; (80051b4 <VL53L0X_GetInterruptThresholds+0x68>)
 80051a2:	4013      	ands	r3, r2
 80051a4:	683a      	ldr	r2, [r7, #0]
 80051a6:	6013      	str	r3, [r2, #0]
 80051a8:	f997 3017 	ldrsb.w	r3, [r7, #23]
 80051ac:	4618      	mov	r0, r3
 80051ae:	3718      	adds	r7, #24
 80051b0:	46bd      	mov	sp, r7
 80051b2:	bd80      	pop	{r7, pc}
 80051b4:	1ffe0000 	.word	0x1ffe0000

080051b8 <VL53L0X_ClearInterruptMask>:
 80051b8:	b580      	push	{r7, lr}
 80051ba:	b084      	sub	sp, #16
 80051bc:	af00      	add	r7, sp, #0
 80051be:	6078      	str	r0, [r7, #4]
 80051c0:	6039      	str	r1, [r7, #0]
 80051c2:	2300      	movs	r3, #0
 80051c4:	73fb      	strb	r3, [r7, #15]
 80051c6:	2300      	movs	r3, #0
 80051c8:	73bb      	strb	r3, [r7, #14]
 80051ca:	2201      	movs	r2, #1
 80051cc:	210b      	movs	r1, #11
 80051ce:	6878      	ldr	r0, [r7, #4]
 80051d0:	f003 f8ec 	bl	80083ac <VL53L0X_WrByte>
 80051d4:	4603      	mov	r3, r0
 80051d6:	73fb      	strb	r3, [r7, #15]
 80051d8:	2200      	movs	r2, #0
 80051da:	210b      	movs	r1, #11
 80051dc:	6878      	ldr	r0, [r7, #4]
 80051de:	f003 f8e5 	bl	80083ac <VL53L0X_WrByte>
 80051e2:	4603      	mov	r3, r0
 80051e4:	461a      	mov	r2, r3
 80051e6:	7bfb      	ldrb	r3, [r7, #15]
 80051e8:	4313      	orrs	r3, r2
 80051ea:	73fb      	strb	r3, [r7, #15]
 80051ec:	f107 030d 	add.w	r3, r7, #13
 80051f0:	461a      	mov	r2, r3
 80051f2:	2113      	movs	r1, #19
 80051f4:	6878      	ldr	r0, [r7, #4]
 80051f6:	f003 f95b 	bl	80084b0 <VL53L0X_RdByte>
 80051fa:	4603      	mov	r3, r0
 80051fc:	461a      	mov	r2, r3
 80051fe:	7bfb      	ldrb	r3, [r7, #15]
 8005200:	4313      	orrs	r3, r2
 8005202:	73fb      	strb	r3, [r7, #15]
 8005204:	7bbb      	ldrb	r3, [r7, #14]
 8005206:	3301      	adds	r3, #1
 8005208:	73bb      	strb	r3, [r7, #14]
 800520a:	7b7b      	ldrb	r3, [r7, #13]
 800520c:	f003 0307 	and.w	r3, r3, #7
 8005210:	2b00      	cmp	r3, #0
 8005212:	d006      	beq.n	8005222 <VL53L0X_ClearInterruptMask+0x6a>
 8005214:	7bbb      	ldrb	r3, [r7, #14]
 8005216:	2b02      	cmp	r3, #2
 8005218:	d803      	bhi.n	8005222 <VL53L0X_ClearInterruptMask+0x6a>
 800521a:	f997 300f 	ldrsb.w	r3, [r7, #15]
 800521e:	2b00      	cmp	r3, #0
 8005220:	d0d3      	beq.n	80051ca <VL53L0X_ClearInterruptMask+0x12>
 8005222:	7bbb      	ldrb	r3, [r7, #14]
 8005224:	2b02      	cmp	r3, #2
 8005226:	d901      	bls.n	800522c <VL53L0X_ClearInterruptMask+0x74>
 8005228:	23f4      	movs	r3, #244	; 0xf4
 800522a:	73fb      	strb	r3, [r7, #15]
 800522c:	f997 300f 	ldrsb.w	r3, [r7, #15]
 8005230:	4618      	mov	r0, r3
 8005232:	3710      	adds	r7, #16
 8005234:	46bd      	mov	sp, r7
 8005236:	bd80      	pop	{r7, pc}

08005238 <VL53L0X_GetInterruptMaskStatus>:
 8005238:	b580      	push	{r7, lr}
 800523a:	b084      	sub	sp, #16
 800523c:	af00      	add	r7, sp, #0
 800523e:	6078      	str	r0, [r7, #4]
 8005240:	6039      	str	r1, [r7, #0]
 8005242:	2300      	movs	r3, #0
 8005244:	73fb      	strb	r3, [r7, #15]
 8005246:	f107 030e 	add.w	r3, r7, #14
 800524a:	461a      	mov	r2, r3
 800524c:	2113      	movs	r1, #19
 800524e:	6878      	ldr	r0, [r7, #4]
 8005250:	f003 f92e 	bl	80084b0 <VL53L0X_RdByte>
 8005254:	4603      	mov	r3, r0
 8005256:	73fb      	strb	r3, [r7, #15]
 8005258:	7bbb      	ldrb	r3, [r7, #14]
 800525a:	f003 0207 	and.w	r2, r3, #7
 800525e:	683b      	ldr	r3, [r7, #0]
 8005260:	601a      	str	r2, [r3, #0]
 8005262:	7bbb      	ldrb	r3, [r7, #14]
 8005264:	f003 0318 	and.w	r3, r3, #24
 8005268:	2b00      	cmp	r3, #0
 800526a:	d001      	beq.n	8005270 <VL53L0X_GetInterruptMaskStatus+0x38>
 800526c:	23fa      	movs	r3, #250	; 0xfa
 800526e:	73fb      	strb	r3, [r7, #15]
 8005270:	f997 300f 	ldrsb.w	r3, [r7, #15]
 8005274:	4618      	mov	r0, r3
 8005276:	3710      	adds	r7, #16
 8005278:	46bd      	mov	sp, r7
 800527a:	bd80      	pop	{r7, pc}

0800527c <VL53L0X_PerformRefSpadManagement>:
 800527c:	b580      	push	{r7, lr}
 800527e:	b086      	sub	sp, #24
 8005280:	af00      	add	r7, sp, #0
 8005282:	60f8      	str	r0, [r7, #12]
 8005284:	60b9      	str	r1, [r7, #8]
 8005286:	607a      	str	r2, [r7, #4]
 8005288:	2300      	movs	r3, #0
 800528a:	75fb      	strb	r3, [r7, #23]
 800528c:	687a      	ldr	r2, [r7, #4]
 800528e:	68b9      	ldr	r1, [r7, #8]
 8005290:	68f8      	ldr	r0, [r7, #12]
 8005292:	f000 fa4d 	bl	8005730 <VL53L0X_perform_ref_spad_management>
 8005296:	4603      	mov	r3, r0
 8005298:	75fb      	strb	r3, [r7, #23]
 800529a:	f997 3017 	ldrsb.w	r3, [r7, #23]
 800529e:	4618      	mov	r0, r3
 80052a0:	3718      	adds	r7, #24
 80052a2:	46bd      	mov	sp, r7
 80052a4:	bd80      	pop	{r7, pc}
	...

080052a8 <VL53L0X_set_offset_calibration_data_micro_meter>:
 80052a8:	b580      	push	{r7, lr}
 80052aa:	b088      	sub	sp, #32
 80052ac:	af00      	add	r7, sp, #0
 80052ae:	6078      	str	r0, [r7, #4]
 80052b0:	6039      	str	r1, [r7, #0]
 80052b2:	2300      	movs	r3, #0
 80052b4:	76fb      	strb	r3, [r7, #27]
 80052b6:	4b1d      	ldr	r3, [pc, #116]	; (800532c <VL53L0X_set_offset_calibration_data_micro_meter+0x84>)
 80052b8:	617b      	str	r3, [r7, #20]
 80052ba:	4b1d      	ldr	r3, [pc, #116]	; (8005330 <VL53L0X_set_offset_calibration_data_micro_meter+0x88>)
 80052bc:	613b      	str	r3, [r7, #16]
 80052be:	f44f 5380 	mov.w	r3, #4096	; 0x1000
 80052c2:	81fb      	strh	r3, [r7, #14]
 80052c4:	683a      	ldr	r2, [r7, #0]
 80052c6:	697b      	ldr	r3, [r7, #20]
 80052c8:	429a      	cmp	r2, r3
 80052ca:	dd02      	ble.n	80052d2 <VL53L0X_set_offset_calibration_data_micro_meter+0x2a>
 80052cc:	697b      	ldr	r3, [r7, #20]
 80052ce:	603b      	str	r3, [r7, #0]
 80052d0:	e005      	b.n	80052de <VL53L0X_set_offset_calibration_data_micro_meter+0x36>
 80052d2:	683a      	ldr	r2, [r7, #0]
 80052d4:	693b      	ldr	r3, [r7, #16]
 80052d6:	429a      	cmp	r2, r3
 80052d8:	da01      	bge.n	80052de <VL53L0X_set_offset_calibration_data_micro_meter+0x36>
 80052da:	693b      	ldr	r3, [r7, #16]
 80052dc:	603b      	str	r3, [r7, #0]
 80052de:	683b      	ldr	r3, [r7, #0]
 80052e0:	2b00      	cmp	r3, #0
 80052e2:	db08      	blt.n	80052f6 <VL53L0X_set_offset_calibration_data_micro_meter+0x4e>
 80052e4:	683b      	ldr	r3, [r7, #0]
 80052e6:	4a13      	ldr	r2, [pc, #76]	; (8005334 <VL53L0X_set_offset_calibration_data_micro_meter+0x8c>)
 80052e8:	fb82 1203 	smull	r1, r2, r2, r3
 80052ec:	1112      	asrs	r2, r2, #4
 80052ee:	17db      	asrs	r3, r3, #31
 80052f0:	1ad3      	subs	r3, r2, r3
 80052f2:	61fb      	str	r3, [r7, #28]
 80052f4:	e00a      	b.n	800530c <VL53L0X_set_offset_calibration_data_micro_meter+0x64>
 80052f6:	f9b7 200e 	ldrsh.w	r2, [r7, #14]
 80052fa:	683b      	ldr	r3, [r7, #0]
 80052fc:	490d      	ldr	r1, [pc, #52]	; (8005334 <VL53L0X_set_offset_calibration_data_micro_meter+0x8c>)
 80052fe:	fb81 0103 	smull	r0, r1, r1, r3
 8005302:	1109      	asrs	r1, r1, #4
 8005304:	17db      	asrs	r3, r3, #31
 8005306:	1acb      	subs	r3, r1, r3
 8005308:	4413      	add	r3, r2
 800530a:	61fb      	str	r3, [r7, #28]
 800530c:	69fb      	ldr	r3, [r7, #28]
 800530e:	b29b      	uxth	r3, r3
 8005310:	461a      	mov	r2, r3
 8005312:	2128      	movs	r1, #40	; 0x28
 8005314:	6878      	ldr	r0, [r7, #4]
 8005316:	f003 f86d 	bl	80083f4 <VL53L0X_WrWord>
 800531a:	4603      	mov	r3, r0
 800531c:	76fb      	strb	r3, [r7, #27]
 800531e:	f997 301b 	ldrsb.w	r3, [r7, #27]
 8005322:	4618      	mov	r0, r3
 8005324:	3720      	adds	r7, #32
 8005326:	46bd      	mov	sp, r7
 8005328:	bd80      	pop	{r7, pc}
 800532a:	bf00      	nop
 800532c:	0007cc18 	.word	0x0007cc18
 8005330:	fff83000 	.word	0xfff83000
 8005334:	10624dd3 	.word	0x10624dd3

08005338 <VL53L0X_get_offset_calibration_data_micro_meter>:
 8005338:	b580      	push	{r7, lr}
 800533a:	b084      	sub	sp, #16
 800533c:	af00      	add	r7, sp, #0
 800533e:	6078      	str	r0, [r7, #4]
 8005340:	6039      	str	r1, [r7, #0]
 8005342:	2300      	movs	r3, #0
 8005344:	73fb      	strb	r3, [r7, #15]
 8005346:	f240 73ff 	movw	r3, #2047	; 0x7ff
 800534a:	81bb      	strh	r3, [r7, #12]
 800534c:	f44f 5380 	mov.w	r3, #4096	; 0x1000
 8005350:	817b      	strh	r3, [r7, #10]
 8005352:	f107 0308 	add.w	r3, r7, #8
 8005356:	461a      	mov	r2, r3
 8005358:	2128      	movs	r1, #40	; 0x28
 800535a:	6878      	ldr	r0, [r7, #4]
 800535c:	f003 f8d2 	bl	8008504 <VL53L0X_RdWord>
 8005360:	4603      	mov	r3, r0
 8005362:	73fb      	strb	r3, [r7, #15]
 8005364:	f997 300f 	ldrsb.w	r3, [r7, #15]
 8005368:	2b00      	cmp	r3, #0
 800536a:	d11e      	bne.n	80053aa <VL53L0X_get_offset_calibration_data_micro_meter+0x72>
 800536c:	893b      	ldrh	r3, [r7, #8]
 800536e:	f3c3 030b 	ubfx	r3, r3, #0, #12
 8005372:	b29b      	uxth	r3, r3
 8005374:	813b      	strh	r3, [r7, #8]
 8005376:	893b      	ldrh	r3, [r7, #8]
 8005378:	461a      	mov	r2, r3
 800537a:	f9b7 300c 	ldrsh.w	r3, [r7, #12]
 800537e:	429a      	cmp	r2, r3
 8005380:	dd0b      	ble.n	800539a <VL53L0X_get_offset_calibration_data_micro_meter+0x62>
 8005382:	893a      	ldrh	r2, [r7, #8]
 8005384:	897b      	ldrh	r3, [r7, #10]
 8005386:	1ad3      	subs	r3, r2, r3
 8005388:	b29b      	uxth	r3, r3
 800538a:	b21b      	sxth	r3, r3
 800538c:	461a      	mov	r2, r3
 800538e:	23fa      	movs	r3, #250	; 0xfa
 8005390:	fb03 f202 	mul.w	r2, r3, r2
 8005394:	683b      	ldr	r3, [r7, #0]
 8005396:	601a      	str	r2, [r3, #0]
 8005398:	e007      	b.n	80053aa <VL53L0X_get_offset_calibration_data_micro_meter+0x72>
 800539a:	893b      	ldrh	r3, [r7, #8]
 800539c:	b21b      	sxth	r3, r3
 800539e:	461a      	mov	r2, r3
 80053a0:	23fa      	movs	r3, #250	; 0xfa
 80053a2:	fb03 f202 	mul.w	r2, r3, r2
 80053a6:	683b      	ldr	r3, [r7, #0]
 80053a8:	601a      	str	r2, [r3, #0]
 80053aa:	f997 300f 	ldrsb.w	r3, [r7, #15]
 80053ae:	4618      	mov	r0, r3
 80053b0:	3710      	adds	r7, #16
 80053b2:	46bd      	mov	sp, r7
 80053b4:	bd80      	pop	{r7, pc}

080053b6 <get_next_good_spad>:
 80053b6:	b480      	push	{r7}
 80053b8:	b08b      	sub	sp, #44	; 0x2c
 80053ba:	af00      	add	r7, sp, #0
 80053bc:	60f8      	str	r0, [r7, #12]
 80053be:	60b9      	str	r1, [r7, #8]
 80053c0:	607a      	str	r2, [r7, #4]
 80053c2:	603b      	str	r3, [r7, #0]
 80053c4:	2308      	movs	r3, #8
 80053c6:	61bb      	str	r3, [r7, #24]
 80053c8:	2300      	movs	r3, #0
 80053ca:	77bb      	strb	r3, [r7, #30]
 80053cc:	683b      	ldr	r3, [r7, #0]
 80053ce:	f04f 32ff 	mov.w	r2, #4294967295
 80053d2:	601a      	str	r2, [r3, #0]
 80053d4:	687a      	ldr	r2, [r7, #4]
 80053d6:	69bb      	ldr	r3, [r7, #24]
 80053d8:	fbb2 f3f3 	udiv	r3, r2, r3
 80053dc:	617b      	str	r3, [r7, #20]
 80053de:	687b      	ldr	r3, [r7, #4]
 80053e0:	69ba      	ldr	r2, [r7, #24]
 80053e2:	fbb3 f2f2 	udiv	r2, r3, r2
 80053e6:	69b9      	ldr	r1, [r7, #24]
 80053e8:	fb01 f202 	mul.w	r2, r1, r2
 80053ec:	1a9b      	subs	r3, r3, r2
 80053ee:	613b      	str	r3, [r7, #16]
 80053f0:	697b      	ldr	r3, [r7, #20]
 80053f2:	627b      	str	r3, [r7, #36]	; 0x24
 80053f4:	e030      	b.n	8005458 <get_next_good_spad+0xa2>
 80053f6:	2300      	movs	r3, #0
 80053f8:	623b      	str	r3, [r7, #32]
 80053fa:	68fa      	ldr	r2, [r7, #12]
 80053fc:	6a7b      	ldr	r3, [r7, #36]	; 0x24
 80053fe:	4413      	add	r3, r2
 8005400:	781b      	ldrb	r3, [r3, #0]
 8005402:	77fb      	strb	r3, [r7, #31]
 8005404:	6a7a      	ldr	r2, [r7, #36]	; 0x24
 8005406:	697b      	ldr	r3, [r7, #20]
 8005408:	429a      	cmp	r2, r3
 800540a:	d11e      	bne.n	800544a <get_next_good_spad+0x94>
 800540c:	7ffa      	ldrb	r2, [r7, #31]
 800540e:	693b      	ldr	r3, [r7, #16]
 8005410:	fa42 f303 	asr.w	r3, r2, r3
 8005414:	77fb      	strb	r3, [r7, #31]
 8005416:	693b      	ldr	r3, [r7, #16]
 8005418:	623b      	str	r3, [r7, #32]
 800541a:	e016      	b.n	800544a <get_next_good_spad+0x94>
 800541c:	7ffb      	ldrb	r3, [r7, #31]
 800541e:	f003 0301 	and.w	r3, r3, #1
 8005422:	2b00      	cmp	r3, #0
 8005424:	d00b      	beq.n	800543e <get_next_good_spad+0x88>
 8005426:	2301      	movs	r3, #1
 8005428:	77bb      	strb	r3, [r7, #30]
 800542a:	6a7b      	ldr	r3, [r7, #36]	; 0x24
 800542c:	69ba      	ldr	r2, [r7, #24]
 800542e:	fb02 f203 	mul.w	r2, r2, r3
 8005432:	6a3b      	ldr	r3, [r7, #32]
 8005434:	4413      	add	r3, r2
 8005436:	461a      	mov	r2, r3
 8005438:	683b      	ldr	r3, [r7, #0]
 800543a:	601a      	str	r2, [r3, #0]
 800543c:	e009      	b.n	8005452 <get_next_good_spad+0x9c>
 800543e:	7ffb      	ldrb	r3, [r7, #31]
 8005440:	085b      	lsrs	r3, r3, #1
 8005442:	77fb      	strb	r3, [r7, #31]
 8005444:	6a3b      	ldr	r3, [r7, #32]
 8005446:	3301      	adds	r3, #1
 8005448:	623b      	str	r3, [r7, #32]
 800544a:	6a3a      	ldr	r2, [r7, #32]
 800544c:	69bb      	ldr	r3, [r7, #24]
 800544e:	429a      	cmp	r2, r3
 8005450:	d3e4      	bcc.n	800541c <get_next_good_spad+0x66>
 8005452:	6a7b      	ldr	r3, [r7, #36]	; 0x24
 8005454:	3301      	adds	r3, #1
 8005456:	627b      	str	r3, [r7, #36]	; 0x24
 8005458:	6a7a      	ldr	r2, [r7, #36]	; 0x24
 800545a:	68bb      	ldr	r3, [r7, #8]
 800545c:	429a      	cmp	r2, r3
 800545e:	d202      	bcs.n	8005466 <get_next_good_spad+0xb0>
 8005460:	7fbb      	ldrb	r3, [r7, #30]
 8005462:	2b00      	cmp	r3, #0
 8005464:	d0c7      	beq.n	80053f6 <get_next_good_spad+0x40>
 8005466:	bf00      	nop
 8005468:	372c      	adds	r7, #44	; 0x2c
 800546a:	46bd      	mov	sp, r7
 800546c:	f85d 7b04 	ldr.w	r7, [sp], #4
 8005470:	4770      	bx	lr
	...

08005474 <is_aperture>:
 8005474:	b480      	push	{r7}
 8005476:	b085      	sub	sp, #20
 8005478:	af00      	add	r7, sp, #0
 800547a:	6078      	str	r0, [r7, #4]
 800547c:	2301      	movs	r3, #1
 800547e:	73fb      	strb	r3, [r7, #15]
 8005480:	687b      	ldr	r3, [r7, #4]
 8005482:	099b      	lsrs	r3, r3, #6
 8005484:	60bb      	str	r3, [r7, #8]
 8005486:	4a07      	ldr	r2, [pc, #28]	; (80054a4 <is_aperture+0x30>)
 8005488:	68bb      	ldr	r3, [r7, #8]
 800548a:	f852 3023 	ldr.w	r3, [r2, r3, lsl #2]
 800548e:	2b00      	cmp	r3, #0
 8005490:	d101      	bne.n	8005496 <is_aperture+0x22>
 8005492:	2300      	movs	r3, #0
 8005494:	73fb      	strb	r3, [r7, #15]
 8005496:	7bfb      	ldrb	r3, [r7, #15]
 8005498:	4618      	mov	r0, r3
 800549a:	3714      	adds	r7, #20
 800549c:	46bd      	mov	sp, r7
 800549e:	f85d 7b04 	ldr.w	r7, [sp], #4
 80054a2:	4770      	bx	lr
 80054a4:	200002b8 	.word	0x200002b8

080054a8 <enable_spad_bit>:
 80054a8:	b480      	push	{r7}
 80054aa:	b089      	sub	sp, #36	; 0x24
 80054ac:	af00      	add	r7, sp, #0
 80054ae:	60f8      	str	r0, [r7, #12]
 80054b0:	60b9      	str	r1, [r7, #8]
 80054b2:	607a      	str	r2, [r7, #4]
 80054b4:	2300      	movs	r3, #0
 80054b6:	77fb      	strb	r3, [r7, #31]
 80054b8:	2308      	movs	r3, #8
 80054ba:	61bb      	str	r3, [r7, #24]
 80054bc:	687a      	ldr	r2, [r7, #4]
 80054be:	69bb      	ldr	r3, [r7, #24]
 80054c0:	fbb2 f3f3 	udiv	r3, r2, r3
 80054c4:	617b      	str	r3, [r7, #20]
 80054c6:	687b      	ldr	r3, [r7, #4]
 80054c8:	69ba      	ldr	r2, [r7, #24]
 80054ca:	fbb3 f2f2 	udiv	r2, r3, r2
 80054ce:	69b9      	ldr	r1, [r7, #24]
 80054d0:	fb01 f202 	mul.w	r2, r1, r2
 80054d4:	1a9b      	subs	r3, r3, r2
 80054d6:	613b      	str	r3, [r7, #16]
 80054d8:	697a      	ldr	r2, [r7, #20]
 80054da:	68bb      	ldr	r3, [r7, #8]
 80054dc:	429a      	cmp	r2, r3
 80054de:	d302      	bcc.n	80054e6 <enable_spad_bit+0x3e>
 80054e0:	23ce      	movs	r3, #206	; 0xce
 80054e2:	77fb      	strb	r3, [r7, #31]
 80054e4:	e010      	b.n	8005508 <enable_spad_bit+0x60>
 80054e6:	68fa      	ldr	r2, [r7, #12]
 80054e8:	697b      	ldr	r3, [r7, #20]
 80054ea:	4413      	add	r3, r2
 80054ec:	781b      	ldrb	r3, [r3, #0]
 80054ee:	b25a      	sxtb	r2, r3
 80054f0:	2101      	movs	r1, #1
 80054f2:	693b      	ldr	r3, [r7, #16]
 80054f4:	fa01 f303 	lsl.w	r3, r1, r3
 80054f8:	b25b      	sxtb	r3, r3
 80054fa:	4313      	orrs	r3, r2
 80054fc:	b259      	sxtb	r1, r3
 80054fe:	68fa      	ldr	r2, [r7, #12]
 8005500:	697b      	ldr	r3, [r7, #20]
 8005502:	4413      	add	r3, r2
 8005504:	b2ca      	uxtb	r2, r1
 8005506:	701a      	strb	r2, [r3, #0]
 8005508:	f997 301f 	ldrsb.w	r3, [r7, #31]
 800550c:	4618      	mov	r0, r3
 800550e:	3724      	adds	r7, #36	; 0x24
 8005510:	46bd      	mov	sp, r7
 8005512:	f85d 7b04 	ldr.w	r7, [sp], #4
 8005516:	4770      	bx	lr

08005518 <set_ref_spad_map>:
 8005518:	b580      	push	{r7, lr}
 800551a:	b084      	sub	sp, #16
 800551c:	af00      	add	r7, sp, #0
 800551e:	6078      	str	r0, [r7, #4]
 8005520:	6039      	str	r1, [r7, #0]
 8005522:	2306      	movs	r3, #6
 8005524:	683a      	ldr	r2, [r7, #0]
 8005526:	21b0      	movs	r1, #176	; 0xb0
 8005528:	6878      	ldr	r0, [r7, #4]
 800552a:	f002 fee3 	bl	80082f4 <VL53L0X_WriteMulti>
 800552e:	4603      	mov	r3, r0
 8005530:	73fb      	strb	r3, [r7, #15]
 8005532:	f997 300f 	ldrsb.w	r3, [r7, #15]
 8005536:	4618      	mov	r0, r3
 8005538:	3710      	adds	r7, #16
 800553a:	46bd      	mov	sp, r7
 800553c:	bd80      	pop	{r7, pc}

0800553e <get_ref_spad_map>:
 800553e:	b580      	push	{r7, lr}
 8005540:	b084      	sub	sp, #16
 8005542:	af00      	add	r7, sp, #0
 8005544:	6078      	str	r0, [r7, #4]
 8005546:	6039      	str	r1, [r7, #0]
 8005548:	2306      	movs	r3, #6
 800554a:	683a      	ldr	r2, [r7, #0]
 800554c:	21b0      	movs	r1, #176	; 0xb0
 800554e:	6878      	ldr	r0, [r7, #4]
 8005550:	f002 ff00 	bl	8008354 <VL53L0X_ReadMulti>
 8005554:	4603      	mov	r3, r0
 8005556:	73fb      	strb	r3, [r7, #15]
 8005558:	f997 300f 	ldrsb.w	r3, [r7, #15]
 800555c:	4618      	mov	r0, r3
 800555e:	3710      	adds	r7, #16
 8005560:	46bd      	mov	sp, r7
 8005562:	bd80      	pop	{r7, pc}

08005564 <enable_ref_spads>:
 8005564:	b580      	push	{r7, lr}
 8005566:	b08c      	sub	sp, #48	; 0x30
 8005568:	af00      	add	r7, sp, #0
 800556a:	60f8      	str	r0, [r7, #12]
 800556c:	607a      	str	r2, [r7, #4]
 800556e:	603b      	str	r3, [r7, #0]
 8005570:	460b      	mov	r3, r1
 8005572:	72fb      	strb	r3, [r7, #11]
 8005574:	2300      	movs	r3, #0
 8005576:	f887 302f 	strb.w	r3, [r7, #47]	; 0x2f
 800557a:	6c3b      	ldr	r3, [r7, #64]	; 0x40
 800557c:	61fb      	str	r3, [r7, #28]
 800557e:	6c3b      	ldr	r3, [r7, #64]	; 0x40
 8005580:	623b      	str	r3, [r7, #32]
 8005582:	2300      	movs	r3, #0
 8005584:	62bb      	str	r3, [r7, #40]	; 0x28
 8005586:	e02b      	b.n	80055e0 <enable_ref_spads+0x7c>
 8005588:	f107 031c 	add.w	r3, r7, #28
 800558c:	6a3a      	ldr	r2, [r7, #32]
 800558e:	6bb9      	ldr	r1, [r7, #56]	; 0x38
 8005590:	6878      	ldr	r0, [r7, #4]
 8005592:	f7ff ff10 	bl	80053b6 <get_next_good_spad>
 8005596:	69fb      	ldr	r3, [r7, #28]
 8005598:	f1b3 3fff 	cmp.w	r3, #4294967295
 800559c:	d103      	bne.n	80055a6 <enable_ref_spads+0x42>
 800559e:	23ce      	movs	r3, #206	; 0xce
 80055a0:	f887 302f 	strb.w	r3, [r7, #47]	; 0x2f
 80055a4:	e020      	b.n	80055e8 <enable_ref_spads+0x84>
 80055a6:	69fb      	ldr	r3, [r7, #28]
 80055a8:	461a      	mov	r2, r3
 80055aa:	6bfb      	ldr	r3, [r7, #60]	; 0x3c
 80055ac:	4413      	add	r3, r2
 80055ae:	4618      	mov	r0, r3
 80055b0:	f7ff ff60 	bl	8005474 <is_aperture>
 80055b4:	4603      	mov	r3, r0
 80055b6:	461a      	mov	r2, r3
 80055b8:	7afb      	ldrb	r3, [r7, #11]
 80055ba:	4293      	cmp	r3, r2
 80055bc:	d003      	beq.n	80055c6 <enable_ref_spads+0x62>
 80055be:	23ce      	movs	r3, #206	; 0xce
 80055c0:	f887 302f 	strb.w	r3, [r7, #47]	; 0x2f
 80055c4:	e010      	b.n	80055e8 <enable_ref_spads+0x84>
 80055c6:	69fb      	ldr	r3, [r7, #28]
 80055c8:	623b      	str	r3, [r7, #32]
 80055ca:	6a3a      	ldr	r2, [r7, #32]
 80055cc:	6bb9      	ldr	r1, [r7, #56]	; 0x38
 80055ce:	6838      	ldr	r0, [r7, #0]
 80055d0:	f7ff ff6a 	bl	80054a8 <enable_spad_bit>
 80055d4:	6a3b      	ldr	r3, [r7, #32]
 80055d6:	3301      	adds	r3, #1
 80055d8:	623b      	str	r3, [r7, #32]
 80055da:	6abb      	ldr	r3, [r7, #40]	; 0x28
 80055dc:	3301      	adds	r3, #1
 80055de:	62bb      	str	r3, [r7, #40]	; 0x28
 80055e0:	6aba      	ldr	r2, [r7, #40]	; 0x28
 80055e2:	6c7b      	ldr	r3, [r7, #68]	; 0x44
 80055e4:	429a      	cmp	r2, r3
 80055e6:	d3cf      	bcc.n	8005588 <enable_ref_spads+0x24>
 80055e8:	6cbb      	ldr	r3, [r7, #72]	; 0x48
 80055ea:	6a3a      	ldr	r2, [r7, #32]
 80055ec:	601a      	str	r2, [r3, #0]
 80055ee:	f997 302f 	ldrsb.w	r3, [r7, #47]	; 0x2f
 80055f2:	2b00      	cmp	r3, #0
 80055f4:	d106      	bne.n	8005604 <enable_ref_spads+0xa0>
 80055f6:	6839      	ldr	r1, [r7, #0]
 80055f8:	68f8      	ldr	r0, [r7, #12]
 80055fa:	f7ff ff8d 	bl	8005518 <set_ref_spad_map>
 80055fe:	4603      	mov	r3, r0
 8005600:	f887 302f 	strb.w	r3, [r7, #47]	; 0x2f
 8005604:	f997 302f 	ldrsb.w	r3, [r7, #47]	; 0x2f
 8005608:	2b00      	cmp	r3, #0
 800560a:	d121      	bne.n	8005650 <enable_ref_spads+0xec>
 800560c:	f107 0314 	add.w	r3, r7, #20
 8005610:	4619      	mov	r1, r3
 8005612:	68f8      	ldr	r0, [r7, #12]
 8005614:	f7ff ff93 	bl	800553e <get_ref_spad_map>
 8005618:	4603      	mov	r3, r0
 800561a:	f887 302f 	strb.w	r3, [r7, #47]	; 0x2f
 800561e:	2300      	movs	r3, #0
 8005620:	627b      	str	r3, [r7, #36]	; 0x24
 8005622:	e011      	b.n	8005648 <enable_ref_spads+0xe4>
 8005624:	683a      	ldr	r2, [r7, #0]
 8005626:	6a7b      	ldr	r3, [r7, #36]	; 0x24
 8005628:	4413      	add	r3, r2
 800562a:	781a      	ldrb	r2, [r3, #0]
 800562c:	f107 0114 	add.w	r1, r7, #20
 8005630:	6a7b      	ldr	r3, [r7, #36]	; 0x24
 8005632:	440b      	add	r3, r1
 8005634:	781b      	ldrb	r3, [r3, #0]
 8005636:	429a      	cmp	r2, r3
 8005638:	d003      	beq.n	8005642 <enable_ref_spads+0xde>
 800563a:	23ce      	movs	r3, #206	; 0xce
 800563c:	f887 302f 	strb.w	r3, [r7, #47]	; 0x2f
 8005640:	e006      	b.n	8005650 <enable_ref_spads+0xec>
 8005642:	6a7b      	ldr	r3, [r7, #36]	; 0x24
 8005644:	3301      	adds	r3, #1
 8005646:	627b      	str	r3, [r7, #36]	; 0x24
 8005648:	6a7a      	ldr	r2, [r7, #36]	; 0x24
 800564a:	6bbb      	ldr	r3, [r7, #56]	; 0x38
 800564c:	429a      	cmp	r2, r3
 800564e:	d3e9      	bcc.n	8005624 <enable_ref_spads+0xc0>
 8005650:	f997 302f 	ldrsb.w	r3, [r7, #47]	; 0x2f
 8005654:	4618      	mov	r0, r3
 8005656:	3730      	adds	r7, #48	; 0x30
 8005658:	46bd      	mov	sp, r7
 800565a:	bd80      	pop	{r7, pc}

0800565c <perform_ref_signal_measurement>:
 800565c:	b580      	push	{r7, lr}
 800565e:	b08a      	sub	sp, #40	; 0x28
 8005660:	af00      	add	r7, sp, #0
 8005662:	6078      	str	r0, [r7, #4]
 8005664:	6039      	str	r1, [r7, #0]
 8005666:	2300      	movs	r3, #0
 8005668:	f887 3027 	strb.w	r3, [r7, #39]	; 0x27
 800566c:	2300      	movs	r3, #0
 800566e:	f887 3026 	strb.w	r3, [r7, #38]	; 0x26
 8005672:	687b      	ldr	r3, [r7, #4]
 8005674:	f893 3130 	ldrb.w	r3, [r3, #304]	; 0x130
 8005678:	f887 3026 	strb.w	r3, [r7, #38]	; 0x26
 800567c:	f997 3027 	ldrsb.w	r3, [r7, #39]	; 0x27
 8005680:	2b00      	cmp	r3, #0
 8005682:	d107      	bne.n	8005694 <perform_ref_signal_measurement+0x38>
 8005684:	22c0      	movs	r2, #192	; 0xc0
 8005686:	2101      	movs	r1, #1
 8005688:	6878      	ldr	r0, [r7, #4]
 800568a:	f002 fe8f 	bl	80083ac <VL53L0X_WrByte>
 800568e:	4603      	mov	r3, r0
 8005690:	f887 3027 	strb.w	r3, [r7, #39]	; 0x27
 8005694:	f997 3027 	ldrsb.w	r3, [r7, #39]	; 0x27
 8005698:	2b00      	cmp	r3, #0
 800569a:	d108      	bne.n	80056ae <perform_ref_signal_measurement+0x52>
 800569c:	f107 0308 	add.w	r3, r7, #8
 80056a0:	4619      	mov	r1, r3
 80056a2:	6878      	ldr	r0, [r7, #4]
 80056a4:	f7ff fbfe 	bl	8004ea4 <VL53L0X_PerformSingleRangingMeasurement>
 80056a8:	4603      	mov	r3, r0
 80056aa:	f887 3027 	strb.w	r3, [r7, #39]	; 0x27
 80056ae:	f997 3027 	ldrsb.w	r3, [r7, #39]	; 0x27
 80056b2:	2b00      	cmp	r3, #0
 80056b4:	d107      	bne.n	80056c6 <perform_ref_signal_measurement+0x6a>
 80056b6:	2201      	movs	r2, #1
 80056b8:	21ff      	movs	r1, #255	; 0xff
 80056ba:	6878      	ldr	r0, [r7, #4]
 80056bc:	f002 fe76 	bl	80083ac <VL53L0X_WrByte>
 80056c0:	4603      	mov	r3, r0
 80056c2:	f887 3027 	strb.w	r3, [r7, #39]	; 0x27
 80056c6:	f997 3027 	ldrsb.w	r3, [r7, #39]	; 0x27
 80056ca:	2b00      	cmp	r3, #0
 80056cc:	d107      	bne.n	80056de <perform_ref_signal_measurement+0x82>
 80056ce:	683a      	ldr	r2, [r7, #0]
 80056d0:	21b6      	movs	r1, #182	; 0xb6
 80056d2:	6878      	ldr	r0, [r7, #4]
 80056d4:	f002 ff16 	bl	8008504 <VL53L0X_RdWord>
 80056d8:	4603      	mov	r3, r0
 80056da:	f887 3027 	strb.w	r3, [r7, #39]	; 0x27
 80056de:	f997 3027 	ldrsb.w	r3, [r7, #39]	; 0x27
 80056e2:	2b00      	cmp	r3, #0
 80056e4:	d107      	bne.n	80056f6 <perform_ref_signal_measurement+0x9a>
 80056e6:	2200      	movs	r2, #0
 80056e8:	21ff      	movs	r1, #255	; 0xff
 80056ea:	6878      	ldr	r0, [r7, #4]
 80056ec:	f002 fe5e 	bl	80083ac <VL53L0X_WrByte>
 80056f0:	4603      	mov	r3, r0
 80056f2:	f887 3027 	strb.w	r3, [r7, #39]	; 0x27
 80056f6:	f997 3027 	ldrsb.w	r3, [r7, #39]	; 0x27
 80056fa:	2b00      	cmp	r3, #0
 80056fc:	d112      	bne.n	8005724 <perform_ref_signal_measurement+0xc8>
 80056fe:	f897 3026 	ldrb.w	r3, [r7, #38]	; 0x26
 8005702:	461a      	mov	r2, r3
 8005704:	2101      	movs	r1, #1
 8005706:	6878      	ldr	r0, [r7, #4]
 8005708:	f002 fe50 	bl	80083ac <VL53L0X_WrByte>
 800570c:	4603      	mov	r3, r0
 800570e:	f887 3027 	strb.w	r3, [r7, #39]	; 0x27
 8005712:	f997 3027 	ldrsb.w	r3, [r7, #39]	; 0x27
 8005716:	2b00      	cmp	r3, #0
 8005718:	d104      	bne.n	8005724 <perform_ref_signal_measurement+0xc8>
 800571a:	687b      	ldr	r3, [r7, #4]
 800571c:	f897 2026 	ldrb.w	r2, [r7, #38]	; 0x26
 8005720:	f883 2130 	strb.w	r2, [r3, #304]	; 0x130
 8005724:	f997 3027 	ldrsb.w	r3, [r7, #39]	; 0x27
 8005728:	4618      	mov	r0, r3
 800572a:	3728      	adds	r7, #40	; 0x28
 800572c:	46bd      	mov	sp, r7
 800572e:	bd80      	pop	{r7, pc}

08005730 <VL53L0X_perform_ref_spad_management>:
 8005730:	b590      	push	{r4, r7, lr}
 8005732:	b09d      	sub	sp, #116	; 0x74
 8005734:	af06      	add	r7, sp, #24
 8005736:	60f8      	str	r0, [r7, #12]
 8005738:	60b9      	str	r1, [r7, #8]
 800573a:	607a      	str	r2, [r7, #4]
 800573c:	2300      	movs	r3, #0
 800573e:	f887 3057 	strb.w	r3, [r7, #87]	; 0x57
 8005742:	23b4      	movs	r3, #180	; 0xb4
 8005744:	f887 303a 	strb.w	r3, [r7, #58]	; 0x3a
 8005748:	2303      	movs	r3, #3
 800574a:	637b      	str	r3, [r7, #52]	; 0x34
 800574c:	232c      	movs	r3, #44	; 0x2c
 800574e:	633b      	str	r3, [r7, #48]	; 0x30
 8005750:	2300      	movs	r3, #0
 8005752:	653b      	str	r3, [r7, #80]	; 0x50
 8005754:	2300      	movs	r3, #0
 8005756:	61bb      	str	r3, [r7, #24]
 8005758:	2300      	movs	r3, #0
 800575a:	617b      	str	r3, [r7, #20]
 800575c:	f44f 6320 	mov.w	r3, #2560	; 0xa00
 8005760:	85fb      	strh	r3, [r7, #46]	; 0x2e
 8005762:	2300      	movs	r3, #0
 8005764:	64fb      	str	r3, [r7, #76]	; 0x4c
 8005766:	2300      	movs	r3, #0
 8005768:	64bb      	str	r3, [r7, #72]	; 0x48
 800576a:	2306      	movs	r3, #6
 800576c:	62bb      	str	r3, [r7, #40]	; 0x28
 800576e:	2300      	movs	r3, #0
 8005770:	627b      	str	r3, [r7, #36]	; 0x24
 8005772:	2300      	movs	r3, #0
 8005774:	647b      	str	r3, [r7, #68]	; 0x44
 8005776:	2300      	movs	r3, #0
 8005778:	f887 3043 	strb.w	r3, [r7, #67]	; 0x43
 800577c:	2300      	movs	r3, #0
 800577e:	747b      	strb	r3, [r7, #17]
 8005780:	2300      	movs	r3, #0
 8005782:	743b      	strb	r3, [r7, #16]
 8005784:	2300      	movs	r3, #0
 8005786:	63fb      	str	r3, [r7, #60]	; 0x3c
 8005788:	2300      	movs	r3, #0
 800578a:	f887 303b 	strb.w	r3, [r7, #59]	; 0x3b
 800578e:	68fb      	ldr	r3, [r7, #12]
 8005790:	f8b3 313c 	ldrh.w	r3, [r3, #316]	; 0x13c
 8005794:	85fb      	strh	r3, [r7, #46]	; 0x2e
 8005796:	2300      	movs	r3, #0
 8005798:	64bb      	str	r3, [r7, #72]	; 0x48
 800579a:	e009      	b.n	80057b0 <VL53L0X_perform_ref_spad_management+0x80>
 800579c:	68fa      	ldr	r2, [r7, #12]
 800579e:	6cbb      	ldr	r3, [r7, #72]	; 0x48
 80057a0:	4413      	add	r3, r2
 80057a2:	f503 7392 	add.w	r3, r3, #292	; 0x124
 80057a6:	2200      	movs	r2, #0
 80057a8:	701a      	strb	r2, [r3, #0]
 80057aa:	6cbb      	ldr	r3, [r7, #72]	; 0x48
 80057ac:	3301      	adds	r3, #1
 80057ae:	64bb      	str	r3, [r7, #72]	; 0x48
 80057b0:	6cba      	ldr	r2, [r7, #72]	; 0x48
 80057b2:	6abb      	ldr	r3, [r7, #40]	; 0x28
 80057b4:	429a      	cmp	r2, r3
 80057b6:	d3f1      	bcc.n	800579c <VL53L0X_perform_ref_spad_management+0x6c>
 80057b8:	2201      	movs	r2, #1
 80057ba:	21ff      	movs	r1, #255	; 0xff
 80057bc:	68f8      	ldr	r0, [r7, #12]
 80057be:	f002 fdf5 	bl	80083ac <VL53L0X_WrByte>
 80057c2:	4603      	mov	r3, r0
 80057c4:	f887 3057 	strb.w	r3, [r7, #87]	; 0x57
 80057c8:	f997 3057 	ldrsb.w	r3, [r7, #87]	; 0x57
 80057cc:	2b00      	cmp	r3, #0
 80057ce:	d107      	bne.n	80057e0 <VL53L0X_perform_ref_spad_management+0xb0>
 80057d0:	2200      	movs	r2, #0
 80057d2:	214f      	movs	r1, #79	; 0x4f
 80057d4:	68f8      	ldr	r0, [r7, #12]
 80057d6:	f002 fde9 	bl	80083ac <VL53L0X_WrByte>
 80057da:	4603      	mov	r3, r0
 80057dc:	f887 3057 	strb.w	r3, [r7, #87]	; 0x57
 80057e0:	f997 3057 	ldrsb.w	r3, [r7, #87]	; 0x57
 80057e4:	2b00      	cmp	r3, #0
 80057e6:	d107      	bne.n	80057f8 <VL53L0X_perform_ref_spad_management+0xc8>
 80057e8:	222c      	movs	r2, #44	; 0x2c
 80057ea:	214e      	movs	r1, #78	; 0x4e
 80057ec:	68f8      	ldr	r0, [r7, #12]
 80057ee:	f002 fddd 	bl	80083ac <VL53L0X_WrByte>
 80057f2:	4603      	mov	r3, r0
 80057f4:	f887 3057 	strb.w	r3, [r7, #87]	; 0x57
 80057f8:	f997 3057 	ldrsb.w	r3, [r7, #87]	; 0x57
 80057fc:	2b00      	cmp	r3, #0
 80057fe:	d107      	bne.n	8005810 <VL53L0X_perform_ref_spad_management+0xe0>
 8005800:	2200      	movs	r2, #0
 8005802:	21ff      	movs	r1, #255	; 0xff
 8005804:	68f8      	ldr	r0, [r7, #12]
 8005806:	f002 fdd1 	bl	80083ac <VL53L0X_WrByte>
 800580a:	4603      	mov	r3, r0
 800580c:	f887 3057 	strb.w	r3, [r7, #87]	; 0x57
 8005810:	f997 3057 	ldrsb.w	r3, [r7, #87]	; 0x57
 8005814:	2b00      	cmp	r3, #0
 8005816:	d109      	bne.n	800582c <VL53L0X_perform_ref_spad_management+0xfc>
 8005818:	f897 303a 	ldrb.w	r3, [r7, #58]	; 0x3a
 800581c:	461a      	mov	r2, r3
 800581e:	21b6      	movs	r1, #182	; 0xb6
 8005820:	68f8      	ldr	r0, [r7, #12]
 8005822:	f002 fdc3 	bl	80083ac <VL53L0X_WrByte>
 8005826:	4603      	mov	r3, r0
 8005828:	f887 3057 	strb.w	r3, [r7, #87]	; 0x57
 800582c:	f997 3057 	ldrsb.w	r3, [r7, #87]	; 0x57
 8005830:	2b00      	cmp	r3, #0
 8005832:	d107      	bne.n	8005844 <VL53L0X_perform_ref_spad_management+0x114>
 8005834:	2200      	movs	r2, #0
 8005836:	2180      	movs	r1, #128	; 0x80
 8005838:	68f8      	ldr	r0, [r7, #12]
 800583a:	f002 fdb7 	bl	80083ac <VL53L0X_WrByte>
 800583e:	4603      	mov	r3, r0
 8005840:	f887 3057 	strb.w	r3, [r7, #87]	; 0x57
 8005844:	f997 3057 	ldrsb.w	r3, [r7, #87]	; 0x57
 8005848:	2b00      	cmp	r3, #0
 800584a:	d10a      	bne.n	8005862 <VL53L0X_perform_ref_spad_management+0x132>
 800584c:	f107 0210 	add.w	r2, r7, #16
 8005850:	f107 0111 	add.w	r1, r7, #17
 8005854:	2300      	movs	r3, #0
 8005856:	68f8      	ldr	r0, [r7, #12]
 8005858:	f000 fbbb 	bl	8005fd2 <VL53L0X_perform_ref_calibration>
 800585c:	4603      	mov	r3, r0
 800585e:	f887 3057 	strb.w	r3, [r7, #87]	; 0x57
 8005862:	f997 3057 	ldrsb.w	r3, [r7, #87]	; 0x57
 8005866:	2b00      	cmp	r3, #0
 8005868:	d121      	bne.n	80058ae <VL53L0X_perform_ref_spad_management+0x17e>
 800586a:	2300      	movs	r3, #0
 800586c:	653b      	str	r3, [r7, #80]	; 0x50
 800586e:	6d3b      	ldr	r3, [r7, #80]	; 0x50
 8005870:	61bb      	str	r3, [r7, #24]
 8005872:	2300      	movs	r3, #0
 8005874:	64fb      	str	r3, [r7, #76]	; 0x4c
 8005876:	6cfb      	ldr	r3, [r7, #76]	; 0x4c
 8005878:	b2d9      	uxtb	r1, r3
 800587a:	68fb      	ldr	r3, [r7, #12]
 800587c:	f503 7095 	add.w	r0, r3, #298	; 0x12a
 8005880:	68fb      	ldr	r3, [r7, #12]
 8005882:	f503 7492 	add.w	r4, r3, #292	; 0x124
 8005886:	f897 303a 	ldrb.w	r3, [r7, #58]	; 0x3a
 800588a:	f107 0218 	add.w	r2, r7, #24
 800588e:	9204      	str	r2, [sp, #16]
 8005890:	6b7a      	ldr	r2, [r7, #52]	; 0x34
 8005892:	9203      	str	r2, [sp, #12]
 8005894:	6d3a      	ldr	r2, [r7, #80]	; 0x50
 8005896:	9202      	str	r2, [sp, #8]
 8005898:	9301      	str	r3, [sp, #4]
 800589a:	6abb      	ldr	r3, [r7, #40]	; 0x28
 800589c:	9300      	str	r3, [sp, #0]
 800589e:	4623      	mov	r3, r4
 80058a0:	4602      	mov	r2, r0
 80058a2:	68f8      	ldr	r0, [r7, #12]
 80058a4:	f7ff fe5e 	bl	8005564 <enable_ref_spads>
 80058a8:	4603      	mov	r3, r0
 80058aa:	f887 3057 	strb.w	r3, [r7, #87]	; 0x57
 80058ae:	f997 3057 	ldrsb.w	r3, [r7, #87]	; 0x57
 80058b2:	2b00      	cmp	r3, #0
 80058b4:	d174      	bne.n	80059a0 <VL53L0X_perform_ref_spad_management+0x270>
 80058b6:	69bb      	ldr	r3, [r7, #24]
 80058b8:	653b      	str	r3, [r7, #80]	; 0x50
 80058ba:	f107 0312 	add.w	r3, r7, #18
 80058be:	4619      	mov	r1, r3
 80058c0:	68f8      	ldr	r0, [r7, #12]
 80058c2:	f7ff fecb 	bl	800565c <perform_ref_signal_measurement>
 80058c6:	4603      	mov	r3, r0
 80058c8:	f887 3057 	strb.w	r3, [r7, #87]	; 0x57
 80058cc:	f997 3057 	ldrsb.w	r3, [r7, #87]	; 0x57
 80058d0:	2b00      	cmp	r3, #0
 80058d2:	d161      	bne.n	8005998 <VL53L0X_perform_ref_spad_management+0x268>
 80058d4:	8a7b      	ldrh	r3, [r7, #18]
 80058d6:	8dfa      	ldrh	r2, [r7, #46]	; 0x2e
 80058d8:	429a      	cmp	r2, r3
 80058da:	d25d      	bcs.n	8005998 <VL53L0X_perform_ref_spad_management+0x268>
 80058dc:	2300      	movs	r3, #0
 80058de:	64bb      	str	r3, [r7, #72]	; 0x48
 80058e0:	e009      	b.n	80058f6 <VL53L0X_perform_ref_spad_management+0x1c6>
 80058e2:	68fa      	ldr	r2, [r7, #12]
 80058e4:	6cbb      	ldr	r3, [r7, #72]	; 0x48
 80058e6:	4413      	add	r3, r2
 80058e8:	f503 7392 	add.w	r3, r3, #292	; 0x124
 80058ec:	2200      	movs	r2, #0
 80058ee:	701a      	strb	r2, [r3, #0]
 80058f0:	6cbb      	ldr	r3, [r7, #72]	; 0x48
 80058f2:	3301      	adds	r3, #1
 80058f4:	64bb      	str	r3, [r7, #72]	; 0x48
 80058f6:	6cba      	ldr	r2, [r7, #72]	; 0x48
 80058f8:	6abb      	ldr	r3, [r7, #40]	; 0x28
 80058fa:	429a      	cmp	r2, r3
 80058fc:	d3f1      	bcc.n	80058e2 <VL53L0X_perform_ref_spad_management+0x1b2>
 80058fe:	e002      	b.n	8005906 <VL53L0X_perform_ref_spad_management+0x1d6>
 8005900:	6d3b      	ldr	r3, [r7, #80]	; 0x50
 8005902:	3301      	adds	r3, #1
 8005904:	653b      	str	r3, [r7, #80]	; 0x50
 8005906:	f897 203a 	ldrb.w	r2, [r7, #58]	; 0x3a
 800590a:	6d3b      	ldr	r3, [r7, #80]	; 0x50
 800590c:	4413      	add	r3, r2
 800590e:	4618      	mov	r0, r3
 8005910:	f7ff fdb0 	bl	8005474 <is_aperture>
 8005914:	4603      	mov	r3, r0
 8005916:	2b00      	cmp	r3, #0
 8005918:	d103      	bne.n	8005922 <VL53L0X_perform_ref_spad_management+0x1f2>
 800591a:	6d3a      	ldr	r2, [r7, #80]	; 0x50
 800591c:	6b3b      	ldr	r3, [r7, #48]	; 0x30
 800591e:	429a      	cmp	r2, r3
 8005920:	d3ee      	bcc.n	8005900 <VL53L0X_perform_ref_spad_management+0x1d0>
 8005922:	2301      	movs	r3, #1
 8005924:	64fb      	str	r3, [r7, #76]	; 0x4c
 8005926:	6cfb      	ldr	r3, [r7, #76]	; 0x4c
 8005928:	b2d9      	uxtb	r1, r3
 800592a:	68fb      	ldr	r3, [r7, #12]
 800592c:	f503 7095 	add.w	r0, r3, #298	; 0x12a
 8005930:	68fb      	ldr	r3, [r7, #12]
 8005932:	f503 7492 	add.w	r4, r3, #292	; 0x124
 8005936:	f897 303a 	ldrb.w	r3, [r7, #58]	; 0x3a
 800593a:	f107 0218 	add.w	r2, r7, #24
 800593e:	9204      	str	r2, [sp, #16]
 8005940:	6b7a      	ldr	r2, [r7, #52]	; 0x34
 8005942:	9203      	str	r2, [sp, #12]
 8005944:	6d3a      	ldr	r2, [r7, #80]	; 0x50
 8005946:	9202      	str	r2, [sp, #8]
 8005948:	9301      	str	r3, [sp, #4]
 800594a:	6abb      	ldr	r3, [r7, #40]	; 0x28
 800594c:	9300      	str	r3, [sp, #0]
 800594e:	4623      	mov	r3, r4
 8005950:	4602      	mov	r2, r0
 8005952:	68f8      	ldr	r0, [r7, #12]
 8005954:	f7ff fe06 	bl	8005564 <enable_ref_spads>
 8005958:	4603      	mov	r3, r0
 800595a:	f887 3057 	strb.w	r3, [r7, #87]	; 0x57
 800595e:	f997 3057 	ldrsb.w	r3, [r7, #87]	; 0x57
 8005962:	2b00      	cmp	r3, #0
 8005964:	d11b      	bne.n	800599e <VL53L0X_perform_ref_spad_management+0x26e>
 8005966:	69bb      	ldr	r3, [r7, #24]
 8005968:	653b      	str	r3, [r7, #80]	; 0x50
 800596a:	f107 0312 	add.w	r3, r7, #18
 800596e:	4619      	mov	r1, r3
 8005970:	68f8      	ldr	r0, [r7, #12]
 8005972:	f7ff fe73 	bl	800565c <perform_ref_signal_measurement>
 8005976:	4603      	mov	r3, r0
 8005978:	f887 3057 	strb.w	r3, [r7, #87]	; 0x57
 800597c:	f997 3057 	ldrsb.w	r3, [r7, #87]	; 0x57
 8005980:	2b00      	cmp	r3, #0
 8005982:	d10c      	bne.n	800599e <VL53L0X_perform_ref_spad_management+0x26e>
 8005984:	8a7b      	ldrh	r3, [r7, #18]
 8005986:	8dfa      	ldrh	r2, [r7, #46]	; 0x2e
 8005988:	429a      	cmp	r2, r3
 800598a:	d208      	bcs.n	800599e <VL53L0X_perform_ref_spad_management+0x26e>
 800598c:	2301      	movs	r3, #1
 800598e:	f887 303b 	strb.w	r3, [r7, #59]	; 0x3b
 8005992:	6b7b      	ldr	r3, [r7, #52]	; 0x34
 8005994:	63fb      	str	r3, [r7, #60]	; 0x3c
 8005996:	e002      	b.n	800599e <VL53L0X_perform_ref_spad_management+0x26e>
 8005998:	2300      	movs	r3, #0
 800599a:	64fb      	str	r3, [r7, #76]	; 0x4c
 800599c:	e000      	b.n	80059a0 <VL53L0X_perform_ref_spad_management+0x270>
 800599e:	bf00      	nop
 80059a0:	f997 3057 	ldrsb.w	r3, [r7, #87]	; 0x57
 80059a4:	2b00      	cmp	r3, #0
 80059a6:	f040 80af 	bne.w	8005b08 <VL53L0X_perform_ref_spad_management+0x3d8>
 80059aa:	8a7b      	ldrh	r3, [r7, #18]
 80059ac:	8dfa      	ldrh	r2, [r7, #46]	; 0x2e
 80059ae:	429a      	cmp	r2, r3
 80059b0:	f240 80aa 	bls.w	8005b08 <VL53L0X_perform_ref_spad_management+0x3d8>
 80059b4:	6cfb      	ldr	r3, [r7, #76]	; 0x4c
 80059b6:	f887 303b 	strb.w	r3, [r7, #59]	; 0x3b
 80059ba:	6b7b      	ldr	r3, [r7, #52]	; 0x34
 80059bc:	63fb      	str	r3, [r7, #60]	; 0x3c
 80059be:	68fb      	ldr	r3, [r7, #12]
 80059c0:	f503 7192 	add.w	r1, r3, #292	; 0x124
 80059c4:	f107 031c 	add.w	r3, r7, #28
 80059c8:	6aba      	ldr	r2, [r7, #40]	; 0x28
 80059ca:	4618      	mov	r0, r3
 80059cc:	f002 fe48 	bl	8008660 <memcpy>
 80059d0:	8a7b      	ldrh	r3, [r7, #18]
 80059d2:	461a      	mov	r2, r3
 80059d4:	8dfb      	ldrh	r3, [r7, #46]	; 0x2e
 80059d6:	1ad3      	subs	r3, r2, r3
 80059d8:	2b00      	cmp	r3, #0
 80059da:	bfb8      	it	lt
 80059dc:	425b      	neglt	r3, r3
 80059de:	647b      	str	r3, [r7, #68]	; 0x44
 80059e0:	2300      	movs	r3, #0
 80059e2:	f887 3043 	strb.w	r3, [r7, #67]	; 0x43
 80059e6:	e086      	b.n	8005af6 <VL53L0X_perform_ref_spad_management+0x3c6>
 80059e8:	68fb      	ldr	r3, [r7, #12]
 80059ea:	f503 7095 	add.w	r0, r3, #298	; 0x12a
 80059ee:	f107 0314 	add.w	r3, r7, #20
 80059f2:	6d3a      	ldr	r2, [r7, #80]	; 0x50
 80059f4:	6ab9      	ldr	r1, [r7, #40]	; 0x28
 80059f6:	f7ff fcde 	bl	80053b6 <get_next_good_spad>
 80059fa:	697b      	ldr	r3, [r7, #20]
 80059fc:	f1b3 3fff 	cmp.w	r3, #4294967295
 8005a00:	d103      	bne.n	8005a0a <VL53L0X_perform_ref_spad_management+0x2da>
 8005a02:	23ce      	movs	r3, #206	; 0xce
 8005a04:	f887 3057 	strb.w	r3, [r7, #87]	; 0x57
 8005a08:	e07e      	b.n	8005b08 <VL53L0X_perform_ref_spad_management+0x3d8>
 8005a0a:	f897 303a 	ldrb.w	r3, [r7, #58]	; 0x3a
 8005a0e:	697a      	ldr	r2, [r7, #20]
 8005a10:	4413      	add	r3, r2
 8005a12:	4618      	mov	r0, r3
 8005a14:	f7ff fd2e 	bl	8005474 <is_aperture>
 8005a18:	4603      	mov	r3, r0
 8005a1a:	461a      	mov	r2, r3
 8005a1c:	6cfb      	ldr	r3, [r7, #76]	; 0x4c
 8005a1e:	4293      	cmp	r3, r2
 8005a20:	d003      	beq.n	8005a2a <VL53L0X_perform_ref_spad_management+0x2fa>
 8005a22:	2301      	movs	r3, #1
 8005a24:	f887 3043 	strb.w	r3, [r7, #67]	; 0x43
 8005a28:	e06e      	b.n	8005b08 <VL53L0X_perform_ref_spad_management+0x3d8>
 8005a2a:	6bfb      	ldr	r3, [r7, #60]	; 0x3c
 8005a2c:	3301      	adds	r3, #1
 8005a2e:	63fb      	str	r3, [r7, #60]	; 0x3c
 8005a30:	697b      	ldr	r3, [r7, #20]
 8005a32:	653b      	str	r3, [r7, #80]	; 0x50
 8005a34:	68fb      	ldr	r3, [r7, #12]
 8005a36:	f503 7392 	add.w	r3, r3, #292	; 0x124
 8005a3a:	6d3a      	ldr	r2, [r7, #80]	; 0x50
 8005a3c:	6ab9      	ldr	r1, [r7, #40]	; 0x28
 8005a3e:	4618      	mov	r0, r3
 8005a40:	f7ff fd32 	bl	80054a8 <enable_spad_bit>
 8005a44:	4603      	mov	r3, r0
 8005a46:	f887 3057 	strb.w	r3, [r7, #87]	; 0x57
 8005a4a:	f997 3057 	ldrsb.w	r3, [r7, #87]	; 0x57
 8005a4e:	2b00      	cmp	r3, #0
 8005a50:	d10c      	bne.n	8005a6c <VL53L0X_perform_ref_spad_management+0x33c>
 8005a52:	6d3b      	ldr	r3, [r7, #80]	; 0x50
 8005a54:	3301      	adds	r3, #1
 8005a56:	653b      	str	r3, [r7, #80]	; 0x50
 8005a58:	68fb      	ldr	r3, [r7, #12]
 8005a5a:	f503 7392 	add.w	r3, r3, #292	; 0x124
 8005a5e:	4619      	mov	r1, r3
 8005a60:	68f8      	ldr	r0, [r7, #12]
 8005a62:	f7ff fd59 	bl	8005518 <set_ref_spad_map>
 8005a66:	4603      	mov	r3, r0
 8005a68:	f887 3057 	strb.w	r3, [r7, #87]	; 0x57
 8005a6c:	f997 3057 	ldrsb.w	r3, [r7, #87]	; 0x57
 8005a70:	2b00      	cmp	r3, #0
 8005a72:	d146      	bne.n	8005b02 <VL53L0X_perform_ref_spad_management+0x3d2>
 8005a74:	f107 0312 	add.w	r3, r7, #18
 8005a78:	4619      	mov	r1, r3
 8005a7a:	68f8      	ldr	r0, [r7, #12]
 8005a7c:	f7ff fdee 	bl	800565c <perform_ref_signal_measurement>
 8005a80:	4603      	mov	r3, r0
 8005a82:	f887 3057 	strb.w	r3, [r7, #87]	; 0x57
 8005a86:	f997 3057 	ldrsb.w	r3, [r7, #87]	; 0x57
 8005a8a:	2b00      	cmp	r3, #0
 8005a8c:	d13b      	bne.n	8005b06 <VL53L0X_perform_ref_spad_management+0x3d6>
 8005a8e:	8a7b      	ldrh	r3, [r7, #18]
 8005a90:	461a      	mov	r2, r3
 8005a92:	8dfb      	ldrh	r3, [r7, #46]	; 0x2e
 8005a94:	1ad3      	subs	r3, r2, r3
 8005a96:	2b00      	cmp	r3, #0
 8005a98:	bfb8      	it	lt
 8005a9a:	425b      	neglt	r3, r3
 8005a9c:	627b      	str	r3, [r7, #36]	; 0x24
 8005a9e:	8a7b      	ldrh	r3, [r7, #18]
 8005aa0:	8dfa      	ldrh	r2, [r7, #46]	; 0x2e
 8005aa2:	429a      	cmp	r2, r3
 8005aa4:	d21c      	bcs.n	8005ae0 <VL53L0X_perform_ref_spad_management+0x3b0>
 8005aa6:	6a7a      	ldr	r2, [r7, #36]	; 0x24
 8005aa8:	6c7b      	ldr	r3, [r7, #68]	; 0x44
 8005aaa:	429a      	cmp	r2, r3
 8005aac:	d914      	bls.n	8005ad8 <VL53L0X_perform_ref_spad_management+0x3a8>
 8005aae:	f107 031c 	add.w	r3, r7, #28
 8005ab2:	4619      	mov	r1, r3
 8005ab4:	68f8      	ldr	r0, [r7, #12]
 8005ab6:	f7ff fd2f 	bl	8005518 <set_ref_spad_map>
 8005aba:	4603      	mov	r3, r0
 8005abc:	f887 3057 	strb.w	r3, [r7, #87]	; 0x57
 8005ac0:	68fb      	ldr	r3, [r7, #12]
 8005ac2:	f503 7392 	add.w	r3, r3, #292	; 0x124
 8005ac6:	f107 011c 	add.w	r1, r7, #28
 8005aca:	6aba      	ldr	r2, [r7, #40]	; 0x28
 8005acc:	4618      	mov	r0, r3
 8005ace:	f002 fdc7 	bl	8008660 <memcpy>
 8005ad2:	6bfb      	ldr	r3, [r7, #60]	; 0x3c
 8005ad4:	3b01      	subs	r3, #1
 8005ad6:	63fb      	str	r3, [r7, #60]	; 0x3c
 8005ad8:	2301      	movs	r3, #1
 8005ada:	f887 3043 	strb.w	r3, [r7, #67]	; 0x43
 8005ade:	e00a      	b.n	8005af6 <VL53L0X_perform_ref_spad_management+0x3c6>
 8005ae0:	6a7b      	ldr	r3, [r7, #36]	; 0x24
 8005ae2:	647b      	str	r3, [r7, #68]	; 0x44
 8005ae4:	68fb      	ldr	r3, [r7, #12]
 8005ae6:	f503 7192 	add.w	r1, r3, #292	; 0x124
 8005aea:	f107 031c 	add.w	r3, r7, #28
 8005aee:	6aba      	ldr	r2, [r7, #40]	; 0x28
 8005af0:	4618      	mov	r0, r3
 8005af2:	f002 fdb5 	bl	8008660 <memcpy>
 8005af6:	f897 3043 	ldrb.w	r3, [r7, #67]	; 0x43
 8005afa:	2b00      	cmp	r3, #0
 8005afc:	f43f af74 	beq.w	80059e8 <VL53L0X_perform_ref_spad_management+0x2b8>
 8005b00:	e002      	b.n	8005b08 <VL53L0X_perform_ref_spad_management+0x3d8>
 8005b02:	bf00      	nop
 8005b04:	e000      	b.n	8005b08 <VL53L0X_perform_ref_spad_management+0x3d8>
 8005b06:	bf00      	nop
 8005b08:	f997 3057 	ldrsb.w	r3, [r7, #87]	; 0x57
 8005b0c:	2b00      	cmp	r3, #0
 8005b0e:	d115      	bne.n	8005b3c <VL53L0X_perform_ref_spad_management+0x40c>
 8005b10:	68bb      	ldr	r3, [r7, #8]
 8005b12:	6bfa      	ldr	r2, [r7, #60]	; 0x3c
 8005b14:	601a      	str	r2, [r3, #0]
 8005b16:	687b      	ldr	r3, [r7, #4]
 8005b18:	f897 203b 	ldrb.w	r2, [r7, #59]	; 0x3b
 8005b1c:	701a      	strb	r2, [r3, #0]
 8005b1e:	68fb      	ldr	r3, [r7, #12]
 8005b20:	2201      	movs	r2, #1
 8005b22:	f883 2115 	strb.w	r2, [r3, #277]	; 0x115
 8005b26:	68bb      	ldr	r3, [r7, #8]
 8005b28:	681b      	ldr	r3, [r3, #0]
 8005b2a:	b2da      	uxtb	r2, r3
 8005b2c:	68fb      	ldr	r3, [r7, #12]
 8005b2e:	f883 2113 	strb.w	r2, [r3, #275]	; 0x113
 8005b32:	687b      	ldr	r3, [r7, #4]
 8005b34:	781a      	ldrb	r2, [r3, #0]
 8005b36:	68fb      	ldr	r3, [r7, #12]
 8005b38:	f883 2114 	strb.w	r2, [r3, #276]	; 0x114
 8005b3c:	f997 3057 	ldrsb.w	r3, [r7, #87]	; 0x57
 8005b40:	4618      	mov	r0, r3
 8005b42:	375c      	adds	r7, #92	; 0x5c
 8005b44:	46bd      	mov	sp, r7
 8005b46:	bd90      	pop	{r4, r7, pc}

08005b48 <VL53L0X_set_reference_spads>:
 8005b48:	b590      	push	{r4, r7, lr}
 8005b4a:	b093      	sub	sp, #76	; 0x4c
 8005b4c:	af06      	add	r7, sp, #24
 8005b4e:	60f8      	str	r0, [r7, #12]
 8005b50:	60b9      	str	r1, [r7, #8]
 8005b52:	4613      	mov	r3, r2
 8005b54:	71fb      	strb	r3, [r7, #7]
 8005b56:	2300      	movs	r3, #0
 8005b58:	f887 302f 	strb.w	r3, [r7, #47]	; 0x2f
 8005b5c:	2300      	movs	r3, #0
 8005b5e:	62bb      	str	r3, [r7, #40]	; 0x28
 8005b60:	23b4      	movs	r3, #180	; 0xb4
 8005b62:	f887 3023 	strb.w	r3, [r7, #35]	; 0x23
 8005b66:	2306      	movs	r3, #6
 8005b68:	61fb      	str	r3, [r7, #28]
 8005b6a:	232c      	movs	r3, #44	; 0x2c
 8005b6c:	61bb      	str	r3, [r7, #24]
 8005b6e:	2201      	movs	r2, #1
 8005b70:	21ff      	movs	r1, #255	; 0xff
 8005b72:	68f8      	ldr	r0, [r7, #12]
 8005b74:	f002 fc1a 	bl	80083ac <VL53L0X_WrByte>
 8005b78:	4603      	mov	r3, r0
 8005b7a:	f887 302f 	strb.w	r3, [r7, #47]	; 0x2f
 8005b7e:	f997 302f 	ldrsb.w	r3, [r7, #47]	; 0x2f
 8005b82:	2b00      	cmp	r3, #0
 8005b84:	d107      	bne.n	8005b96 <VL53L0X_set_reference_spads+0x4e>
 8005b86:	2200      	movs	r2, #0
 8005b88:	214f      	movs	r1, #79	; 0x4f
 8005b8a:	68f8      	ldr	r0, [r7, #12]
 8005b8c:	f002 fc0e 	bl	80083ac <VL53L0X_WrByte>
 8005b90:	4603      	mov	r3, r0
 8005b92:	f887 302f 	strb.w	r3, [r7, #47]	; 0x2f
 8005b96:	f997 302f 	ldrsb.w	r3, [r7, #47]	; 0x2f
 8005b9a:	2b00      	cmp	r3, #0
 8005b9c:	d107      	bne.n	8005bae <VL53L0X_set_reference_spads+0x66>
 8005b9e:	222c      	movs	r2, #44	; 0x2c
 8005ba0:	214e      	movs	r1, #78	; 0x4e
 8005ba2:	68f8      	ldr	r0, [r7, #12]
 8005ba4:	f002 fc02 	bl	80083ac <VL53L0X_WrByte>
 8005ba8:	4603      	mov	r3, r0
 8005baa:	f887 302f 	strb.w	r3, [r7, #47]	; 0x2f
 8005bae:	f997 302f 	ldrsb.w	r3, [r7, #47]	; 0x2f
 8005bb2:	2b00      	cmp	r3, #0
 8005bb4:	d107      	bne.n	8005bc6 <VL53L0X_set_reference_spads+0x7e>
 8005bb6:	2200      	movs	r2, #0
 8005bb8:	21ff      	movs	r1, #255	; 0xff
 8005bba:	68f8      	ldr	r0, [r7, #12]
 8005bbc:	f002 fbf6 	bl	80083ac <VL53L0X_WrByte>
 8005bc0:	4603      	mov	r3, r0
 8005bc2:	f887 302f 	strb.w	r3, [r7, #47]	; 0x2f
 8005bc6:	f997 302f 	ldrsb.w	r3, [r7, #47]	; 0x2f
 8005bca:	2b00      	cmp	r3, #0
 8005bcc:	d109      	bne.n	8005be2 <VL53L0X_set_reference_spads+0x9a>
 8005bce:	f897 3023 	ldrb.w	r3, [r7, #35]	; 0x23
 8005bd2:	461a      	mov	r2, r3
 8005bd4:	21b6      	movs	r1, #182	; 0xb6
 8005bd6:	68f8      	ldr	r0, [r7, #12]
 8005bd8:	f002 fbe8 	bl	80083ac <VL53L0X_WrByte>
 8005bdc:	4603      	mov	r3, r0
 8005bde:	f887 302f 	strb.w	r3, [r7, #47]	; 0x2f
 8005be2:	2300      	movs	r3, #0
 8005be4:	627b      	str	r3, [r7, #36]	; 0x24
 8005be6:	e009      	b.n	8005bfc <VL53L0X_set_reference_spads+0xb4>
 8005be8:	68fa      	ldr	r2, [r7, #12]
 8005bea:	6a7b      	ldr	r3, [r7, #36]	; 0x24
 8005bec:	4413      	add	r3, r2
 8005bee:	f503 7392 	add.w	r3, r3, #292	; 0x124
 8005bf2:	2200      	movs	r2, #0
 8005bf4:	701a      	strb	r2, [r3, #0]
 8005bf6:	6a7b      	ldr	r3, [r7, #36]	; 0x24
 8005bf8:	3301      	adds	r3, #1
 8005bfa:	627b      	str	r3, [r7, #36]	; 0x24
 8005bfc:	6a7a      	ldr	r2, [r7, #36]	; 0x24
 8005bfe:	69fb      	ldr	r3, [r7, #28]
 8005c00:	429a      	cmp	r2, r3
 8005c02:	d3f1      	bcc.n	8005be8 <VL53L0X_set_reference_spads+0xa0>
 8005c04:	79fb      	ldrb	r3, [r7, #7]
 8005c06:	2b00      	cmp	r3, #0
 8005c08:	d011      	beq.n	8005c2e <VL53L0X_set_reference_spads+0xe6>
 8005c0a:	e002      	b.n	8005c12 <VL53L0X_set_reference_spads+0xca>
 8005c0c:	6abb      	ldr	r3, [r7, #40]	; 0x28
 8005c0e:	3301      	adds	r3, #1
 8005c10:	62bb      	str	r3, [r7, #40]	; 0x28
 8005c12:	f897 2023 	ldrb.w	r2, [r7, #35]	; 0x23
 8005c16:	6abb      	ldr	r3, [r7, #40]	; 0x28
 8005c18:	4413      	add	r3, r2
 8005c1a:	4618      	mov	r0, r3
 8005c1c:	f7ff fc2a 	bl	8005474 <is_aperture>
 8005c20:	4603      	mov	r3, r0
 8005c22:	2b00      	cmp	r3, #0
 8005c24:	d103      	bne.n	8005c2e <VL53L0X_set_reference_spads+0xe6>
 8005c26:	6aba      	ldr	r2, [r7, #40]	; 0x28
 8005c28:	69bb      	ldr	r3, [r7, #24]
 8005c2a:	429a      	cmp	r2, r3
 8005c2c:	d3ee      	bcc.n	8005c0c <VL53L0X_set_reference_spads+0xc4>
 8005c2e:	68fb      	ldr	r3, [r7, #12]
 8005c30:	f503 7095 	add.w	r0, r3, #298	; 0x12a
 8005c34:	68fb      	ldr	r3, [r7, #12]
 8005c36:	f503 7492 	add.w	r4, r3, #292	; 0x124
 8005c3a:	f897 3023 	ldrb.w	r3, [r7, #35]	; 0x23
 8005c3e:	79f9      	ldrb	r1, [r7, #7]
 8005c40:	f107 0214 	add.w	r2, r7, #20
 8005c44:	9204      	str	r2, [sp, #16]
 8005c46:	68ba      	ldr	r2, [r7, #8]
 8005c48:	9203      	str	r2, [sp, #12]
 8005c4a:	6aba      	ldr	r2, [r7, #40]	; 0x28
 8005c4c:	9202      	str	r2, [sp, #8]
 8005c4e:	9301      	str	r3, [sp, #4]
 8005c50:	69fb      	ldr	r3, [r7, #28]
 8005c52:	9300      	str	r3, [sp, #0]
 8005c54:	4623      	mov	r3, r4
 8005c56:	4602      	mov	r2, r0
 8005c58:	68f8      	ldr	r0, [r7, #12]
 8005c5a:	f7ff fc83 	bl	8005564 <enable_ref_spads>
 8005c5e:	4603      	mov	r3, r0
 8005c60:	f887 302f 	strb.w	r3, [r7, #47]	; 0x2f
 8005c64:	f997 302f 	ldrsb.w	r3, [r7, #47]	; 0x2f
 8005c68:	2b00      	cmp	r3, #0
 8005c6a:	d10c      	bne.n	8005c86 <VL53L0X_set_reference_spads+0x13e>
 8005c6c:	68fb      	ldr	r3, [r7, #12]
 8005c6e:	2201      	movs	r2, #1
 8005c70:	f883 2115 	strb.w	r2, [r3, #277]	; 0x115
 8005c74:	68bb      	ldr	r3, [r7, #8]
 8005c76:	b2da      	uxtb	r2, r3
 8005c78:	68fb      	ldr	r3, [r7, #12]
 8005c7a:	f883 2113 	strb.w	r2, [r3, #275]	; 0x113
 8005c7e:	68fb      	ldr	r3, [r7, #12]
 8005c80:	79fa      	ldrb	r2, [r7, #7]
 8005c82:	f883 2114 	strb.w	r2, [r3, #276]	; 0x114
 8005c86:	f997 302f 	ldrsb.w	r3, [r7, #47]	; 0x2f
 8005c8a:	4618      	mov	r0, r3
 8005c8c:	3734      	adds	r7, #52	; 0x34
 8005c8e:	46bd      	mov	sp, r7
 8005c90:	bd90      	pop	{r4, r7, pc}

08005c92 <VL53L0X_perform_single_ref_calibration>:
 8005c92:	b580      	push	{r7, lr}
 8005c94:	b084      	sub	sp, #16
 8005c96:	af00      	add	r7, sp, #0
 8005c98:	6078      	str	r0, [r7, #4]
 8005c9a:	460b      	mov	r3, r1
 8005c9c:	70fb      	strb	r3, [r7, #3]
 8005c9e:	2300      	movs	r3, #0
 8005ca0:	73fb      	strb	r3, [r7, #15]
 8005ca2:	f997 300f 	ldrsb.w	r3, [r7, #15]
 8005ca6:	2b00      	cmp	r3, #0
 8005ca8:	d10a      	bne.n	8005cc0 <VL53L0X_perform_single_ref_calibration+0x2e>
 8005caa:	78fb      	ldrb	r3, [r7, #3]
 8005cac:	f043 0301 	orr.w	r3, r3, #1
 8005cb0:	b2db      	uxtb	r3, r3
 8005cb2:	461a      	mov	r2, r3
 8005cb4:	2100      	movs	r1, #0
 8005cb6:	6878      	ldr	r0, [r7, #4]
 8005cb8:	f002 fb78 	bl	80083ac <VL53L0X_WrByte>
 8005cbc:	4603      	mov	r3, r0
 8005cbe:	73fb      	strb	r3, [r7, #15]
 8005cc0:	f997 300f 	ldrsb.w	r3, [r7, #15]
 8005cc4:	2b00      	cmp	r3, #0
 8005cc6:	d104      	bne.n	8005cd2 <VL53L0X_perform_single_ref_calibration+0x40>
 8005cc8:	6878      	ldr	r0, [r7, #4]
 8005cca:	f000 f9bf 	bl	800604c <VL53L0X_measurement_poll_for_completion>
 8005cce:	4603      	mov	r3, r0
 8005cd0:	73fb      	strb	r3, [r7, #15]
 8005cd2:	f997 300f 	ldrsb.w	r3, [r7, #15]
 8005cd6:	2b00      	cmp	r3, #0
 8005cd8:	d105      	bne.n	8005ce6 <VL53L0X_perform_single_ref_calibration+0x54>
 8005cda:	2100      	movs	r1, #0
 8005cdc:	6878      	ldr	r0, [r7, #4]
 8005cde:	f7ff fa6b 	bl	80051b8 <VL53L0X_ClearInterruptMask>
 8005ce2:	4603      	mov	r3, r0
 8005ce4:	73fb      	strb	r3, [r7, #15]
 8005ce6:	f997 300f 	ldrsb.w	r3, [r7, #15]
 8005cea:	2b00      	cmp	r3, #0
 8005cec:	d106      	bne.n	8005cfc <VL53L0X_perform_single_ref_calibration+0x6a>
 8005cee:	2200      	movs	r2, #0
 8005cf0:	2100      	movs	r1, #0
 8005cf2:	6878      	ldr	r0, [r7, #4]
 8005cf4:	f002 fb5a 	bl	80083ac <VL53L0X_WrByte>
 8005cf8:	4603      	mov	r3, r0
 8005cfa:	73fb      	strb	r3, [r7, #15]
 8005cfc:	f997 300f 	ldrsb.w	r3, [r7, #15]
 8005d00:	4618      	mov	r0, r3
 8005d02:	3710      	adds	r7, #16
 8005d04:	46bd      	mov	sp, r7
 8005d06:	bd80      	pop	{r7, pc}

08005d08 <VL53L0X_ref_calibration_io>:
 8005d08:	b580      	push	{r7, lr}
 8005d0a:	b084      	sub	sp, #16
 8005d0c:	af00      	add	r7, sp, #0
 8005d0e:	6078      	str	r0, [r7, #4]
 8005d10:	4608      	mov	r0, r1
 8005d12:	4611      	mov	r1, r2
 8005d14:	461a      	mov	r2, r3
 8005d16:	4603      	mov	r3, r0
 8005d18:	70fb      	strb	r3, [r7, #3]
 8005d1a:	460b      	mov	r3, r1
 8005d1c:	70bb      	strb	r3, [r7, #2]
 8005d1e:	4613      	mov	r3, r2
 8005d20:	707b      	strb	r3, [r7, #1]
 8005d22:	2300      	movs	r3, #0
 8005d24:	73fb      	strb	r3, [r7, #15]
 8005d26:	2300      	movs	r3, #0
 8005d28:	73bb      	strb	r3, [r7, #14]
 8005d2a:	2201      	movs	r2, #1
 8005d2c:	21ff      	movs	r1, #255	; 0xff
 8005d2e:	6878      	ldr	r0, [r7, #4]
 8005d30:	f002 fb3c 	bl	80083ac <VL53L0X_WrByte>
 8005d34:	4603      	mov	r3, r0
 8005d36:	461a      	mov	r2, r3
 8005d38:	7bfb      	ldrb	r3, [r7, #15]
 8005d3a:	4313      	orrs	r3, r2
 8005d3c:	73fb      	strb	r3, [r7, #15]
 8005d3e:	2200      	movs	r2, #0
 8005d40:	2100      	movs	r1, #0
 8005d42:	6878      	ldr	r0, [r7, #4]
 8005d44:	f002 fb32 	bl	80083ac <VL53L0X_WrByte>
 8005d48:	4603      	mov	r3, r0
 8005d4a:	461a      	mov	r2, r3
 8005d4c:	7bfb      	ldrb	r3, [r7, #15]
 8005d4e:	4313      	orrs	r3, r2
 8005d50:	73fb      	strb	r3, [r7, #15]
 8005d52:	2200      	movs	r2, #0
 8005d54:	21ff      	movs	r1, #255	; 0xff
 8005d56:	6878      	ldr	r0, [r7, #4]
 8005d58:	f002 fb28 	bl	80083ac <VL53L0X_WrByte>
 8005d5c:	4603      	mov	r3, r0
 8005d5e:	461a      	mov	r2, r3
 8005d60:	7bfb      	ldrb	r3, [r7, #15]
 8005d62:	4313      	orrs	r3, r2
 8005d64:	73fb      	strb	r3, [r7, #15]
 8005d66:	78fb      	ldrb	r3, [r7, #3]
 8005d68:	2b00      	cmp	r3, #0
 8005d6a:	d01e      	beq.n	8005daa <VL53L0X_ref_calibration_io+0xa2>
 8005d6c:	f897 3020 	ldrb.w	r3, [r7, #32]
 8005d70:	2b00      	cmp	r3, #0
 8005d72:	d009      	beq.n	8005d88 <VL53L0X_ref_calibration_io+0x80>
 8005d74:	69ba      	ldr	r2, [r7, #24]
 8005d76:	21cb      	movs	r1, #203	; 0xcb
 8005d78:	6878      	ldr	r0, [r7, #4]
 8005d7a:	f002 fb99 	bl	80084b0 <VL53L0X_RdByte>
 8005d7e:	4603      	mov	r3, r0
 8005d80:	461a      	mov	r2, r3
 8005d82:	7bfb      	ldrb	r3, [r7, #15]
 8005d84:	4313      	orrs	r3, r2
 8005d86:	73fb      	strb	r3, [r7, #15]
 8005d88:	f897 3024 	ldrb.w	r3, [r7, #36]	; 0x24
 8005d8c:	2b00      	cmp	r3, #0
 8005d8e:	d02a      	beq.n	8005de6 <VL53L0X_ref_calibration_io+0xde>
 8005d90:	f107 030e 	add.w	r3, r7, #14
 8005d94:	461a      	mov	r2, r3
 8005d96:	21ee      	movs	r1, #238	; 0xee
 8005d98:	6878      	ldr	r0, [r7, #4]
 8005d9a:	f002 fb89 	bl	80084b0 <VL53L0X_RdByte>
 8005d9e:	4603      	mov	r3, r0
 8005da0:	461a      	mov	r2, r3
 8005da2:	7bfb      	ldrb	r3, [r7, #15]
 8005da4:	4313      	orrs	r3, r2
 8005da6:	73fb      	strb	r3, [r7, #15]
 8005da8:	e01d      	b.n	8005de6 <VL53L0X_ref_calibration_io+0xde>
 8005daa:	f897 3020 	ldrb.w	r3, [r7, #32]
 8005dae:	2b00      	cmp	r3, #0
 8005db0:	d00a      	beq.n	8005dc8 <VL53L0X_ref_calibration_io+0xc0>
 8005db2:	78bb      	ldrb	r3, [r7, #2]
 8005db4:	461a      	mov	r2, r3
 8005db6:	21cb      	movs	r1, #203	; 0xcb
 8005db8:	6878      	ldr	r0, [r7, #4]
 8005dba:	f002 faf7 	bl	80083ac <VL53L0X_WrByte>
 8005dbe:	4603      	mov	r3, r0
 8005dc0:	461a      	mov	r2, r3
 8005dc2:	7bfb      	ldrb	r3, [r7, #15]
 8005dc4:	4313      	orrs	r3, r2
 8005dc6:	73fb      	strb	r3, [r7, #15]
 8005dc8:	f897 3024 	ldrb.w	r3, [r7, #36]	; 0x24
 8005dcc:	2b00      	cmp	r3, #0
 8005dce:	d00a      	beq.n	8005de6 <VL53L0X_ref_calibration_io+0xde>
 8005dd0:	787b      	ldrb	r3, [r7, #1]
 8005dd2:	2280      	movs	r2, #128	; 0x80
 8005dd4:	21ee      	movs	r1, #238	; 0xee
 8005dd6:	6878      	ldr	r0, [r7, #4]
 8005dd8:	f002 fb36 	bl	8008448 <VL53L0X_UpdateByte>
 8005ddc:	4603      	mov	r3, r0
 8005dde:	461a      	mov	r2, r3
 8005de0:	7bfb      	ldrb	r3, [r7, #15]
 8005de2:	4313      	orrs	r3, r2
 8005de4:	73fb      	strb	r3, [r7, #15]
 8005de6:	2201      	movs	r2, #1
 8005de8:	21ff      	movs	r1, #255	; 0xff
 8005dea:	6878      	ldr	r0, [r7, #4]
 8005dec:	f002 fade 	bl	80083ac <VL53L0X_WrByte>
 8005df0:	4603      	mov	r3, r0
 8005df2:	461a      	mov	r2, r3
 8005df4:	7bfb      	ldrb	r3, [r7, #15]
 8005df6:	4313      	orrs	r3, r2
 8005df8:	73fb      	strb	r3, [r7, #15]
 8005dfa:	2201      	movs	r2, #1
 8005dfc:	2100      	movs	r1, #0
 8005dfe:	6878      	ldr	r0, [r7, #4]
 8005e00:	f002 fad4 	bl	80083ac <VL53L0X_WrByte>
 8005e04:	4603      	mov	r3, r0
 8005e06:	461a      	mov	r2, r3
 8005e08:	7bfb      	ldrb	r3, [r7, #15]
 8005e0a:	4313      	orrs	r3, r2
 8005e0c:	73fb      	strb	r3, [r7, #15]
 8005e0e:	2200      	movs	r2, #0
 8005e10:	21ff      	movs	r1, #255	; 0xff
 8005e12:	6878      	ldr	r0, [r7, #4]
 8005e14:	f002 faca 	bl	80083ac <VL53L0X_WrByte>
 8005e18:	4603      	mov	r3, r0
 8005e1a:	461a      	mov	r2, r3
 8005e1c:	7bfb      	ldrb	r3, [r7, #15]
 8005e1e:	4313      	orrs	r3, r2
 8005e20:	73fb      	strb	r3, [r7, #15]
 8005e22:	7bbb      	ldrb	r3, [r7, #14]
 8005e24:	f023 0310 	bic.w	r3, r3, #16
 8005e28:	b2da      	uxtb	r2, r3
 8005e2a:	69fb      	ldr	r3, [r7, #28]
 8005e2c:	701a      	strb	r2, [r3, #0]
 8005e2e:	f997 300f 	ldrsb.w	r3, [r7, #15]
 8005e32:	4618      	mov	r0, r3
 8005e34:	3710      	adds	r7, #16
 8005e36:	46bd      	mov	sp, r7
 8005e38:	bd80      	pop	{r7, pc}

08005e3a <VL53L0X_perform_vhv_calibration>:
 8005e3a:	b580      	push	{r7, lr}
 8005e3c:	b08a      	sub	sp, #40	; 0x28
 8005e3e:	af04      	add	r7, sp, #16
 8005e40:	60f8      	str	r0, [r7, #12]
 8005e42:	60b9      	str	r1, [r7, #8]
 8005e44:	4611      	mov	r1, r2
 8005e46:	461a      	mov	r2, r3
 8005e48:	460b      	mov	r3, r1
 8005e4a:	71fb      	strb	r3, [r7, #7]
 8005e4c:	4613      	mov	r3, r2
 8005e4e:	71bb      	strb	r3, [r7, #6]
 8005e50:	2300      	movs	r3, #0
 8005e52:	75fb      	strb	r3, [r7, #23]
 8005e54:	2300      	movs	r3, #0
 8005e56:	75bb      	strb	r3, [r7, #22]
 8005e58:	2300      	movs	r3, #0
 8005e5a:	757b      	strb	r3, [r7, #21]
 8005e5c:	2300      	movs	r3, #0
 8005e5e:	753b      	strb	r3, [r7, #20]
 8005e60:	2300      	movs	r3, #0
 8005e62:	74fb      	strb	r3, [r7, #19]
 8005e64:	79bb      	ldrb	r3, [r7, #6]
 8005e66:	2b00      	cmp	r3, #0
 8005e68:	d003      	beq.n	8005e72 <VL53L0X_perform_vhv_calibration+0x38>
 8005e6a:	68fb      	ldr	r3, [r7, #12]
 8005e6c:	f893 3130 	ldrb.w	r3, [r3, #304]	; 0x130
 8005e70:	75bb      	strb	r3, [r7, #22]
 8005e72:	2201      	movs	r2, #1
 8005e74:	2101      	movs	r1, #1
 8005e76:	68f8      	ldr	r0, [r7, #12]
 8005e78:	f002 fa98 	bl	80083ac <VL53L0X_WrByte>
 8005e7c:	4603      	mov	r3, r0
 8005e7e:	75fb      	strb	r3, [r7, #23]
 8005e80:	f997 3017 	ldrsb.w	r3, [r7, #23]
 8005e84:	2b00      	cmp	r3, #0
 8005e86:	d105      	bne.n	8005e94 <VL53L0X_perform_vhv_calibration+0x5a>
 8005e88:	2140      	movs	r1, #64	; 0x40
 8005e8a:	68f8      	ldr	r0, [r7, #12]
 8005e8c:	f7ff ff01 	bl	8005c92 <VL53L0X_perform_single_ref_calibration>
 8005e90:	4603      	mov	r3, r0
 8005e92:	75fb      	strb	r3, [r7, #23]
 8005e94:	f997 3017 	ldrsb.w	r3, [r7, #23]
 8005e98:	2b00      	cmp	r3, #0
 8005e9a:	d115      	bne.n	8005ec8 <VL53L0X_perform_vhv_calibration+0x8e>
 8005e9c:	79fb      	ldrb	r3, [r7, #7]
 8005e9e:	2b01      	cmp	r3, #1
 8005ea0:	d112      	bne.n	8005ec8 <VL53L0X_perform_vhv_calibration+0x8e>
 8005ea2:	7d39      	ldrb	r1, [r7, #20]
 8005ea4:	7d7a      	ldrb	r2, [r7, #21]
 8005ea6:	2300      	movs	r3, #0
 8005ea8:	9303      	str	r3, [sp, #12]
 8005eaa:	2301      	movs	r3, #1
 8005eac:	9302      	str	r3, [sp, #8]
 8005eae:	f107 0313 	add.w	r3, r7, #19
 8005eb2:	9301      	str	r3, [sp, #4]
 8005eb4:	68bb      	ldr	r3, [r7, #8]
 8005eb6:	9300      	str	r3, [sp, #0]
 8005eb8:	460b      	mov	r3, r1
 8005eba:	2101      	movs	r1, #1
 8005ebc:	68f8      	ldr	r0, [r7, #12]
 8005ebe:	f7ff ff23 	bl	8005d08 <VL53L0X_ref_calibration_io>
 8005ec2:	4603      	mov	r3, r0
 8005ec4:	75fb      	strb	r3, [r7, #23]
 8005ec6:	e002      	b.n	8005ece <VL53L0X_perform_vhv_calibration+0x94>
 8005ec8:	68bb      	ldr	r3, [r7, #8]
 8005eca:	2200      	movs	r2, #0
 8005ecc:	701a      	strb	r2, [r3, #0]
 8005ece:	f997 3017 	ldrsb.w	r3, [r7, #23]
 8005ed2:	2b00      	cmp	r3, #0
 8005ed4:	d112      	bne.n	8005efc <VL53L0X_perform_vhv_calibration+0xc2>
 8005ed6:	79bb      	ldrb	r3, [r7, #6]
 8005ed8:	2b00      	cmp	r3, #0
 8005eda:	d00f      	beq.n	8005efc <VL53L0X_perform_vhv_calibration+0xc2>
 8005edc:	7dbb      	ldrb	r3, [r7, #22]
 8005ede:	461a      	mov	r2, r3
 8005ee0:	2101      	movs	r1, #1
 8005ee2:	68f8      	ldr	r0, [r7, #12]
 8005ee4:	f002 fa62 	bl	80083ac <VL53L0X_WrByte>
 8005ee8:	4603      	mov	r3, r0
 8005eea:	75fb      	strb	r3, [r7, #23]
 8005eec:	f997 3017 	ldrsb.w	r3, [r7, #23]
 8005ef0:	2b00      	cmp	r3, #0
 8005ef2:	d103      	bne.n	8005efc <VL53L0X_perform_vhv_calibration+0xc2>
 8005ef4:	68fb      	ldr	r3, [r7, #12]
 8005ef6:	7dba      	ldrb	r2, [r7, #22]
 8005ef8:	f883 2130 	strb.w	r2, [r3, #304]	; 0x130
 8005efc:	f997 3017 	ldrsb.w	r3, [r7, #23]
 8005f00:	4618      	mov	r0, r3
 8005f02:	3718      	adds	r7, #24
 8005f04:	46bd      	mov	sp, r7
 8005f06:	bd80      	pop	{r7, pc}

08005f08 <VL53L0X_perform_phase_calibration>:
 8005f08:	b580      	push	{r7, lr}
 8005f0a:	b08a      	sub	sp, #40	; 0x28
 8005f0c:	af04      	add	r7, sp, #16
 8005f0e:	60f8      	str	r0, [r7, #12]
 8005f10:	60b9      	str	r1, [r7, #8]
 8005f12:	4611      	mov	r1, r2
 8005f14:	461a      	mov	r2, r3
 8005f16:	460b      	mov	r3, r1
 8005f18:	71fb      	strb	r3, [r7, #7]
 8005f1a:	4613      	mov	r3, r2
 8005f1c:	71bb      	strb	r3, [r7, #6]
 8005f1e:	2300      	movs	r3, #0
 8005f20:	75fb      	strb	r3, [r7, #23]
 8005f22:	2300      	movs	r3, #0
 8005f24:	75bb      	strb	r3, [r7, #22]
 8005f26:	2300      	movs	r3, #0
 8005f28:	757b      	strb	r3, [r7, #21]
 8005f2a:	2300      	movs	r3, #0
 8005f2c:	753b      	strb	r3, [r7, #20]
 8005f2e:	79bb      	ldrb	r3, [r7, #6]
 8005f30:	2b00      	cmp	r3, #0
 8005f32:	d003      	beq.n	8005f3c <VL53L0X_perform_phase_calibration+0x34>
 8005f34:	68fb      	ldr	r3, [r7, #12]
 8005f36:	f893 3130 	ldrb.w	r3, [r3, #304]	; 0x130
 8005f3a:	75bb      	strb	r3, [r7, #22]
 8005f3c:	2202      	movs	r2, #2
 8005f3e:	2101      	movs	r1, #1
 8005f40:	68f8      	ldr	r0, [r7, #12]
 8005f42:	f002 fa33 	bl	80083ac <VL53L0X_WrByte>
 8005f46:	4603      	mov	r3, r0
 8005f48:	75fb      	strb	r3, [r7, #23]
 8005f4a:	f997 3017 	ldrsb.w	r3, [r7, #23]
 8005f4e:	2b00      	cmp	r3, #0
 8005f50:	d105      	bne.n	8005f5e <VL53L0X_perform_phase_calibration+0x56>
 8005f52:	2100      	movs	r1, #0
 8005f54:	68f8      	ldr	r0, [r7, #12]
 8005f56:	f7ff fe9c 	bl	8005c92 <VL53L0X_perform_single_ref_calibration>
 8005f5a:	4603      	mov	r3, r0
 8005f5c:	75fb      	strb	r3, [r7, #23]
 8005f5e:	f997 3017 	ldrsb.w	r3, [r7, #23]
 8005f62:	2b00      	cmp	r3, #0
 8005f64:	d115      	bne.n	8005f92 <VL53L0X_perform_phase_calibration+0x8a>
 8005f66:	79fb      	ldrb	r3, [r7, #7]
 8005f68:	2b01      	cmp	r3, #1
 8005f6a:	d112      	bne.n	8005f92 <VL53L0X_perform_phase_calibration+0x8a>
 8005f6c:	7d39      	ldrb	r1, [r7, #20]
 8005f6e:	7d7a      	ldrb	r2, [r7, #21]
 8005f70:	2301      	movs	r3, #1
 8005f72:	9303      	str	r3, [sp, #12]
 8005f74:	2300      	movs	r3, #0
 8005f76:	9302      	str	r3, [sp, #8]
 8005f78:	68bb      	ldr	r3, [r7, #8]
 8005f7a:	9301      	str	r3, [sp, #4]
 8005f7c:	f107 0313 	add.w	r3, r7, #19
 8005f80:	9300      	str	r3, [sp, #0]
 8005f82:	460b      	mov	r3, r1
 8005f84:	2101      	movs	r1, #1
 8005f86:	68f8      	ldr	r0, [r7, #12]
 8005f88:	f7ff febe 	bl	8005d08 <VL53L0X_ref_calibration_io>
 8005f8c:	4603      	mov	r3, r0
 8005f8e:	75fb      	strb	r3, [r7, #23]
 8005f90:	e002      	b.n	8005f98 <VL53L0X_perform_phase_calibration+0x90>
 8005f92:	68bb      	ldr	r3, [r7, #8]
 8005f94:	2200      	movs	r2, #0
 8005f96:	701a      	strb	r2, [r3, #0]
 8005f98:	f997 3017 	ldrsb.w	r3, [r7, #23]
 8005f9c:	2b00      	cmp	r3, #0
 8005f9e:	d112      	bne.n	8005fc6 <VL53L0X_perform_phase_calibration+0xbe>
 8005fa0:	79bb      	ldrb	r3, [r7, #6]
 8005fa2:	2b00      	cmp	r3, #0
 8005fa4:	d00f      	beq.n	8005fc6 <VL53L0X_perform_phase_calibration+0xbe>
 8005fa6:	7dbb      	ldrb	r3, [r7, #22]
 8005fa8:	461a      	mov	r2, r3
 8005faa:	2101      	movs	r1, #1
 8005fac:	68f8      	ldr	r0, [r7, #12]
 8005fae:	f002 f9fd 	bl	80083ac <VL53L0X_WrByte>
 8005fb2:	4603      	mov	r3, r0
 8005fb4:	75fb      	strb	r3, [r7, #23]
 8005fb6:	f997 3017 	ldrsb.w	r3, [r7, #23]
 8005fba:	2b00      	cmp	r3, #0
 8005fbc:	d103      	bne.n	8005fc6 <VL53L0X_perform_phase_calibration+0xbe>
 8005fbe:	68fb      	ldr	r3, [r7, #12]
 8005fc0:	7dba      	ldrb	r2, [r7, #22]
 8005fc2:	f883 2130 	strb.w	r2, [r3, #304]	; 0x130
 8005fc6:	f997 3017 	ldrsb.w	r3, [r7, #23]
 8005fca:	4618      	mov	r0, r3
 8005fcc:	3718      	adds	r7, #24
 8005fce:	46bd      	mov	sp, r7
 8005fd0:	bd80      	pop	{r7, pc}

08005fd2 <VL53L0X_perform_ref_calibration>:
 8005fd2:	b580      	push	{r7, lr}
 8005fd4:	b086      	sub	sp, #24
 8005fd6:	af00      	add	r7, sp, #0
 8005fd8:	60f8      	str	r0, [r7, #12]
 8005fda:	60b9      	str	r1, [r7, #8]
 8005fdc:	607a      	str	r2, [r7, #4]
 8005fde:	70fb      	strb	r3, [r7, #3]
 8005fe0:	2300      	movs	r3, #0
 8005fe2:	75fb      	strb	r3, [r7, #23]
 8005fe4:	2300      	movs	r3, #0
 8005fe6:	75bb      	strb	r3, [r7, #22]
 8005fe8:	68fb      	ldr	r3, [r7, #12]
 8005fea:	f893 3130 	ldrb.w	r3, [r3, #304]	; 0x130
 8005fee:	75bb      	strb	r3, [r7, #22]
 8005ff0:	78fa      	ldrb	r2, [r7, #3]
 8005ff2:	2300      	movs	r3, #0
 8005ff4:	68b9      	ldr	r1, [r7, #8]
 8005ff6:	68f8      	ldr	r0, [r7, #12]
 8005ff8:	f7ff ff1f 	bl	8005e3a <VL53L0X_perform_vhv_calibration>
 8005ffc:	4603      	mov	r3, r0
 8005ffe:	75fb      	strb	r3, [r7, #23]
 8006000:	f997 3017 	ldrsb.w	r3, [r7, #23]
 8006004:	2b00      	cmp	r3, #0
 8006006:	d107      	bne.n	8006018 <VL53L0X_perform_ref_calibration+0x46>
 8006008:	78fa      	ldrb	r2, [r7, #3]
 800600a:	2300      	movs	r3, #0
 800600c:	6879      	ldr	r1, [r7, #4]
 800600e:	68f8      	ldr	r0, [r7, #12]
 8006010:	f7ff ff7a 	bl	8005f08 <VL53L0X_perform_phase_calibration>
 8006014:	4603      	mov	r3, r0
 8006016:	75fb      	strb	r3, [r7, #23]
 8006018:	f997 3017 	ldrsb.w	r3, [r7, #23]
 800601c:	2b00      	cmp	r3, #0
 800601e:	d10f      	bne.n	8006040 <VL53L0X_perform_ref_calibration+0x6e>
 8006020:	7dbb      	ldrb	r3, [r7, #22]
 8006022:	461a      	mov	r2, r3
 8006024:	2101      	movs	r1, #1
 8006026:	68f8      	ldr	r0, [r7, #12]
 8006028:	f002 f9c0 	bl	80083ac <VL53L0X_WrByte>
 800602c:	4603      	mov	r3, r0
 800602e:	75fb      	strb	r3, [r7, #23]
 8006030:	f997 3017 	ldrsb.w	r3, [r7, #23]
 8006034:	2b00      	cmp	r3, #0
 8006036:	d103      	bne.n	8006040 <VL53L0X_perform_ref_calibration+0x6e>
 8006038:	68fb      	ldr	r3, [r7, #12]
 800603a:	7dba      	ldrb	r2, [r7, #22]
 800603c:	f883 2130 	strb.w	r2, [r3, #304]	; 0x130
 8006040:	f997 3017 	ldrsb.w	r3, [r7, #23]
 8006044:	4618      	mov	r0, r3
 8006046:	3718      	adds	r7, #24
 8006048:	46bd      	mov	sp, r7
 800604a:	bd80      	pop	{r7, pc}

0800604c <VL53L0X_measurement_poll_for_completion>:
 800604c:	b580      	push	{r7, lr}
 800604e:	b086      	sub	sp, #24
 8006050:	af00      	add	r7, sp, #0
 8006052:	6078      	str	r0, [r7, #4]
 8006054:	2300      	movs	r3, #0
 8006056:	75fb      	strb	r3, [r7, #23]
 8006058:	2300      	movs	r3, #0
 800605a:	73fb      	strb	r3, [r7, #15]
 800605c:	2300      	movs	r3, #0
 800605e:	613b      	str	r3, [r7, #16]
 8006060:	f107 030f 	add.w	r3, r7, #15
 8006064:	4619      	mov	r1, r3
 8006066:	6878      	ldr	r0, [r7, #4]
 8006068:	f7fe fdb5 	bl	8004bd6 <VL53L0X_GetMeasurementDataReady>
 800606c:	4603      	mov	r3, r0
 800606e:	75fb      	strb	r3, [r7, #23]
 8006070:	f997 3017 	ldrsb.w	r3, [r7, #23]
 8006074:	2b00      	cmp	r3, #0
 8006076:	d110      	bne.n	800609a <VL53L0X_measurement_poll_for_completion+0x4e>
 8006078:	7bfb      	ldrb	r3, [r7, #15]
 800607a:	2b01      	cmp	r3, #1
 800607c:	d00f      	beq.n	800609e <VL53L0X_measurement_poll_for_completion+0x52>
 800607e:	693b      	ldr	r3, [r7, #16]
 8006080:	3301      	adds	r3, #1
 8006082:	613b      	str	r3, [r7, #16]
 8006084:	693b      	ldr	r3, [r7, #16]
 8006086:	f5b3 6ffa 	cmp.w	r3, #2000	; 0x7d0
 800608a:	d302      	bcc.n	8006092 <VL53L0X_measurement_poll_for_completion+0x46>
 800608c:	23f9      	movs	r3, #249	; 0xf9
 800608e:	75fb      	strb	r3, [r7, #23]
 8006090:	e006      	b.n	80060a0 <VL53L0X_measurement_poll_for_completion+0x54>
 8006092:	6878      	ldr	r0, [r7, #4]
 8006094:	f002 faaa 	bl	80085ec <VL53L0X_PollingDelay>
 8006098:	e7e2      	b.n	8006060 <VL53L0X_measurement_poll_for_completion+0x14>
 800609a:	bf00      	nop
 800609c:	e000      	b.n	80060a0 <VL53L0X_measurement_poll_for_completion+0x54>
 800609e:	bf00      	nop
 80060a0:	f997 3017 	ldrsb.w	r3, [r7, #23]
 80060a4:	4618      	mov	r0, r3
 80060a6:	3718      	adds	r7, #24
 80060a8:	46bd      	mov	sp, r7
 80060aa:	bd80      	pop	{r7, pc}

080060ac <VL53L0X_decode_vcsel_period>:
 80060ac:	b480      	push	{r7}
 80060ae:	b085      	sub	sp, #20
 80060b0:	af00      	add	r7, sp, #0
 80060b2:	4603      	mov	r3, r0
 80060b4:	71fb      	strb	r3, [r7, #7]
 80060b6:	2300      	movs	r3, #0
 80060b8:	73fb      	strb	r3, [r7, #15]
 80060ba:	79fb      	ldrb	r3, [r7, #7]
 80060bc:	3301      	adds	r3, #1
 80060be:	b2db      	uxtb	r3, r3
 80060c0:	005b      	lsls	r3, r3, #1
 80060c2:	73fb      	strb	r3, [r7, #15]
 80060c4:	7bfb      	ldrb	r3, [r7, #15]
 80060c6:	4618      	mov	r0, r3
 80060c8:	3714      	adds	r7, #20
 80060ca:	46bd      	mov	sp, r7
 80060cc:	f85d 7b04 	ldr.w	r7, [sp], #4
 80060d0:	4770      	bx	lr

080060d2 <VL53L0X_isqrt>:
 80060d2:	b480      	push	{r7}
 80060d4:	b085      	sub	sp, #20
 80060d6:	af00      	add	r7, sp, #0
 80060d8:	6078      	str	r0, [r7, #4]
 80060da:	2300      	movs	r3, #0
 80060dc:	60fb      	str	r3, [r7, #12]
 80060de:	f04f 4380 	mov.w	r3, #1073741824	; 0x40000000
 80060e2:	60bb      	str	r3, [r7, #8]
 80060e4:	e002      	b.n	80060ec <VL53L0X_isqrt+0x1a>
 80060e6:	68bb      	ldr	r3, [r7, #8]
 80060e8:	089b      	lsrs	r3, r3, #2
 80060ea:	60bb      	str	r3, [r7, #8]
 80060ec:	68ba      	ldr	r2, [r7, #8]
 80060ee:	687b      	ldr	r3, [r7, #4]
 80060f0:	429a      	cmp	r2, r3
 80060f2:	d8f8      	bhi.n	80060e6 <VL53L0X_isqrt+0x14>
 80060f4:	e017      	b.n	8006126 <VL53L0X_isqrt+0x54>
 80060f6:	68fa      	ldr	r2, [r7, #12]
 80060f8:	68bb      	ldr	r3, [r7, #8]
 80060fa:	4413      	add	r3, r2
 80060fc:	687a      	ldr	r2, [r7, #4]
 80060fe:	429a      	cmp	r2, r3
 8006100:	d30b      	bcc.n	800611a <VL53L0X_isqrt+0x48>
 8006102:	68fa      	ldr	r2, [r7, #12]
 8006104:	68bb      	ldr	r3, [r7, #8]
 8006106:	4413      	add	r3, r2
 8006108:	687a      	ldr	r2, [r7, #4]
 800610a:	1ad3      	subs	r3, r2, r3
 800610c:	607b      	str	r3, [r7, #4]
 800610e:	68fb      	ldr	r3, [r7, #12]
 8006110:	085b      	lsrs	r3, r3, #1
 8006112:	68ba      	ldr	r2, [r7, #8]
 8006114:	4413      	add	r3, r2
 8006116:	60fb      	str	r3, [r7, #12]
 8006118:	e002      	b.n	8006120 <VL53L0X_isqrt+0x4e>
 800611a:	68fb      	ldr	r3, [r7, #12]
 800611c:	085b      	lsrs	r3, r3, #1
 800611e:	60fb      	str	r3, [r7, #12]
 8006120:	68bb      	ldr	r3, [r7, #8]
 8006122:	089b      	lsrs	r3, r3, #2
 8006124:	60bb      	str	r3, [r7, #8]
 8006126:	68bb      	ldr	r3, [r7, #8]
 8006128:	2b00      	cmp	r3, #0
 800612a:	d1e4      	bne.n	80060f6 <VL53L0X_isqrt+0x24>
 800612c:	68fb      	ldr	r3, [r7, #12]
 800612e:	4618      	mov	r0, r3
 8006130:	3714      	adds	r7, #20
 8006132:	46bd      	mov	sp, r7
 8006134:	f85d 7b04 	ldr.w	r7, [sp], #4
 8006138:	4770      	bx	lr

0800613a <VL53L0X_device_read_strobe>:
 800613a:	b580      	push	{r7, lr}
 800613c:	b086      	sub	sp, #24
 800613e:	af00      	add	r7, sp, #0
 8006140:	6078      	str	r0, [r7, #4]
 8006142:	2300      	movs	r3, #0
 8006144:	75fb      	strb	r3, [r7, #23]
 8006146:	2200      	movs	r2, #0
 8006148:	2183      	movs	r1, #131	; 0x83
 800614a:	6878      	ldr	r0, [r7, #4]
 800614c:	f002 f92e 	bl	80083ac <VL53L0X_WrByte>
 8006150:	4603      	mov	r3, r0
 8006152:	461a      	mov	r2, r3
 8006154:	7dfb      	ldrb	r3, [r7, #23]
 8006156:	4313      	orrs	r3, r2
 8006158:	75fb      	strb	r3, [r7, #23]
 800615a:	f997 3017 	ldrsb.w	r3, [r7, #23]
 800615e:	2b00      	cmp	r3, #0
 8006160:	d11e      	bne.n	80061a0 <VL53L0X_device_read_strobe+0x66>
 8006162:	2300      	movs	r3, #0
 8006164:	613b      	str	r3, [r7, #16]
 8006166:	f107 030f 	add.w	r3, r7, #15
 800616a:	461a      	mov	r2, r3
 800616c:	2183      	movs	r1, #131	; 0x83
 800616e:	6878      	ldr	r0, [r7, #4]
 8006170:	f002 f99e 	bl	80084b0 <VL53L0X_RdByte>
 8006174:	4603      	mov	r3, r0
 8006176:	75fb      	strb	r3, [r7, #23]
 8006178:	7bfb      	ldrb	r3, [r7, #15]
 800617a:	2b00      	cmp	r3, #0
 800617c:	d10a      	bne.n	8006194 <VL53L0X_device_read_strobe+0x5a>
 800617e:	f997 3017 	ldrsb.w	r3, [r7, #23]
 8006182:	2b00      	cmp	r3, #0
 8006184:	d106      	bne.n	8006194 <VL53L0X_device_read_strobe+0x5a>
 8006186:	693b      	ldr	r3, [r7, #16]
 8006188:	3301      	adds	r3, #1
 800618a:	613b      	str	r3, [r7, #16]
 800618c:	693b      	ldr	r3, [r7, #16]
 800618e:	f5b3 6ffa 	cmp.w	r3, #2000	; 0x7d0
 8006192:	d3e8      	bcc.n	8006166 <VL53L0X_device_read_strobe+0x2c>
 8006194:	693b      	ldr	r3, [r7, #16]
 8006196:	f5b3 6ffa 	cmp.w	r3, #2000	; 0x7d0
 800619a:	d301      	bcc.n	80061a0 <VL53L0X_device_read_strobe+0x66>
 800619c:	23f9      	movs	r3, #249	; 0xf9
 800619e:	75fb      	strb	r3, [r7, #23]
 80061a0:	2201      	movs	r2, #1
 80061a2:	2183      	movs	r1, #131	; 0x83
 80061a4:	6878      	ldr	r0, [r7, #4]
 80061a6:	f002 f901 	bl	80083ac <VL53L0X_WrByte>
 80061aa:	4603      	mov	r3, r0
 80061ac:	461a      	mov	r2, r3
 80061ae:	7dfb      	ldrb	r3, [r7, #23]
 80061b0:	4313      	orrs	r3, r2
 80061b2:	75fb      	strb	r3, [r7, #23]
 80061b4:	f997 3017 	ldrsb.w	r3, [r7, #23]
 80061b8:	4618      	mov	r0, r3
 80061ba:	3718      	adds	r7, #24
 80061bc:	46bd      	mov	sp, r7
 80061be:	bd80      	pop	{r7, pc}

080061c0 <VL53L0X_get_info_from_device>:
 80061c0:	b580      	push	{r7, lr}
 80061c2:	b098      	sub	sp, #96	; 0x60
 80061c4:	af00      	add	r7, sp, #0
 80061c6:	6078      	str	r0, [r7, #4]
 80061c8:	460b      	mov	r3, r1
 80061ca:	70fb      	strb	r3, [r7, #3]
 80061cc:	2300      	movs	r3, #0
 80061ce:	f887 305f 	strb.w	r3, [r7, #95]	; 0x5f
 80061d2:	2300      	movs	r3, #0
 80061d4:	f887 305e 	strb.w	r3, [r7, #94]	; 0x5e
 80061d8:	2300      	movs	r3, #0
 80061da:	f887 305d 	strb.w	r3, [r7, #93]	; 0x5d
 80061de:	2300      	movs	r3, #0
 80061e0:	62bb      	str	r3, [r7, #40]	; 0x28
 80061e2:	2300      	movs	r3, #0
 80061e4:	627b      	str	r3, [r7, #36]	; 0x24
 80061e6:	2300      	movs	r3, #0
 80061e8:	64bb      	str	r3, [r7, #72]	; 0x48
 80061ea:	2300      	movs	r3, #0
 80061ec:	f8a7 305a 	strh.w	r3, [r7, #90]	; 0x5a
 80061f0:	f44f 53c8 	mov.w	r3, #6400	; 0x1900
 80061f4:	647b      	str	r3, [r7, #68]	; 0x44
 80061f6:	2300      	movs	r3, #0
 80061f8:	657b      	str	r3, [r7, #84]	; 0x54
 80061fa:	2300      	movs	r3, #0
 80061fc:	653b      	str	r3, [r7, #80]	; 0x50
 80061fe:	2300      	movs	r3, #0
 8006200:	643b      	str	r3, [r7, #64]	; 0x40
 8006202:	687b      	ldr	r3, [r7, #4]
 8006204:	f893 30f0 	ldrb.w	r3, [r3, #240]	; 0xf0
 8006208:	f887 303f 	strb.w	r3, [r7, #63]	; 0x3f
 800620c:	f897 303f 	ldrb.w	r3, [r7, #63]	; 0x3f
 8006210:	2b07      	cmp	r3, #7
 8006212:	f000 8408 	beq.w	8006a26 <VL53L0X_get_info_from_device+0x866>
 8006216:	2201      	movs	r2, #1
 8006218:	2180      	movs	r1, #128	; 0x80
 800621a:	6878      	ldr	r0, [r7, #4]
 800621c:	f002 f8c6 	bl	80083ac <VL53L0X_WrByte>
 8006220:	4603      	mov	r3, r0
 8006222:	461a      	mov	r2, r3
 8006224:	f897 305f 	ldrb.w	r3, [r7, #95]	; 0x5f
 8006228:	4313      	orrs	r3, r2
 800622a:	f887 305f 	strb.w	r3, [r7, #95]	; 0x5f
 800622e:	2201      	movs	r2, #1
 8006230:	21ff      	movs	r1, #255	; 0xff
 8006232:	6878      	ldr	r0, [r7, #4]
 8006234:	f002 f8ba 	bl	80083ac <VL53L0X_WrByte>
 8006238:	4603      	mov	r3, r0
 800623a:	461a      	mov	r2, r3
 800623c:	f897 305f 	ldrb.w	r3, [r7, #95]	; 0x5f
 8006240:	4313      	orrs	r3, r2
 8006242:	f887 305f 	strb.w	r3, [r7, #95]	; 0x5f
 8006246:	2200      	movs	r2, #0
 8006248:	2100      	movs	r1, #0
 800624a:	6878      	ldr	r0, [r7, #4]
 800624c:	f002 f8ae 	bl	80083ac <VL53L0X_WrByte>
 8006250:	4603      	mov	r3, r0
 8006252:	461a      	mov	r2, r3
 8006254:	f897 305f 	ldrb.w	r3, [r7, #95]	; 0x5f
 8006258:	4313      	orrs	r3, r2
 800625a:	f887 305f 	strb.w	r3, [r7, #95]	; 0x5f
 800625e:	2206      	movs	r2, #6
 8006260:	21ff      	movs	r1, #255	; 0xff
 8006262:	6878      	ldr	r0, [r7, #4]
 8006264:	f002 f8a2 	bl	80083ac <VL53L0X_WrByte>
 8006268:	4603      	mov	r3, r0
 800626a:	461a      	mov	r2, r3
 800626c:	f897 305f 	ldrb.w	r3, [r7, #95]	; 0x5f
 8006270:	4313      	orrs	r3, r2
 8006272:	f887 305f 	strb.w	r3, [r7, #95]	; 0x5f
 8006276:	f107 0337 	add.w	r3, r7, #55	; 0x37
 800627a:	461a      	mov	r2, r3
 800627c:	2183      	movs	r1, #131	; 0x83
 800627e:	6878      	ldr	r0, [r7, #4]
 8006280:	f002 f916 	bl	80084b0 <VL53L0X_RdByte>
 8006284:	4603      	mov	r3, r0
 8006286:	461a      	mov	r2, r3
 8006288:	f897 305f 	ldrb.w	r3, [r7, #95]	; 0x5f
 800628c:	4313      	orrs	r3, r2
 800628e:	f887 305f 	strb.w	r3, [r7, #95]	; 0x5f
 8006292:	f897 3037 	ldrb.w	r3, [r7, #55]	; 0x37
 8006296:	f043 0304 	orr.w	r3, r3, #4
 800629a:	b2db      	uxtb	r3, r3
 800629c:	461a      	mov	r2, r3
 800629e:	2183      	movs	r1, #131	; 0x83
 80062a0:	6878      	ldr	r0, [r7, #4]
 80062a2:	f002 f883 	bl	80083ac <VL53L0X_WrByte>
 80062a6:	4603      	mov	r3, r0
 80062a8:	461a      	mov	r2, r3
 80062aa:	f897 305f 	ldrb.w	r3, [r7, #95]	; 0x5f
 80062ae:	4313      	orrs	r3, r2
 80062b0:	f887 305f 	strb.w	r3, [r7, #95]	; 0x5f
 80062b4:	2207      	movs	r2, #7
 80062b6:	21ff      	movs	r1, #255	; 0xff
 80062b8:	6878      	ldr	r0, [r7, #4]
 80062ba:	f002 f877 	bl	80083ac <VL53L0X_WrByte>
 80062be:	4603      	mov	r3, r0
 80062c0:	461a      	mov	r2, r3
 80062c2:	f897 305f 	ldrb.w	r3, [r7, #95]	; 0x5f
 80062c6:	4313      	orrs	r3, r2
 80062c8:	f887 305f 	strb.w	r3, [r7, #95]	; 0x5f
 80062cc:	2201      	movs	r2, #1
 80062ce:	2181      	movs	r1, #129	; 0x81
 80062d0:	6878      	ldr	r0, [r7, #4]
 80062d2:	f002 f86b 	bl	80083ac <VL53L0X_WrByte>
 80062d6:	4603      	mov	r3, r0
 80062d8:	461a      	mov	r2, r3
 80062da:	f897 305f 	ldrb.w	r3, [r7, #95]	; 0x5f
 80062de:	4313      	orrs	r3, r2
 80062e0:	f887 305f 	strb.w	r3, [r7, #95]	; 0x5f
 80062e4:	6878      	ldr	r0, [r7, #4]
 80062e6:	f002 f981 	bl	80085ec <VL53L0X_PollingDelay>
 80062ea:	4603      	mov	r3, r0
 80062ec:	461a      	mov	r2, r3
 80062ee:	f897 305f 	ldrb.w	r3, [r7, #95]	; 0x5f
 80062f2:	4313      	orrs	r3, r2
 80062f4:	f887 305f 	strb.w	r3, [r7, #95]	; 0x5f
 80062f8:	2201      	movs	r2, #1
 80062fa:	2180      	movs	r1, #128	; 0x80
 80062fc:	6878      	ldr	r0, [r7, #4]
 80062fe:	f002 f855 	bl	80083ac <VL53L0X_WrByte>
 8006302:	4603      	mov	r3, r0
 8006304:	461a      	mov	r2, r3
 8006306:	f897 305f 	ldrb.w	r3, [r7, #95]	; 0x5f
 800630a:	4313      	orrs	r3, r2
 800630c:	f887 305f 	strb.w	r3, [r7, #95]	; 0x5f
 8006310:	78fb      	ldrb	r3, [r7, #3]
 8006312:	f003 0301 	and.w	r3, r3, #1
 8006316:	2b00      	cmp	r3, #0
 8006318:	f000 8098 	beq.w	800644c <VL53L0X_get_info_from_device+0x28c>
 800631c:	f897 303f 	ldrb.w	r3, [r7, #63]	; 0x3f
 8006320:	f003 0301 	and.w	r3, r3, #1
 8006324:	2b00      	cmp	r3, #0
 8006326:	f040 8091 	bne.w	800644c <VL53L0X_get_info_from_device+0x28c>
 800632a:	226b      	movs	r2, #107	; 0x6b
 800632c:	2194      	movs	r1, #148	; 0x94
 800632e:	6878      	ldr	r0, [r7, #4]
 8006330:	f002 f83c 	bl	80083ac <VL53L0X_WrByte>
 8006334:	4603      	mov	r3, r0
 8006336:	461a      	mov	r2, r3
 8006338:	f897 305f 	ldrb.w	r3, [r7, #95]	; 0x5f
 800633c:	4313      	orrs	r3, r2
 800633e:	f887 305f 	strb.w	r3, [r7, #95]	; 0x5f
 8006342:	6878      	ldr	r0, [r7, #4]
 8006344:	f7ff fef9 	bl	800613a <VL53L0X_device_read_strobe>
 8006348:	4603      	mov	r3, r0
 800634a:	461a      	mov	r2, r3
 800634c:	f897 305f 	ldrb.w	r3, [r7, #95]	; 0x5f
 8006350:	4313      	orrs	r3, r2
 8006352:	f887 305f 	strb.w	r3, [r7, #95]	; 0x5f
 8006356:	f107 0330 	add.w	r3, r7, #48	; 0x30
 800635a:	461a      	mov	r2, r3
 800635c:	2190      	movs	r1, #144	; 0x90
 800635e:	6878      	ldr	r0, [r7, #4]
 8006360:	f002 f908 	bl	8008574 <VL53L0X_RdDWord>
 8006364:	4603      	mov	r3, r0
 8006366:	461a      	mov	r2, r3
 8006368:	f897 305f 	ldrb.w	r3, [r7, #95]	; 0x5f
 800636c:	4313      	orrs	r3, r2
 800636e:	f887 305f 	strb.w	r3, [r7, #95]	; 0x5f
 8006372:	6b3b      	ldr	r3, [r7, #48]	; 0x30
 8006374:	0a1b      	lsrs	r3, r3, #8
 8006376:	b2db      	uxtb	r3, r3
 8006378:	f003 037f 	and.w	r3, r3, #127	; 0x7f
 800637c:	f887 305e 	strb.w	r3, [r7, #94]	; 0x5e
 8006380:	6b3b      	ldr	r3, [r7, #48]	; 0x30
 8006382:	0bdb      	lsrs	r3, r3, #15
 8006384:	b2db      	uxtb	r3, r3
 8006386:	f003 0301 	and.w	r3, r3, #1
 800638a:	f887 305d 	strb.w	r3, [r7, #93]	; 0x5d
 800638e:	2224      	movs	r2, #36	; 0x24
 8006390:	2194      	movs	r1, #148	; 0x94
 8006392:	6878      	ldr	r0, [r7, #4]
 8006394:	f002 f80a 	bl	80083ac <VL53L0X_WrByte>
 8006398:	4603      	mov	r3, r0
 800639a:	461a      	mov	r2, r3
 800639c:	f897 305f 	ldrb.w	r3, [r7, #95]	; 0x5f
 80063a0:	4313      	orrs	r3, r2
 80063a2:	f887 305f 	strb.w	r3, [r7, #95]	; 0x5f
 80063a6:	6878      	ldr	r0, [r7, #4]
 80063a8:	f7ff fec7 	bl	800613a <VL53L0X_device_read_strobe>
 80063ac:	4603      	mov	r3, r0
 80063ae:	461a      	mov	r2, r3
 80063b0:	f897 305f 	ldrb.w	r3, [r7, #95]	; 0x5f
 80063b4:	4313      	orrs	r3, r2
 80063b6:	f887 305f 	strb.w	r3, [r7, #95]	; 0x5f
 80063ba:	f107 0330 	add.w	r3, r7, #48	; 0x30
 80063be:	461a      	mov	r2, r3
 80063c0:	2190      	movs	r1, #144	; 0x90
 80063c2:	6878      	ldr	r0, [r7, #4]
 80063c4:	f002 f8d6 	bl	8008574 <VL53L0X_RdDWord>
 80063c8:	4603      	mov	r3, r0
 80063ca:	461a      	mov	r2, r3
 80063cc:	f897 305f 	ldrb.w	r3, [r7, #95]	; 0x5f
 80063d0:	4313      	orrs	r3, r2
 80063d2:	f887 305f 	strb.w	r3, [r7, #95]	; 0x5f
 80063d6:	6b3b      	ldr	r3, [r7, #48]	; 0x30
 80063d8:	0e1b      	lsrs	r3, r3, #24
 80063da:	b2db      	uxtb	r3, r3
 80063dc:	723b      	strb	r3, [r7, #8]
 80063de:	6b3b      	ldr	r3, [r7, #48]	; 0x30
 80063e0:	0c1b      	lsrs	r3, r3, #16
 80063e2:	b2db      	uxtb	r3, r3
 80063e4:	727b      	strb	r3, [r7, #9]
 80063e6:	6b3b      	ldr	r3, [r7, #48]	; 0x30
 80063e8:	0a1b      	lsrs	r3, r3, #8
 80063ea:	b2db      	uxtb	r3, r3
 80063ec:	72bb      	strb	r3, [r7, #10]
 80063ee:	6b3b      	ldr	r3, [r7, #48]	; 0x30
 80063f0:	b2db      	uxtb	r3, r3
 80063f2:	72fb      	strb	r3, [r7, #11]
 80063f4:	2225      	movs	r2, #37	; 0x25
 80063f6:	2194      	movs	r1, #148	; 0x94
 80063f8:	6878      	ldr	r0, [r7, #4]
 80063fa:	f001 ffd7 	bl	80083ac <VL53L0X_WrByte>
 80063fe:	4603      	mov	r3, r0
 8006400:	461a      	mov	r2, r3
 8006402:	f897 305f 	ldrb.w	r3, [r7, #95]	; 0x5f
 8006406:	4313      	orrs	r3, r2
 8006408:	f887 305f 	strb.w	r3, [r7, #95]	; 0x5f
 800640c:	6878      	ldr	r0, [r7, #4]
 800640e:	f7ff fe94 	bl	800613a <VL53L0X_device_read_strobe>
 8006412:	4603      	mov	r3, r0
 8006414:	461a      	mov	r2, r3
 8006416:	f897 305f 	ldrb.w	r3, [r7, #95]	; 0x5f
 800641a:	4313      	orrs	r3, r2
 800641c:	f887 305f 	strb.w	r3, [r7, #95]	; 0x5f
 8006420:	f107 0330 	add.w	r3, r7, #48	; 0x30
 8006424:	461a      	mov	r2, r3
 8006426:	2190      	movs	r1, #144	; 0x90
 8006428:	6878      	ldr	r0, [r7, #4]
 800642a:	f002 f8a3 	bl	8008574 <VL53L0X_RdDWord>
 800642e:	4603      	mov	r3, r0
 8006430:	461a      	mov	r2, r3
 8006432:	f897 305f 	ldrb.w	r3, [r7, #95]	; 0x5f
 8006436:	4313      	orrs	r3, r2
 8006438:	f887 305f 	strb.w	r3, [r7, #95]	; 0x5f
 800643c:	6b3b      	ldr	r3, [r7, #48]	; 0x30
 800643e:	0e1b      	lsrs	r3, r3, #24
 8006440:	b2db      	uxtb	r3, r3
 8006442:	733b      	strb	r3, [r7, #12]
 8006444:	6b3b      	ldr	r3, [r7, #48]	; 0x30
 8006446:	0c1b      	lsrs	r3, r3, #16
 8006448:	b2db      	uxtb	r3, r3
 800644a:	737b      	strb	r3, [r7, #13]
 800644c:	78fb      	ldrb	r3, [r7, #3]
 800644e:	f003 0302 	and.w	r3, r3, #2
 8006452:	2b00      	cmp	r3, #0
 8006454:	f000 8189 	beq.w	800676a <VL53L0X_get_info_from_device+0x5aa>
 8006458:	f897 303f 	ldrb.w	r3, [r7, #63]	; 0x3f
 800645c:	f003 0302 	and.w	r3, r3, #2
 8006460:	2b00      	cmp	r3, #0
 8006462:	f040 8182 	bne.w	800676a <VL53L0X_get_info_from_device+0x5aa>
 8006466:	2202      	movs	r2, #2
 8006468:	2194      	movs	r1, #148	; 0x94
 800646a:	6878      	ldr	r0, [r7, #4]
 800646c:	f001 ff9e 	bl	80083ac <VL53L0X_WrByte>
 8006470:	4603      	mov	r3, r0
 8006472:	461a      	mov	r2, r3
 8006474:	f897 305f 	ldrb.w	r3, [r7, #95]	; 0x5f
 8006478:	4313      	orrs	r3, r2
 800647a:	f887 305f 	strb.w	r3, [r7, #95]	; 0x5f
 800647e:	6878      	ldr	r0, [r7, #4]
 8006480:	f7ff fe5b 	bl	800613a <VL53L0X_device_read_strobe>
 8006484:	4603      	mov	r3, r0
 8006486:	461a      	mov	r2, r3
 8006488:	f897 305f 	ldrb.w	r3, [r7, #95]	; 0x5f
 800648c:	4313      	orrs	r3, r2
 800648e:	f887 305f 	strb.w	r3, [r7, #95]	; 0x5f
 8006492:	f107 032f 	add.w	r3, r7, #47	; 0x2f
 8006496:	461a      	mov	r2, r3
 8006498:	2190      	movs	r1, #144	; 0x90
 800649a:	6878      	ldr	r0, [r7, #4]
 800649c:	f002 f808 	bl	80084b0 <VL53L0X_RdByte>
 80064a0:	4603      	mov	r3, r0
 80064a2:	461a      	mov	r2, r3
 80064a4:	f897 305f 	ldrb.w	r3, [r7, #95]	; 0x5f
 80064a8:	4313      	orrs	r3, r2
 80064aa:	f887 305f 	strb.w	r3, [r7, #95]	; 0x5f
 80064ae:	227b      	movs	r2, #123	; 0x7b
 80064b0:	2194      	movs	r1, #148	; 0x94
 80064b2:	6878      	ldr	r0, [r7, #4]
 80064b4:	f001 ff7a 	bl	80083ac <VL53L0X_WrByte>
 80064b8:	4603      	mov	r3, r0
 80064ba:	461a      	mov	r2, r3
 80064bc:	f897 305f 	ldrb.w	r3, [r7, #95]	; 0x5f
 80064c0:	4313      	orrs	r3, r2
 80064c2:	f887 305f 	strb.w	r3, [r7, #95]	; 0x5f
 80064c6:	6878      	ldr	r0, [r7, #4]
 80064c8:	f7ff fe37 	bl	800613a <VL53L0X_device_read_strobe>
 80064cc:	4603      	mov	r3, r0
 80064ce:	461a      	mov	r2, r3
 80064d0:	f897 305f 	ldrb.w	r3, [r7, #95]	; 0x5f
 80064d4:	4313      	orrs	r3, r2
 80064d6:	f887 305f 	strb.w	r3, [r7, #95]	; 0x5f
 80064da:	f107 032e 	add.w	r3, r7, #46	; 0x2e
 80064de:	461a      	mov	r2, r3
 80064e0:	2190      	movs	r1, #144	; 0x90
 80064e2:	6878      	ldr	r0, [r7, #4]
 80064e4:	f001 ffe4 	bl	80084b0 <VL53L0X_RdByte>
 80064e8:	4603      	mov	r3, r0
 80064ea:	461a      	mov	r2, r3
 80064ec:	f897 305f 	ldrb.w	r3, [r7, #95]	; 0x5f
 80064f0:	4313      	orrs	r3, r2
 80064f2:	f887 305f 	strb.w	r3, [r7, #95]	; 0x5f
 80064f6:	2277      	movs	r2, #119	; 0x77
 80064f8:	2194      	movs	r1, #148	; 0x94
 80064fa:	6878      	ldr	r0, [r7, #4]
 80064fc:	f001 ff56 	bl	80083ac <VL53L0X_WrByte>
 8006500:	4603      	mov	r3, r0
 8006502:	461a      	mov	r2, r3
 8006504:	f897 305f 	ldrb.w	r3, [r7, #95]	; 0x5f
 8006508:	4313      	orrs	r3, r2
 800650a:	f887 305f 	strb.w	r3, [r7, #95]	; 0x5f
 800650e:	6878      	ldr	r0, [r7, #4]
 8006510:	f7ff fe13 	bl	800613a <VL53L0X_device_read_strobe>
 8006514:	4603      	mov	r3, r0
 8006516:	461a      	mov	r2, r3
 8006518:	f897 305f 	ldrb.w	r3, [r7, #95]	; 0x5f
 800651c:	4313      	orrs	r3, r2
 800651e:	f887 305f 	strb.w	r3, [r7, #95]	; 0x5f
 8006522:	f107 0330 	add.w	r3, r7, #48	; 0x30
 8006526:	461a      	mov	r2, r3
 8006528:	2190      	movs	r1, #144	; 0x90
 800652a:	6878      	ldr	r0, [r7, #4]
 800652c:	f002 f822 	bl	8008574 <VL53L0X_RdDWord>
 8006530:	4603      	mov	r3, r0
 8006532:	461a      	mov	r2, r3
 8006534:	f897 305f 	ldrb.w	r3, [r7, #95]	; 0x5f
 8006538:	4313      	orrs	r3, r2
 800653a:	f887 305f 	strb.w	r3, [r7, #95]	; 0x5f
 800653e:	6b3b      	ldr	r3, [r7, #48]	; 0x30
 8006540:	0e5b      	lsrs	r3, r3, #25
 8006542:	b2db      	uxtb	r3, r3
 8006544:	f003 037f 	and.w	r3, r3, #127	; 0x7f
 8006548:	b2db      	uxtb	r3, r3
 800654a:	743b      	strb	r3, [r7, #16]
 800654c:	6b3b      	ldr	r3, [r7, #48]	; 0x30
 800654e:	0c9b      	lsrs	r3, r3, #18
 8006550:	b2db      	uxtb	r3, r3
 8006552:	f003 037f 	and.w	r3, r3, #127	; 0x7f
 8006556:	b2db      	uxtb	r3, r3
 8006558:	747b      	strb	r3, [r7, #17]
 800655a:	6b3b      	ldr	r3, [r7, #48]	; 0x30
 800655c:	0adb      	lsrs	r3, r3, #11
 800655e:	b2db      	uxtb	r3, r3
 8006560:	f003 037f 	and.w	r3, r3, #127	; 0x7f
 8006564:	b2db      	uxtb	r3, r3
 8006566:	74bb      	strb	r3, [r7, #18]
 8006568:	6b3b      	ldr	r3, [r7, #48]	; 0x30
 800656a:	091b      	lsrs	r3, r3, #4
 800656c:	b2db      	uxtb	r3, r3
 800656e:	f003 037f 	and.w	r3, r3, #127	; 0x7f
 8006572:	b2db      	uxtb	r3, r3
 8006574:	74fb      	strb	r3, [r7, #19]
 8006576:	6b3b      	ldr	r3, [r7, #48]	; 0x30
 8006578:	b2db      	uxtb	r3, r3
 800657a:	00db      	lsls	r3, r3, #3
 800657c:	b2db      	uxtb	r3, r3
 800657e:	f003 0378 	and.w	r3, r3, #120	; 0x78
 8006582:	b2db      	uxtb	r3, r3
 8006584:	f887 3037 	strb.w	r3, [r7, #55]	; 0x37
 8006588:	2278      	movs	r2, #120	; 0x78
 800658a:	2194      	movs	r1, #148	; 0x94
 800658c:	6878      	ldr	r0, [r7, #4]
 800658e:	f001 ff0d 	bl	80083ac <VL53L0X_WrByte>
 8006592:	4603      	mov	r3, r0
 8006594:	461a      	mov	r2, r3
 8006596:	f897 305f 	ldrb.w	r3, [r7, #95]	; 0x5f
 800659a:	4313      	orrs	r3, r2
 800659c:	f887 305f 	strb.w	r3, [r7, #95]	; 0x5f
 80065a0:	6878      	ldr	r0, [r7, #4]
 80065a2:	f7ff fdca 	bl	800613a <VL53L0X_device_read_strobe>
 80065a6:	4603      	mov	r3, r0
 80065a8:	461a      	mov	r2, r3
 80065aa:	f897 305f 	ldrb.w	r3, [r7, #95]	; 0x5f
 80065ae:	4313      	orrs	r3, r2
 80065b0:	f887 305f 	strb.w	r3, [r7, #95]	; 0x5f
 80065b4:	f107 0330 	add.w	r3, r7, #48	; 0x30
 80065b8:	461a      	mov	r2, r3
 80065ba:	2190      	movs	r1, #144	; 0x90
 80065bc:	6878      	ldr	r0, [r7, #4]
 80065be:	f001 ffd9 	bl	8008574 <VL53L0X_RdDWord>
 80065c2:	4603      	mov	r3, r0
 80065c4:	461a      	mov	r2, r3
 80065c6:	f897 305f 	ldrb.w	r3, [r7, #95]	; 0x5f
 80065ca:	4313      	orrs	r3, r2
 80065cc:	f887 305f 	strb.w	r3, [r7, #95]	; 0x5f
 80065d0:	6b3b      	ldr	r3, [r7, #48]	; 0x30
 80065d2:	0f5b      	lsrs	r3, r3, #29
 80065d4:	b2db      	uxtb	r3, r3
 80065d6:	f003 037f 	and.w	r3, r3, #127	; 0x7f
 80065da:	b2da      	uxtb	r2, r3
 80065dc:	f897 3037 	ldrb.w	r3, [r7, #55]	; 0x37
 80065e0:	4413      	add	r3, r2
 80065e2:	b2db      	uxtb	r3, r3
 80065e4:	753b      	strb	r3, [r7, #20]
 80065e6:	6b3b      	ldr	r3, [r7, #48]	; 0x30
 80065e8:	0d9b      	lsrs	r3, r3, #22
 80065ea:	b2db      	uxtb	r3, r3
 80065ec:	f003 037f 	and.w	r3, r3, #127	; 0x7f
 80065f0:	b2db      	uxtb	r3, r3
 80065f2:	757b      	strb	r3, [r7, #21]
 80065f4:	6b3b      	ldr	r3, [r7, #48]	; 0x30
 80065f6:	0bdb      	lsrs	r3, r3, #15
 80065f8:	b2db      	uxtb	r3, r3
 80065fa:	f003 037f 	and.w	r3, r3, #127	; 0x7f
 80065fe:	b2db      	uxtb	r3, r3
 8006600:	75bb      	strb	r3, [r7, #22]
 8006602:	6b3b      	ldr	r3, [r7, #48]	; 0x30
 8006604:	0a1b      	lsrs	r3, r3, #8
 8006606:	b2db      	uxtb	r3, r3
 8006608:	f003 037f 	and.w	r3, r3, #127	; 0x7f
 800660c:	b2db      	uxtb	r3, r3
 800660e:	75fb      	strb	r3, [r7, #23]
 8006610:	6b3b      	ldr	r3, [r7, #48]	; 0x30
 8006612:	085b      	lsrs	r3, r3, #1
 8006614:	b2db      	uxtb	r3, r3
 8006616:	f003 037f 	and.w	r3, r3, #127	; 0x7f
 800661a:	b2db      	uxtb	r3, r3
 800661c:	763b      	strb	r3, [r7, #24]
 800661e:	6b3b      	ldr	r3, [r7, #48]	; 0x30
 8006620:	b2db      	uxtb	r3, r3
 8006622:	019b      	lsls	r3, r3, #6
 8006624:	b2db      	uxtb	r3, r3
 8006626:	f003 0340 	and.w	r3, r3, #64	; 0x40
 800662a:	b2db      	uxtb	r3, r3
 800662c:	f887 3037 	strb.w	r3, [r7, #55]	; 0x37
 8006630:	2279      	movs	r2, #121	; 0x79
 8006632:	2194      	movs	r1, #148	; 0x94
 8006634:	6878      	ldr	r0, [r7, #4]
 8006636:	f001 feb9 	bl	80083ac <VL53L0X_WrByte>
 800663a:	4603      	mov	r3, r0
 800663c:	461a      	mov	r2, r3
 800663e:	f897 305f 	ldrb.w	r3, [r7, #95]	; 0x5f
 8006642:	4313      	orrs	r3, r2
 8006644:	f887 305f 	strb.w	r3, [r7, #95]	; 0x5f
 8006648:	6878      	ldr	r0, [r7, #4]
 800664a:	f7ff fd76 	bl	800613a <VL53L0X_device_read_strobe>
 800664e:	4603      	mov	r3, r0
 8006650:	461a      	mov	r2, r3
 8006652:	f897 305f 	ldrb.w	r3, [r7, #95]	; 0x5f
 8006656:	4313      	orrs	r3, r2
 8006658:	f887 305f 	strb.w	r3, [r7, #95]	; 0x5f
 800665c:	f107 0330 	add.w	r3, r7, #48	; 0x30
 8006660:	461a      	mov	r2, r3
 8006662:	2190      	movs	r1, #144	; 0x90
 8006664:	6878      	ldr	r0, [r7, #4]
 8006666:	f001 ff85 	bl	8008574 <VL53L0X_RdDWord>
 800666a:	4603      	mov	r3, r0
 800666c:	461a      	mov	r2, r3
 800666e:	f897 305f 	ldrb.w	r3, [r7, #95]	; 0x5f
 8006672:	4313      	orrs	r3, r2
 8006674:	f887 305f 	strb.w	r3, [r7, #95]	; 0x5f
 8006678:	6b3b      	ldr	r3, [r7, #48]	; 0x30
 800667a:	0e9b      	lsrs	r3, r3, #26
 800667c:	b2db      	uxtb	r3, r3
 800667e:	f003 037f 	and.w	r3, r3, #127	; 0x7f
 8006682:	b2da      	uxtb	r2, r3
 8006684:	f897 3037 	ldrb.w	r3, [r7, #55]	; 0x37
 8006688:	4413      	add	r3, r2
 800668a:	b2db      	uxtb	r3, r3
 800668c:	767b      	strb	r3, [r7, #25]
 800668e:	6b3b      	ldr	r3, [r7, #48]	; 0x30
 8006690:	0cdb      	lsrs	r3, r3, #19
 8006692:	b2db      	uxtb	r3, r3
 8006694:	f003 037f 	and.w	r3, r3, #127	; 0x7f
 8006698:	b2db      	uxtb	r3, r3
 800669a:	76bb      	strb	r3, [r7, #26]
 800669c:	6b3b      	ldr	r3, [r7, #48]	; 0x30
 800669e:	0b1b      	lsrs	r3, r3, #12
 80066a0:	b2db      	uxtb	r3, r3
 80066a2:	f003 037f 	and.w	r3, r3, #127	; 0x7f
 80066a6:	b2db      	uxtb	r3, r3
 80066a8:	76fb      	strb	r3, [r7, #27]
 80066aa:	6b3b      	ldr	r3, [r7, #48]	; 0x30
 80066ac:	095b      	lsrs	r3, r3, #5
 80066ae:	b2db      	uxtb	r3, r3
 80066b0:	f003 037f 	and.w	r3, r3, #127	; 0x7f
 80066b4:	b2db      	uxtb	r3, r3
 80066b6:	773b      	strb	r3, [r7, #28]
 80066b8:	6b3b      	ldr	r3, [r7, #48]	; 0x30
 80066ba:	b2db      	uxtb	r3, r3
 80066bc:	009b      	lsls	r3, r3, #2
 80066be:	b2db      	uxtb	r3, r3
 80066c0:	f003 037c 	and.w	r3, r3, #124	; 0x7c
 80066c4:	b2db      	uxtb	r3, r3
 80066c6:	f887 3037 	strb.w	r3, [r7, #55]	; 0x37
 80066ca:	227a      	movs	r2, #122	; 0x7a
 80066cc:	2194      	movs	r1, #148	; 0x94
 80066ce:	6878      	ldr	r0, [r7, #4]
 80066d0:	f001 fe6c 	bl	80083ac <VL53L0X_WrByte>
 80066d4:	4603      	mov	r3, r0
 80066d6:	461a      	mov	r2, r3
 80066d8:	f897 305f 	ldrb.w	r3, [r7, #95]	; 0x5f
 80066dc:	4313      	orrs	r3, r2
 80066de:	f887 305f 	strb.w	r3, [r7, #95]	; 0x5f
 80066e2:	6878      	ldr	r0, [r7, #4]
 80066e4:	f7ff fd29 	bl	800613a <VL53L0X_device_read_strobe>
 80066e8:	4603      	mov	r3, r0
 80066ea:	461a      	mov	r2, r3
 80066ec:	f897 305f 	ldrb.w	r3, [r7, #95]	; 0x5f
 80066f0:	4313      	orrs	r3, r2
 80066f2:	f887 305f 	strb.w	r3, [r7, #95]	; 0x5f
 80066f6:	f107 0330 	add.w	r3, r7, #48	; 0x30
 80066fa:	461a      	mov	r2, r3
 80066fc:	2190      	movs	r1, #144	; 0x90
 80066fe:	6878      	ldr	r0, [r7, #4]
 8006700:	f001 ff38 	bl	8008574 <VL53L0X_RdDWord>
 8006704:	4603      	mov	r3, r0
 8006706:	461a      	mov	r2, r3
 8006708:	f897 305f 	ldrb.w	r3, [r7, #95]	; 0x5f
 800670c:	4313      	orrs	r3, r2
 800670e:	f887 305f 	strb.w	r3, [r7, #95]	; 0x5f
 8006712:	6b3b      	ldr	r3, [r7, #48]	; 0x30
 8006714:	0f9b      	lsrs	r3, r3, #30
 8006716:	b2db      	uxtb	r3, r3
 8006718:	f003 037f 	and.w	r3, r3, #127	; 0x7f
 800671c:	b2da      	uxtb	r2, r3
 800671e:	f897 3037 	ldrb.w	r3, [r7, #55]	; 0x37
 8006722:	4413      	add	r3, r2
 8006724:	b2db      	uxtb	r3, r3
 8006726:	777b      	strb	r3, [r7, #29]
 8006728:	6b3b      	ldr	r3, [r7, #48]	; 0x30
 800672a:	0ddb      	lsrs	r3, r3, #23
 800672c:	b2db      	uxtb	r3, r3
 800672e:	f003 037f 	and.w	r3, r3, #127	; 0x7f
 8006732:	b2db      	uxtb	r3, r3
 8006734:	77bb      	strb	r3, [r7, #30]
 8006736:	6b3b      	ldr	r3, [r7, #48]	; 0x30
 8006738:	0c1b      	lsrs	r3, r3, #16
 800673a:	b2db      	uxtb	r3, r3
 800673c:	f003 037f 	and.w	r3, r3, #127	; 0x7f
 8006740:	b2db      	uxtb	r3, r3
 8006742:	77fb      	strb	r3, [r7, #31]
 8006744:	6b3b      	ldr	r3, [r7, #48]	; 0x30
 8006746:	0a5b      	lsrs	r3, r3, #9
 8006748:	b2db      	uxtb	r3, r3
 800674a:	f003 037f 	and.w	r3, r3, #127	; 0x7f
 800674e:	b2db      	uxtb	r3, r3
 8006750:	f887 3020 	strb.w	r3, [r7, #32]
 8006754:	6b3b      	ldr	r3, [r7, #48]	; 0x30
 8006756:	089b      	lsrs	r3, r3, #2
 8006758:	b2db      	uxtb	r3, r3
 800675a:	f003 037f 	and.w	r3, r3, #127	; 0x7f
 800675e:	b2db      	uxtb	r3, r3
 8006760:	f887 3021 	strb.w	r3, [r7, #33]	; 0x21
 8006764:	2300      	movs	r3, #0
 8006766:	f887 3022 	strb.w	r3, [r7, #34]	; 0x22
 800676a:	78fb      	ldrb	r3, [r7, #3]
 800676c:	f003 0304 	and.w	r3, r3, #4
 8006770:	2b00      	cmp	r3, #0
 8006772:	f000 80f1 	beq.w	8006958 <VL53L0X_get_info_from_device+0x798>
 8006776:	f897 303f 	ldrb.w	r3, [r7, #63]	; 0x3f
 800677a:	f003 0304 	and.w	r3, r3, #4
 800677e:	2b00      	cmp	r3, #0
 8006780:	f040 80ea 	bne.w	8006958 <VL53L0X_get_info_from_device+0x798>
 8006784:	227b      	movs	r2, #123	; 0x7b
 8006786:	2194      	movs	r1, #148	; 0x94
 8006788:	6878      	ldr	r0, [r7, #4]
 800678a:	f001 fe0f 	bl	80083ac <VL53L0X_WrByte>
 800678e:	4603      	mov	r3, r0
 8006790:	461a      	mov	r2, r3
 8006792:	f897 305f 	ldrb.w	r3, [r7, #95]	; 0x5f
 8006796:	4313      	orrs	r3, r2
 8006798:	f887 305f 	strb.w	r3, [r7, #95]	; 0x5f
 800679c:	6878      	ldr	r0, [r7, #4]
 800679e:	f7ff fccc 	bl	800613a <VL53L0X_device_read_strobe>
 80067a2:	4603      	mov	r3, r0
 80067a4:	461a      	mov	r2, r3
 80067a6:	f897 305f 	ldrb.w	r3, [r7, #95]	; 0x5f
 80067aa:	4313      	orrs	r3, r2
 80067ac:	f887 305f 	strb.w	r3, [r7, #95]	; 0x5f
 80067b0:	f107 0328 	add.w	r3, r7, #40	; 0x28
 80067b4:	461a      	mov	r2, r3
 80067b6:	2190      	movs	r1, #144	; 0x90
 80067b8:	6878      	ldr	r0, [r7, #4]
 80067ba:	f001 fedb 	bl	8008574 <VL53L0X_RdDWord>
 80067be:	4603      	mov	r3, r0
 80067c0:	461a      	mov	r2, r3
 80067c2:	f897 305f 	ldrb.w	r3, [r7, #95]	; 0x5f
 80067c6:	4313      	orrs	r3, r2
 80067c8:	f887 305f 	strb.w	r3, [r7, #95]	; 0x5f
 80067cc:	227c      	movs	r2, #124	; 0x7c
 80067ce:	2194      	movs	r1, #148	; 0x94
 80067d0:	6878      	ldr	r0, [r7, #4]
 80067d2:	f001 fdeb 	bl	80083ac <VL53L0X_WrByte>
 80067d6:	4603      	mov	r3, r0
 80067d8:	461a      	mov	r2, r3
 80067da:	f897 305f 	ldrb.w	r3, [r7, #95]	; 0x5f
 80067de:	4313      	orrs	r3, r2
 80067e0:	f887 305f 	strb.w	r3, [r7, #95]	; 0x5f
 80067e4:	6878      	ldr	r0, [r7, #4]
 80067e6:	f7ff fca8 	bl	800613a <VL53L0X_device_read_strobe>
 80067ea:	4603      	mov	r3, r0
 80067ec:	461a      	mov	r2, r3
 80067ee:	f897 305f 	ldrb.w	r3, [r7, #95]	; 0x5f
 80067f2:	4313      	orrs	r3, r2
 80067f4:	f887 305f 	strb.w	r3, [r7, #95]	; 0x5f
 80067f8:	f107 0324 	add.w	r3, r7, #36	; 0x24
 80067fc:	461a      	mov	r2, r3
 80067fe:	2190      	movs	r1, #144	; 0x90
 8006800:	6878      	ldr	r0, [r7, #4]
 8006802:	f001 feb7 	bl	8008574 <VL53L0X_RdDWord>
 8006806:	4603      	mov	r3, r0
 8006808:	461a      	mov	r2, r3
 800680a:	f897 305f 	ldrb.w	r3, [r7, #95]	; 0x5f
 800680e:	4313      	orrs	r3, r2
 8006810:	f887 305f 	strb.w	r3, [r7, #95]	; 0x5f
 8006814:	2273      	movs	r2, #115	; 0x73
 8006816:	2194      	movs	r1, #148	; 0x94
 8006818:	6878      	ldr	r0, [r7, #4]
 800681a:	f001 fdc7 	bl	80083ac <VL53L0X_WrByte>
 800681e:	4603      	mov	r3, r0
 8006820:	461a      	mov	r2, r3
 8006822:	f897 305f 	ldrb.w	r3, [r7, #95]	; 0x5f
 8006826:	4313      	orrs	r3, r2
 8006828:	f887 305f 	strb.w	r3, [r7, #95]	; 0x5f
 800682c:	6878      	ldr	r0, [r7, #4]
 800682e:	f7ff fc84 	bl	800613a <VL53L0X_device_read_strobe>
 8006832:	4603      	mov	r3, r0
 8006834:	461a      	mov	r2, r3
 8006836:	f897 305f 	ldrb.w	r3, [r7, #95]	; 0x5f
 800683a:	4313      	orrs	r3, r2
 800683c:	f887 305f 	strb.w	r3, [r7, #95]	; 0x5f
 8006840:	f107 0330 	add.w	r3, r7, #48	; 0x30
 8006844:	461a      	mov	r2, r3
 8006846:	2190      	movs	r1, #144	; 0x90
 8006848:	6878      	ldr	r0, [r7, #4]
 800684a:	f001 fe93 	bl	8008574 <VL53L0X_RdDWord>
 800684e:	4603      	mov	r3, r0
 8006850:	461a      	mov	r2, r3
 8006852:	f897 305f 	ldrb.w	r3, [r7, #95]	; 0x5f
 8006856:	4313      	orrs	r3, r2
 8006858:	f887 305f 	strb.w	r3, [r7, #95]	; 0x5f
 800685c:	6b3b      	ldr	r3, [r7, #48]	; 0x30
 800685e:	021b      	lsls	r3, r3, #8
 8006860:	b29b      	uxth	r3, r3
 8006862:	653b      	str	r3, [r7, #80]	; 0x50
 8006864:	2274      	movs	r2, #116	; 0x74
 8006866:	2194      	movs	r1, #148	; 0x94
 8006868:	6878      	ldr	r0, [r7, #4]
 800686a:	f001 fd9f 	bl	80083ac <VL53L0X_WrByte>
 800686e:	4603      	mov	r3, r0
 8006870:	461a      	mov	r2, r3
 8006872:	f897 305f 	ldrb.w	r3, [r7, #95]	; 0x5f
 8006876:	4313      	orrs	r3, r2
 8006878:	f887 305f 	strb.w	r3, [r7, #95]	; 0x5f
 800687c:	6878      	ldr	r0, [r7, #4]
 800687e:	f7ff fc5c 	bl	800613a <VL53L0X_device_read_strobe>
 8006882:	4603      	mov	r3, r0
 8006884:	461a      	mov	r2, r3
 8006886:	f897 305f 	ldrb.w	r3, [r7, #95]	; 0x5f
 800688a:	4313      	orrs	r3, r2
 800688c:	f887 305f 	strb.w	r3, [r7, #95]	; 0x5f
 8006890:	f107 0330 	add.w	r3, r7, #48	; 0x30
 8006894:	461a      	mov	r2, r3
 8006896:	2190      	movs	r1, #144	; 0x90
 8006898:	6878      	ldr	r0, [r7, #4]
 800689a:	f001 fe6b 	bl	8008574 <VL53L0X_RdDWord>
 800689e:	4603      	mov	r3, r0
 80068a0:	461a      	mov	r2, r3
 80068a2:	f897 305f 	ldrb.w	r3, [r7, #95]	; 0x5f
 80068a6:	4313      	orrs	r3, r2
 80068a8:	f887 305f 	strb.w	r3, [r7, #95]	; 0x5f
 80068ac:	6b3b      	ldr	r3, [r7, #48]	; 0x30
 80068ae:	0e1b      	lsrs	r3, r3, #24
 80068b0:	6d3a      	ldr	r2, [r7, #80]	; 0x50
 80068b2:	4313      	orrs	r3, r2
 80068b4:	653b      	str	r3, [r7, #80]	; 0x50
 80068b6:	2275      	movs	r2, #117	; 0x75
 80068b8:	2194      	movs	r1, #148	; 0x94
 80068ba:	6878      	ldr	r0, [r7, #4]
 80068bc:	f001 fd76 	bl	80083ac <VL53L0X_WrByte>
 80068c0:	4603      	mov	r3, r0
 80068c2:	461a      	mov	r2, r3
 80068c4:	f897 305f 	ldrb.w	r3, [r7, #95]	; 0x5f
 80068c8:	4313      	orrs	r3, r2
 80068ca:	f887 305f 	strb.w	r3, [r7, #95]	; 0x5f
 80068ce:	6878      	ldr	r0, [r7, #4]
 80068d0:	f7ff fc33 	bl	800613a <VL53L0X_device_read_strobe>
 80068d4:	4603      	mov	r3, r0
 80068d6:	461a      	mov	r2, r3
 80068d8:	f897 305f 	ldrb.w	r3, [r7, #95]	; 0x5f
 80068dc:	4313      	orrs	r3, r2
 80068de:	f887 305f 	strb.w	r3, [r7, #95]	; 0x5f
 80068e2:	f107 0330 	add.w	r3, r7, #48	; 0x30
 80068e6:	461a      	mov	r2, r3
 80068e8:	2190      	movs	r1, #144	; 0x90
 80068ea:	6878      	ldr	r0, [r7, #4]
 80068ec:	f001 fe42 	bl	8008574 <VL53L0X_RdDWord>
 80068f0:	4603      	mov	r3, r0
 80068f2:	461a      	mov	r2, r3
 80068f4:	f897 305f 	ldrb.w	r3, [r7, #95]	; 0x5f
 80068f8:	4313      	orrs	r3, r2
 80068fa:	f887 305f 	strb.w	r3, [r7, #95]	; 0x5f
 80068fe:	6b3b      	ldr	r3, [r7, #48]	; 0x30
 8006900:	021b      	lsls	r3, r3, #8
 8006902:	b29b      	uxth	r3, r3
 8006904:	657b      	str	r3, [r7, #84]	; 0x54
 8006906:	2276      	movs	r2, #118	; 0x76
 8006908:	2194      	movs	r1, #148	; 0x94
 800690a:	6878      	ldr	r0, [r7, #4]
 800690c:	f001 fd4e 	bl	80083ac <VL53L0X_WrByte>
 8006910:	4603      	mov	r3, r0
 8006912:	461a      	mov	r2, r3
 8006914:	f897 305f 	ldrb.w	r3, [r7, #95]	; 0x5f
 8006918:	4313      	orrs	r3, r2
 800691a:	f887 305f 	strb.w	r3, [r7, #95]	; 0x5f
 800691e:	6878      	ldr	r0, [r7, #4]
 8006920:	f7ff fc0b 	bl	800613a <VL53L0X_device_read_strobe>
 8006924:	4603      	mov	r3, r0
 8006926:	461a      	mov	r2, r3
 8006928:	f897 305f 	ldrb.w	r3, [r7, #95]	; 0x5f
 800692c:	4313      	orrs	r3, r2
 800692e:	f887 305f 	strb.w	r3, [r7, #95]	; 0x5f
 8006932:	f107 0330 	add.w	r3, r7, #48	; 0x30
 8006936:	461a      	mov	r2, r3
 8006938:	2190      	movs	r1, #144	; 0x90
 800693a:	6878      	ldr	r0, [r7, #4]
 800693c:	f001 fe1a 	bl	8008574 <VL53L0X_RdDWord>
 8006940:	4603      	mov	r3, r0
 8006942:	461a      	mov	r2, r3
 8006944:	f897 305f 	ldrb.w	r3, [r7, #95]	; 0x5f
 8006948:	4313      	orrs	r3, r2
 800694a:	f887 305f 	strb.w	r3, [r7, #95]	; 0x5f
 800694e:	6b3b      	ldr	r3, [r7, #48]	; 0x30
 8006950:	0e1b      	lsrs	r3, r3, #24
 8006952:	6d7a      	ldr	r2, [r7, #84]	; 0x54
 8006954:	4313      	orrs	r3, r2
 8006956:	657b      	str	r3, [r7, #84]	; 0x54
 8006958:	2200      	movs	r2, #0
 800695a:	2181      	movs	r1, #129	; 0x81
 800695c:	6878      	ldr	r0, [r7, #4]
 800695e:	f001 fd25 	bl	80083ac <VL53L0X_WrByte>
 8006962:	4603      	mov	r3, r0
 8006964:	461a      	mov	r2, r3
 8006966:	f897 305f 	ldrb.w	r3, [r7, #95]	; 0x5f
 800696a:	4313      	orrs	r3, r2
 800696c:	f887 305f 	strb.w	r3, [r7, #95]	; 0x5f
 8006970:	2206      	movs	r2, #6
 8006972:	21ff      	movs	r1, #255	; 0xff
 8006974:	6878      	ldr	r0, [r7, #4]
 8006976:	f001 fd19 	bl	80083ac <VL53L0X_WrByte>
 800697a:	4603      	mov	r3, r0
 800697c:	461a      	mov	r2, r3
 800697e:	f897 305f 	ldrb.w	r3, [r7, #95]	; 0x5f
 8006982:	4313      	orrs	r3, r2
 8006984:	f887 305f 	strb.w	r3, [r7, #95]	; 0x5f
 8006988:	f107 0337 	add.w	r3, r7, #55	; 0x37
 800698c:	461a      	mov	r2, r3
 800698e:	2183      	movs	r1, #131	; 0x83
 8006990:	6878      	ldr	r0, [r7, #4]
 8006992:	f001 fd8d 	bl	80084b0 <VL53L0X_RdByte>
 8006996:	4603      	mov	r3, r0
 8006998:	461a      	mov	r2, r3
 800699a:	f897 305f 	ldrb.w	r3, [r7, #95]	; 0x5f
 800699e:	4313      	orrs	r3, r2
 80069a0:	f887 305f 	strb.w	r3, [r7, #95]	; 0x5f
 80069a4:	f897 3037 	ldrb.w	r3, [r7, #55]	; 0x37
 80069a8:	f023 0304 	bic.w	r3, r3, #4
 80069ac:	b2db      	uxtb	r3, r3
 80069ae:	461a      	mov	r2, r3
 80069b0:	2183      	movs	r1, #131	; 0x83
 80069b2:	6878      	ldr	r0, [r7, #4]
 80069b4:	f001 fcfa 	bl	80083ac <VL53L0X_WrByte>
 80069b8:	4603      	mov	r3, r0
 80069ba:	461a      	mov	r2, r3
 80069bc:	f897 305f 	ldrb.w	r3, [r7, #95]	; 0x5f
 80069c0:	4313      	orrs	r3, r2
 80069c2:	f887 305f 	strb.w	r3, [r7, #95]	; 0x5f
 80069c6:	2201      	movs	r2, #1
 80069c8:	21ff      	movs	r1, #255	; 0xff
 80069ca:	6878      	ldr	r0, [r7, #4]
 80069cc:	f001 fcee 	bl	80083ac <VL53L0X_WrByte>
 80069d0:	4603      	mov	r3, r0
 80069d2:	461a      	mov	r2, r3
 80069d4:	f897 305f 	ldrb.w	r3, [r7, #95]	; 0x5f
 80069d8:	4313      	orrs	r3, r2
 80069da:	f887 305f 	strb.w	r3, [r7, #95]	; 0x5f
 80069de:	2201      	movs	r2, #1
 80069e0:	2100      	movs	r1, #0
 80069e2:	6878      	ldr	r0, [r7, #4]
 80069e4:	f001 fce2 	bl	80083ac <VL53L0X_WrByte>
 80069e8:	4603      	mov	r3, r0
 80069ea:	461a      	mov	r2, r3
 80069ec:	f897 305f 	ldrb.w	r3, [r7, #95]	; 0x5f
 80069f0:	4313      	orrs	r3, r2
 80069f2:	f887 305f 	strb.w	r3, [r7, #95]	; 0x5f
 80069f6:	2200      	movs	r2, #0
 80069f8:	21ff      	movs	r1, #255	; 0xff
 80069fa:	6878      	ldr	r0, [r7, #4]
 80069fc:	f001 fcd6 	bl	80083ac <VL53L0X_WrByte>
 8006a00:	4603      	mov	r3, r0
 8006a02:	461a      	mov	r2, r3
 8006a04:	f897 305f 	ldrb.w	r3, [r7, #95]	; 0x5f
 8006a08:	4313      	orrs	r3, r2
 8006a0a:	f887 305f 	strb.w	r3, [r7, #95]	; 0x5f
 8006a0e:	2200      	movs	r2, #0
 8006a10:	2180      	movs	r1, #128	; 0x80
 8006a12:	6878      	ldr	r0, [r7, #4]
 8006a14:	f001 fcca 	bl	80083ac <VL53L0X_WrByte>
 8006a18:	4603      	mov	r3, r0
 8006a1a:	461a      	mov	r2, r3
 8006a1c:	f897 305f 	ldrb.w	r3, [r7, #95]	; 0x5f
 8006a20:	4313      	orrs	r3, r2
 8006a22:	f887 305f 	strb.w	r3, [r7, #95]	; 0x5f
 8006a26:	f997 305f 	ldrsb.w	r3, [r7, #95]	; 0x5f
 8006a2a:	2b00      	cmp	r3, #0
 8006a2c:	f040 808f 	bne.w	8006b4e <VL53L0X_get_info_from_device+0x98e>
 8006a30:	f897 303f 	ldrb.w	r3, [r7, #63]	; 0x3f
 8006a34:	2b07      	cmp	r3, #7
 8006a36:	f000 808a 	beq.w	8006b4e <VL53L0X_get_info_from_device+0x98e>
 8006a3a:	78fb      	ldrb	r3, [r7, #3]
 8006a3c:	f003 0301 	and.w	r3, r3, #1
 8006a40:	2b00      	cmp	r3, #0
 8006a42:	d024      	beq.n	8006a8e <VL53L0X_get_info_from_device+0x8ce>
 8006a44:	f897 303f 	ldrb.w	r3, [r7, #63]	; 0x3f
 8006a48:	f003 0301 	and.w	r3, r3, #1
 8006a4c:	2b00      	cmp	r3, #0
 8006a4e:	d11e      	bne.n	8006a8e <VL53L0X_get_info_from_device+0x8ce>
 8006a50:	687b      	ldr	r3, [r7, #4]
 8006a52:	f897 205e 	ldrb.w	r2, [r7, #94]	; 0x5e
 8006a56:	f883 2113 	strb.w	r2, [r3, #275]	; 0x113
 8006a5a:	687b      	ldr	r3, [r7, #4]
 8006a5c:	f897 205d 	ldrb.w	r2, [r7, #93]	; 0x5d
 8006a60:	f883 2114 	strb.w	r2, [r3, #276]	; 0x114
 8006a64:	2300      	movs	r3, #0
 8006a66:	64fb      	str	r3, [r7, #76]	; 0x4c
 8006a68:	e00e      	b.n	8006a88 <VL53L0X_get_info_from_device+0x8c8>
 8006a6a:	f107 0208 	add.w	r2, r7, #8
 8006a6e:	6cfb      	ldr	r3, [r7, #76]	; 0x4c
 8006a70:	4413      	add	r3, r2
 8006a72:	7819      	ldrb	r1, [r3, #0]
 8006a74:	687a      	ldr	r2, [r7, #4]
 8006a76:	6cfb      	ldr	r3, [r7, #76]	; 0x4c
 8006a78:	4413      	add	r3, r2
 8006a7a:	f503 7395 	add.w	r3, r3, #298	; 0x12a
 8006a7e:	460a      	mov	r2, r1
 8006a80:	701a      	strb	r2, [r3, #0]
 8006a82:	6cfb      	ldr	r3, [r7, #76]	; 0x4c
 8006a84:	3301      	adds	r3, #1
 8006a86:	64fb      	str	r3, [r7, #76]	; 0x4c
 8006a88:	6cfb      	ldr	r3, [r7, #76]	; 0x4c
 8006a8a:	2b05      	cmp	r3, #5
 8006a8c:	dded      	ble.n	8006a6a <VL53L0X_get_info_from_device+0x8aa>
 8006a8e:	78fb      	ldrb	r3, [r7, #3]
 8006a90:	f003 0302 	and.w	r3, r3, #2
 8006a94:	2b00      	cmp	r3, #0
 8006a96:	d018      	beq.n	8006aca <VL53L0X_get_info_from_device+0x90a>
 8006a98:	f897 303f 	ldrb.w	r3, [r7, #63]	; 0x3f
 8006a9c:	f003 0302 	and.w	r3, r3, #2
 8006aa0:	2b00      	cmp	r3, #0
 8006aa2:	d112      	bne.n	8006aca <VL53L0X_get_info_from_device+0x90a>
 8006aa4:	f897 202f 	ldrb.w	r2, [r7, #47]	; 0x2f
 8006aa8:	687b      	ldr	r3, [r7, #4]
 8006aaa:	f883 20f1 	strb.w	r2, [r3, #241]	; 0xf1
 8006aae:	f897 202e 	ldrb.w	r2, [r7, #46]	; 0x2e
 8006ab2:	687b      	ldr	r3, [r7, #4]
 8006ab4:	f883 20f2 	strb.w	r2, [r3, #242]	; 0xf2
 8006ab8:	687b      	ldr	r3, [r7, #4]
 8006aba:	33f3      	adds	r3, #243	; 0xf3
 8006abc:	63bb      	str	r3, [r7, #56]	; 0x38
 8006abe:	f107 0310 	add.w	r3, r7, #16
 8006ac2:	4619      	mov	r1, r3
 8006ac4:	6bb8      	ldr	r0, [r7, #56]	; 0x38
 8006ac6:	f001 ff09 	bl	80088dc <strcpy>
 8006aca:	78fb      	ldrb	r3, [r7, #3]
 8006acc:	f003 0304 	and.w	r3, r3, #4
 8006ad0:	2b00      	cmp	r3, #0
 8006ad2:	d030      	beq.n	8006b36 <VL53L0X_get_info_from_device+0x976>
 8006ad4:	f897 303f 	ldrb.w	r3, [r7, #63]	; 0x3f
 8006ad8:	f003 0304 	and.w	r3, r3, #4
 8006adc:	2b00      	cmp	r3, #0
 8006ade:	d12a      	bne.n	8006b36 <VL53L0X_get_info_from_device+0x976>
 8006ae0:	6aba      	ldr	r2, [r7, #40]	; 0x28
 8006ae2:	687b      	ldr	r3, [r7, #4]
 8006ae4:	f8c3 2118 	str.w	r2, [r3, #280]	; 0x118
 8006ae8:	6a7a      	ldr	r2, [r7, #36]	; 0x24
 8006aea:	687b      	ldr	r3, [r7, #4]
 8006aec:	f8c3 211c 	str.w	r2, [r3, #284]	; 0x11c
 8006af0:	6d3b      	ldr	r3, [r7, #80]	; 0x50
 8006af2:	025b      	lsls	r3, r3, #9
 8006af4:	643b      	str	r3, [r7, #64]	; 0x40
 8006af6:	687b      	ldr	r3, [r7, #4]
 8006af8:	6c3a      	ldr	r2, [r7, #64]	; 0x40
 8006afa:	f8c3 2120 	str.w	r2, [r3, #288]	; 0x120
 8006afe:	2300      	movs	r3, #0
 8006b00:	f8a7 305a 	strh.w	r3, [r7, #90]	; 0x5a
 8006b04:	6d7b      	ldr	r3, [r7, #84]	; 0x54
 8006b06:	2b00      	cmp	r3, #0
 8006b08:	d011      	beq.n	8006b2e <VL53L0X_get_info_from_device+0x96e>
 8006b0a:	6d7a      	ldr	r2, [r7, #84]	; 0x54
 8006b0c:	6c7b      	ldr	r3, [r7, #68]	; 0x44
 8006b0e:	1ad3      	subs	r3, r2, r3
 8006b10:	64bb      	str	r3, [r7, #72]	; 0x48
 8006b12:	6cbb      	ldr	r3, [r7, #72]	; 0x48
 8006b14:	f44f 727a 	mov.w	r2, #1000	; 0x3e8
 8006b18:	fb02 f303 	mul.w	r3, r2, r3
 8006b1c:	091b      	lsrs	r3, r3, #4
 8006b1e:	f8a7 305a 	strh.w	r3, [r7, #90]	; 0x5a
 8006b22:	f8b7 305a 	ldrh.w	r3, [r7, #90]	; 0x5a
 8006b26:	425b      	negs	r3, r3
 8006b28:	b29b      	uxth	r3, r3
 8006b2a:	f8a7 305a 	strh.w	r3, [r7, #90]	; 0x5a
 8006b2e:	f9b7 205a 	ldrsh.w	r2, [r7, #90]	; 0x5a
 8006b32:	687b      	ldr	r3, [r7, #4]
 8006b34:	60da      	str	r2, [r3, #12]
 8006b36:	f897 203f 	ldrb.w	r2, [r7, #63]	; 0x3f
 8006b3a:	78fb      	ldrb	r3, [r7, #3]
 8006b3c:	4313      	orrs	r3, r2
 8006b3e:	b2db      	uxtb	r3, r3
 8006b40:	f887 3037 	strb.w	r3, [r7, #55]	; 0x37
 8006b44:	f897 2037 	ldrb.w	r2, [r7, #55]	; 0x37
 8006b48:	687b      	ldr	r3, [r7, #4]
 8006b4a:	f883 20f0 	strb.w	r2, [r3, #240]	; 0xf0
 8006b4e:	f997 305f 	ldrsb.w	r3, [r7, #95]	; 0x5f
 8006b52:	4618      	mov	r0, r3
 8006b54:	3760      	adds	r7, #96	; 0x60
 8006b56:	46bd      	mov	sp, r7
 8006b58:	bd80      	pop	{r7, pc}

08006b5a <VL53L0X_calc_macro_period_ps>:
 8006b5a:	b490      	push	{r4, r7}
 8006b5c:	b086      	sub	sp, #24
 8006b5e:	af00      	add	r7, sp, #0
 8006b60:	6078      	str	r0, [r7, #4]
 8006b62:	460b      	mov	r3, r1
 8006b64:	70fb      	strb	r3, [r7, #3]
 8006b66:	f240 6377 	movw	r3, #1655	; 0x677
 8006b6a:	f04f 0400 	mov.w	r4, #0
 8006b6e:	e9c7 3404 	strd	r3, r4, [r7, #16]
 8006b72:	f44f 6310 	mov.w	r3, #2304	; 0x900
 8006b76:	60fb      	str	r3, [r7, #12]
 8006b78:	78fb      	ldrb	r3, [r7, #3]
 8006b7a:	68fa      	ldr	r2, [r7, #12]
 8006b7c:	fb02 f303 	mul.w	r3, r2, r3
 8006b80:	693a      	ldr	r2, [r7, #16]
 8006b82:	fb02 f303 	mul.w	r3, r2, r3
 8006b86:	60bb      	str	r3, [r7, #8]
 8006b88:	68bb      	ldr	r3, [r7, #8]
 8006b8a:	4618      	mov	r0, r3
 8006b8c:	3718      	adds	r7, #24
 8006b8e:	46bd      	mov	sp, r7
 8006b90:	bc90      	pop	{r4, r7}
 8006b92:	4770      	bx	lr

08006b94 <VL53L0X_encode_timeout>:
 8006b94:	b480      	push	{r7}
 8006b96:	b087      	sub	sp, #28
 8006b98:	af00      	add	r7, sp, #0
 8006b9a:	6078      	str	r0, [r7, #4]
 8006b9c:	2300      	movs	r3, #0
 8006b9e:	82fb      	strh	r3, [r7, #22]
 8006ba0:	2300      	movs	r3, #0
 8006ba2:	613b      	str	r3, [r7, #16]
 8006ba4:	2300      	movs	r3, #0
 8006ba6:	81fb      	strh	r3, [r7, #14]
 8006ba8:	687b      	ldr	r3, [r7, #4]
 8006baa:	2b00      	cmp	r3, #0
 8006bac:	d017      	beq.n	8006bde <VL53L0X_encode_timeout+0x4a>
 8006bae:	687b      	ldr	r3, [r7, #4]
 8006bb0:	3b01      	subs	r3, #1
 8006bb2:	613b      	str	r3, [r7, #16]
 8006bb4:	e005      	b.n	8006bc2 <VL53L0X_encode_timeout+0x2e>
 8006bb6:	693b      	ldr	r3, [r7, #16]
 8006bb8:	085b      	lsrs	r3, r3, #1
 8006bba:	613b      	str	r3, [r7, #16]
 8006bbc:	89fb      	ldrh	r3, [r7, #14]
 8006bbe:	3301      	adds	r3, #1
 8006bc0:	81fb      	strh	r3, [r7, #14]
 8006bc2:	693b      	ldr	r3, [r7, #16]
 8006bc4:	f023 03ff 	bic.w	r3, r3, #255	; 0xff
 8006bc8:	2b00      	cmp	r3, #0
 8006bca:	d1f4      	bne.n	8006bb6 <VL53L0X_encode_timeout+0x22>
 8006bcc:	89fb      	ldrh	r3, [r7, #14]
 8006bce:	021b      	lsls	r3, r3, #8
 8006bd0:	b29a      	uxth	r2, r3
 8006bd2:	693b      	ldr	r3, [r7, #16]
 8006bd4:	b29b      	uxth	r3, r3
 8006bd6:	b2db      	uxtb	r3, r3
 8006bd8:	b29b      	uxth	r3, r3
 8006bda:	4413      	add	r3, r2
 8006bdc:	82fb      	strh	r3, [r7, #22]
 8006bde:	8afb      	ldrh	r3, [r7, #22]
 8006be0:	4618      	mov	r0, r3
 8006be2:	371c      	adds	r7, #28
 8006be4:	46bd      	mov	sp, r7
 8006be6:	f85d 7b04 	ldr.w	r7, [sp], #4
 8006bea:	4770      	bx	lr

08006bec <VL53L0X_decode_timeout>:
 8006bec:	b480      	push	{r7}
 8006bee:	b085      	sub	sp, #20
 8006bf0:	af00      	add	r7, sp, #0
 8006bf2:	4603      	mov	r3, r0
 8006bf4:	80fb      	strh	r3, [r7, #6]
 8006bf6:	2300      	movs	r3, #0
 8006bf8:	60fb      	str	r3, [r7, #12]
 8006bfa:	88fb      	ldrh	r3, [r7, #6]
 8006bfc:	b2db      	uxtb	r3, r3
 8006bfe:	88fa      	ldrh	r2, [r7, #6]
 8006c00:	0a12      	lsrs	r2, r2, #8
 8006c02:	b292      	uxth	r2, r2
 8006c04:	4093      	lsls	r3, r2
 8006c06:	3301      	adds	r3, #1
 8006c08:	60fb      	str	r3, [r7, #12]
 8006c0a:	68fb      	ldr	r3, [r7, #12]
 8006c0c:	4618      	mov	r0, r3
 8006c0e:	3714      	adds	r7, #20
 8006c10:	46bd      	mov	sp, r7
 8006c12:	f85d 7b04 	ldr.w	r7, [sp], #4
 8006c16:	4770      	bx	lr

08006c18 <VL53L0X_calc_timeout_mclks>:
 8006c18:	b580      	push	{r7, lr}
 8006c1a:	b088      	sub	sp, #32
 8006c1c:	af00      	add	r7, sp, #0
 8006c1e:	60f8      	str	r0, [r7, #12]
 8006c20:	60b9      	str	r1, [r7, #8]
 8006c22:	4613      	mov	r3, r2
 8006c24:	71fb      	strb	r3, [r7, #7]
 8006c26:	2300      	movs	r3, #0
 8006c28:	61fb      	str	r3, [r7, #28]
 8006c2a:	79fb      	ldrb	r3, [r7, #7]
 8006c2c:	4619      	mov	r1, r3
 8006c2e:	68f8      	ldr	r0, [r7, #12]
 8006c30:	f7ff ff93 	bl	8006b5a <VL53L0X_calc_macro_period_ps>
 8006c34:	61b8      	str	r0, [r7, #24]
 8006c36:	69bb      	ldr	r3, [r7, #24]
 8006c38:	f503 73fa 	add.w	r3, r3, #500	; 0x1f4
 8006c3c:	4a0a      	ldr	r2, [pc, #40]	; (8006c68 <VL53L0X_calc_timeout_mclks+0x50>)
 8006c3e:	fba2 2303 	umull	r2, r3, r2, r3
 8006c42:	099b      	lsrs	r3, r3, #6
 8006c44:	617b      	str	r3, [r7, #20]
 8006c46:	68bb      	ldr	r3, [r7, #8]
 8006c48:	f44f 727a 	mov.w	r2, #1000	; 0x3e8
 8006c4c:	fb02 f203 	mul.w	r2, r2, r3
 8006c50:	697b      	ldr	r3, [r7, #20]
 8006c52:	085b      	lsrs	r3, r3, #1
 8006c54:	441a      	add	r2, r3
 8006c56:	697b      	ldr	r3, [r7, #20]
 8006c58:	fbb2 f3f3 	udiv	r3, r2, r3
 8006c5c:	61fb      	str	r3, [r7, #28]
 8006c5e:	69fb      	ldr	r3, [r7, #28]
 8006c60:	4618      	mov	r0, r3
 8006c62:	3720      	adds	r7, #32
 8006c64:	46bd      	mov	sp, r7
 8006c66:	bd80      	pop	{r7, pc}
 8006c68:	10624dd3 	.word	0x10624dd3

08006c6c <VL53L0X_calc_timeout_us>:
 8006c6c:	b580      	push	{r7, lr}
 8006c6e:	b086      	sub	sp, #24
 8006c70:	af00      	add	r7, sp, #0
 8006c72:	6078      	str	r0, [r7, #4]
 8006c74:	460b      	mov	r3, r1
 8006c76:	807b      	strh	r3, [r7, #2]
 8006c78:	4613      	mov	r3, r2
 8006c7a:	707b      	strb	r3, [r7, #1]
 8006c7c:	2300      	movs	r3, #0
 8006c7e:	617b      	str	r3, [r7, #20]
 8006c80:	787b      	ldrb	r3, [r7, #1]
 8006c82:	4619      	mov	r1, r3
 8006c84:	6878      	ldr	r0, [r7, #4]
 8006c86:	f7ff ff68 	bl	8006b5a <VL53L0X_calc_macro_period_ps>
 8006c8a:	6138      	str	r0, [r7, #16]
 8006c8c:	693b      	ldr	r3, [r7, #16]
 8006c8e:	f503 73fa 	add.w	r3, r3, #500	; 0x1f4
 8006c92:	4a0a      	ldr	r2, [pc, #40]	; (8006cbc <VL53L0X_calc_timeout_us+0x50>)
 8006c94:	fba2 2303 	umull	r2, r3, r2, r3
 8006c98:	099b      	lsrs	r3, r3, #6
 8006c9a:	60fb      	str	r3, [r7, #12]
 8006c9c:	887b      	ldrh	r3, [r7, #2]
 8006c9e:	68fa      	ldr	r2, [r7, #12]
 8006ca0:	fb02 f303 	mul.w	r3, r2, r3
 8006ca4:	f503 73fa 	add.w	r3, r3, #500	; 0x1f4
 8006ca8:	4a04      	ldr	r2, [pc, #16]	; (8006cbc <VL53L0X_calc_timeout_us+0x50>)
 8006caa:	fba2 2303 	umull	r2, r3, r2, r3
 8006cae:	099b      	lsrs	r3, r3, #6
 8006cb0:	617b      	str	r3, [r7, #20]
 8006cb2:	697b      	ldr	r3, [r7, #20]
 8006cb4:	4618      	mov	r0, r3
 8006cb6:	3718      	adds	r7, #24
 8006cb8:	46bd      	mov	sp, r7
 8006cba:	bd80      	pop	{r7, pc}
 8006cbc:	10624dd3 	.word	0x10624dd3

08006cc0 <get_sequence_step_timeout>:
 8006cc0:	b580      	push	{r7, lr}
 8006cc2:	b08c      	sub	sp, #48	; 0x30
 8006cc4:	af00      	add	r7, sp, #0
 8006cc6:	60f8      	str	r0, [r7, #12]
 8006cc8:	460b      	mov	r3, r1
 8006cca:	607a      	str	r2, [r7, #4]
 8006ccc:	72fb      	strb	r3, [r7, #11]
 8006cce:	2300      	movs	r3, #0
 8006cd0:	f887 302f 	strb.w	r3, [r7, #47]	; 0x2f
 8006cd4:	2300      	movs	r3, #0
 8006cd6:	f887 3020 	strb.w	r3, [r7, #32]
 8006cda:	2300      	movs	r3, #0
 8006cdc:	62bb      	str	r3, [r7, #40]	; 0x28
 8006cde:	2300      	movs	r3, #0
 8006ce0:	83fb      	strh	r3, [r7, #30]
 8006ce2:	2300      	movs	r3, #0
 8006ce4:	84bb      	strh	r3, [r7, #36]	; 0x24
 8006ce6:	7afb      	ldrb	r3, [r7, #11]
 8006ce8:	2b00      	cmp	r3, #0
 8006cea:	d005      	beq.n	8006cf8 <get_sequence_step_timeout+0x38>
 8006cec:	7afb      	ldrb	r3, [r7, #11]
 8006cee:	2b01      	cmp	r3, #1
 8006cf0:	d002      	beq.n	8006cf8 <get_sequence_step_timeout+0x38>
 8006cf2:	7afb      	ldrb	r3, [r7, #11]
 8006cf4:	2b02      	cmp	r3, #2
 8006cf6:	d128      	bne.n	8006d4a <get_sequence_step_timeout+0x8a>
 8006cf8:	f107 0321 	add.w	r3, r7, #33	; 0x21
 8006cfc:	461a      	mov	r2, r3
 8006cfe:	2100      	movs	r1, #0
 8006d00:	68f8      	ldr	r0, [r7, #12]
 8006d02:	f7fd fa29 	bl	8004158 <VL53L0X_GetVcselPulsePeriod>
 8006d06:	4603      	mov	r3, r0
 8006d08:	f887 302f 	strb.w	r3, [r7, #47]	; 0x2f
 8006d0c:	f997 302f 	ldrsb.w	r3, [r7, #47]	; 0x2f
 8006d10:	2b00      	cmp	r3, #0
 8006d12:	d109      	bne.n	8006d28 <get_sequence_step_timeout+0x68>
 8006d14:	f107 0320 	add.w	r3, r7, #32
 8006d18:	461a      	mov	r2, r3
 8006d1a:	2146      	movs	r1, #70	; 0x46
 8006d1c:	68f8      	ldr	r0, [r7, #12]
 8006d1e:	f001 fbc7 	bl	80084b0 <VL53L0X_RdByte>
 8006d22:	4603      	mov	r3, r0
 8006d24:	f887 302f 	strb.w	r3, [r7, #47]	; 0x2f
 8006d28:	f897 3020 	ldrb.w	r3, [r7, #32]
 8006d2c:	b29b      	uxth	r3, r3
 8006d2e:	4618      	mov	r0, r3
 8006d30:	f7ff ff5c 	bl	8006bec <VL53L0X_decode_timeout>
 8006d34:	4603      	mov	r3, r0
 8006d36:	847b      	strh	r3, [r7, #34]	; 0x22
 8006d38:	f897 2021 	ldrb.w	r2, [r7, #33]	; 0x21
 8006d3c:	8c7b      	ldrh	r3, [r7, #34]	; 0x22
 8006d3e:	4619      	mov	r1, r3
 8006d40:	68f8      	ldr	r0, [r7, #12]
 8006d42:	f7ff ff93 	bl	8006c6c <VL53L0X_calc_timeout_us>
 8006d46:	62b8      	str	r0, [r7, #40]	; 0x28
 8006d48:	e092      	b.n	8006e70 <get_sequence_step_timeout+0x1b0>
 8006d4a:	7afb      	ldrb	r3, [r7, #11]
 8006d4c:	2b03      	cmp	r3, #3
 8006d4e:	d135      	bne.n	8006dbc <get_sequence_step_timeout+0xfc>
 8006d50:	f107 0321 	add.w	r3, r7, #33	; 0x21
 8006d54:	461a      	mov	r2, r3
 8006d56:	2100      	movs	r1, #0
 8006d58:	68f8      	ldr	r0, [r7, #12]
 8006d5a:	f7fd f9fd 	bl	8004158 <VL53L0X_GetVcselPulsePeriod>
 8006d5e:	4603      	mov	r3, r0
 8006d60:	f887 302f 	strb.w	r3, [r7, #47]	; 0x2f
 8006d64:	f997 302f 	ldrsb.w	r3, [r7, #47]	; 0x2f
 8006d68:	2b00      	cmp	r3, #0
 8006d6a:	f040 8081 	bne.w	8006e70 <get_sequence_step_timeout+0x1b0>
 8006d6e:	f107 0321 	add.w	r3, r7, #33	; 0x21
 8006d72:	461a      	mov	r2, r3
 8006d74:	2100      	movs	r1, #0
 8006d76:	68f8      	ldr	r0, [r7, #12]
 8006d78:	f7fd f9ee 	bl	8004158 <VL53L0X_GetVcselPulsePeriod>
 8006d7c:	4603      	mov	r3, r0
 8006d7e:	f887 302f 	strb.w	r3, [r7, #47]	; 0x2f
 8006d82:	f997 302f 	ldrsb.w	r3, [r7, #47]	; 0x2f
 8006d86:	2b00      	cmp	r3, #0
 8006d88:	d109      	bne.n	8006d9e <get_sequence_step_timeout+0xde>
 8006d8a:	f107 031e 	add.w	r3, r7, #30
 8006d8e:	461a      	mov	r2, r3
 8006d90:	2151      	movs	r1, #81	; 0x51
 8006d92:	68f8      	ldr	r0, [r7, #12]
 8006d94:	f001 fbb6 	bl	8008504 <VL53L0X_RdWord>
 8006d98:	4603      	mov	r3, r0
 8006d9a:	f887 302f 	strb.w	r3, [r7, #47]	; 0x2f
 8006d9e:	8bfb      	ldrh	r3, [r7, #30]
 8006da0:	4618      	mov	r0, r3
 8006da2:	f7ff ff23 	bl	8006bec <VL53L0X_decode_timeout>
 8006da6:	4603      	mov	r3, r0
 8006da8:	84fb      	strh	r3, [r7, #38]	; 0x26
 8006daa:	f897 2021 	ldrb.w	r2, [r7, #33]	; 0x21
 8006dae:	8cfb      	ldrh	r3, [r7, #38]	; 0x26
 8006db0:	4619      	mov	r1, r3
 8006db2:	68f8      	ldr	r0, [r7, #12]
 8006db4:	f7ff ff5a 	bl	8006c6c <VL53L0X_calc_timeout_us>
 8006db8:	62b8      	str	r0, [r7, #40]	; 0x28
 8006dba:	e059      	b.n	8006e70 <get_sequence_step_timeout+0x1b0>
 8006dbc:	7afb      	ldrb	r3, [r7, #11]
 8006dbe:	2b04      	cmp	r3, #4
 8006dc0:	d156      	bne.n	8006e70 <get_sequence_step_timeout+0x1b0>
 8006dc2:	f107 0314 	add.w	r3, r7, #20
 8006dc6:	4619      	mov	r1, r3
 8006dc8:	68f8      	ldr	r0, [r7, #12]
 8006dca:	f7fd fad1 	bl	8004370 <VL53L0X_GetSequenceStepEnables>
 8006dce:	2300      	movs	r3, #0
 8006dd0:	84fb      	strh	r3, [r7, #38]	; 0x26
 8006dd2:	7dfb      	ldrb	r3, [r7, #23]
 8006dd4:	2b00      	cmp	r3, #0
 8006dd6:	d01d      	beq.n	8006e14 <get_sequence_step_timeout+0x154>
 8006dd8:	f107 0321 	add.w	r3, r7, #33	; 0x21
 8006ddc:	461a      	mov	r2, r3
 8006dde:	2100      	movs	r1, #0
 8006de0:	68f8      	ldr	r0, [r7, #12]
 8006de2:	f7fd f9b9 	bl	8004158 <VL53L0X_GetVcselPulsePeriod>
 8006de6:	4603      	mov	r3, r0
 8006de8:	f887 302f 	strb.w	r3, [r7, #47]	; 0x2f
 8006dec:	f997 302f 	ldrsb.w	r3, [r7, #47]	; 0x2f
 8006df0:	2b00      	cmp	r3, #0
 8006df2:	d10f      	bne.n	8006e14 <get_sequence_step_timeout+0x154>
 8006df4:	f107 031e 	add.w	r3, r7, #30
 8006df8:	461a      	mov	r2, r3
 8006dfa:	2151      	movs	r1, #81	; 0x51
 8006dfc:	68f8      	ldr	r0, [r7, #12]
 8006dfe:	f001 fb81 	bl	8008504 <VL53L0X_RdWord>
 8006e02:	4603      	mov	r3, r0
 8006e04:	f887 302f 	strb.w	r3, [r7, #47]	; 0x2f
 8006e08:	8bfb      	ldrh	r3, [r7, #30]
 8006e0a:	4618      	mov	r0, r3
 8006e0c:	f7ff feee 	bl	8006bec <VL53L0X_decode_timeout>
 8006e10:	4603      	mov	r3, r0
 8006e12:	84fb      	strh	r3, [r7, #38]	; 0x26
 8006e14:	f997 302f 	ldrsb.w	r3, [r7, #47]	; 0x2f
 8006e18:	2b00      	cmp	r3, #0
 8006e1a:	d109      	bne.n	8006e30 <get_sequence_step_timeout+0x170>
 8006e1c:	f107 0321 	add.w	r3, r7, #33	; 0x21
 8006e20:	461a      	mov	r2, r3
 8006e22:	2101      	movs	r1, #1
 8006e24:	68f8      	ldr	r0, [r7, #12]
 8006e26:	f7fd f997 	bl	8004158 <VL53L0X_GetVcselPulsePeriod>
 8006e2a:	4603      	mov	r3, r0
 8006e2c:	f887 302f 	strb.w	r3, [r7, #47]	; 0x2f
 8006e30:	f997 302f 	ldrsb.w	r3, [r7, #47]	; 0x2f
 8006e34:	2b00      	cmp	r3, #0
 8006e36:	d10f      	bne.n	8006e58 <get_sequence_step_timeout+0x198>
 8006e38:	f107 031c 	add.w	r3, r7, #28
 8006e3c:	461a      	mov	r2, r3
 8006e3e:	2171      	movs	r1, #113	; 0x71
 8006e40:	68f8      	ldr	r0, [r7, #12]
 8006e42:	f001 fb5f 	bl	8008504 <VL53L0X_RdWord>
 8006e46:	4603      	mov	r3, r0
 8006e48:	f887 302f 	strb.w	r3, [r7, #47]	; 0x2f
 8006e4c:	8bbb      	ldrh	r3, [r7, #28]
 8006e4e:	4618      	mov	r0, r3
 8006e50:	f7ff fecc 	bl	8006bec <VL53L0X_decode_timeout>
 8006e54:	4603      	mov	r3, r0
 8006e56:	84bb      	strh	r3, [r7, #36]	; 0x24
 8006e58:	8cba      	ldrh	r2, [r7, #36]	; 0x24
 8006e5a:	8cfb      	ldrh	r3, [r7, #38]	; 0x26
 8006e5c:	1ad3      	subs	r3, r2, r3
 8006e5e:	84bb      	strh	r3, [r7, #36]	; 0x24
 8006e60:	f897 2021 	ldrb.w	r2, [r7, #33]	; 0x21
 8006e64:	8cbb      	ldrh	r3, [r7, #36]	; 0x24
 8006e66:	4619      	mov	r1, r3
 8006e68:	68f8      	ldr	r0, [r7, #12]
 8006e6a:	f7ff feff 	bl	8006c6c <VL53L0X_calc_timeout_us>
 8006e6e:	62b8      	str	r0, [r7, #40]	; 0x28
 8006e70:	687b      	ldr	r3, [r7, #4]
 8006e72:	6aba      	ldr	r2, [r7, #40]	; 0x28
 8006e74:	601a      	str	r2, [r3, #0]
 8006e76:	f997 302f 	ldrsb.w	r3, [r7, #47]	; 0x2f
 8006e7a:	4618      	mov	r0, r3
 8006e7c:	3730      	adds	r7, #48	; 0x30
 8006e7e:	46bd      	mov	sp, r7
 8006e80:	bd80      	pop	{r7, pc}

08006e82 <set_sequence_step_timeout>:
 8006e82:	b580      	push	{r7, lr}
 8006e84:	b08a      	sub	sp, #40	; 0x28
 8006e86:	af00      	add	r7, sp, #0
 8006e88:	60f8      	str	r0, [r7, #12]
 8006e8a:	460b      	mov	r3, r1
 8006e8c:	607a      	str	r2, [r7, #4]
 8006e8e:	72fb      	strb	r3, [r7, #11]
 8006e90:	2300      	movs	r3, #0
 8006e92:	f887 3027 	strb.w	r3, [r7, #39]	; 0x27
 8006e96:	7afb      	ldrb	r3, [r7, #11]
 8006e98:	2b00      	cmp	r3, #0
 8006e9a:	d005      	beq.n	8006ea8 <set_sequence_step_timeout+0x26>
 8006e9c:	7afb      	ldrb	r3, [r7, #11]
 8006e9e:	2b01      	cmp	r3, #1
 8006ea0:	d002      	beq.n	8006ea8 <set_sequence_step_timeout+0x26>
 8006ea2:	7afb      	ldrb	r3, [r7, #11]
 8006ea4:	2b02      	cmp	r3, #2
 8006ea6:	d138      	bne.n	8006f1a <set_sequence_step_timeout+0x98>
 8006ea8:	f107 031b 	add.w	r3, r7, #27
 8006eac:	461a      	mov	r2, r3
 8006eae:	2100      	movs	r1, #0
 8006eb0:	68f8      	ldr	r0, [r7, #12]
 8006eb2:	f7fd f951 	bl	8004158 <VL53L0X_GetVcselPulsePeriod>
 8006eb6:	4603      	mov	r3, r0
 8006eb8:	f887 3027 	strb.w	r3, [r7, #39]	; 0x27
 8006ebc:	f997 3027 	ldrsb.w	r3, [r7, #39]	; 0x27
 8006ec0:	2b00      	cmp	r3, #0
 8006ec2:	d11a      	bne.n	8006efa <set_sequence_step_timeout+0x78>
 8006ec4:	7efb      	ldrb	r3, [r7, #27]
 8006ec6:	461a      	mov	r2, r3
 8006ec8:	6879      	ldr	r1, [r7, #4]
 8006eca:	68f8      	ldr	r0, [r7, #12]
 8006ecc:	f7ff fea4 	bl	8006c18 <VL53L0X_calc_timeout_mclks>
 8006ed0:	4603      	mov	r3, r0
 8006ed2:	83bb      	strh	r3, [r7, #28]
 8006ed4:	8bbb      	ldrh	r3, [r7, #28]
 8006ed6:	f5b3 7f80 	cmp.w	r3, #256	; 0x100
 8006eda:	d903      	bls.n	8006ee4 <set_sequence_step_timeout+0x62>
 8006edc:	23ff      	movs	r3, #255	; 0xff
 8006ede:	f887 3026 	strb.w	r3, [r7, #38]	; 0x26
 8006ee2:	e004      	b.n	8006eee <set_sequence_step_timeout+0x6c>
 8006ee4:	8bbb      	ldrh	r3, [r7, #28]
 8006ee6:	b2db      	uxtb	r3, r3
 8006ee8:	3b01      	subs	r3, #1
 8006eea:	f887 3026 	strb.w	r3, [r7, #38]	; 0x26
 8006eee:	f897 3026 	ldrb.w	r3, [r7, #38]	; 0x26
 8006ef2:	b29a      	uxth	r2, r3
 8006ef4:	68fb      	ldr	r3, [r7, #12]
 8006ef6:	f8a3 20d8 	strh.w	r2, [r3, #216]	; 0xd8
 8006efa:	f997 3027 	ldrsb.w	r3, [r7, #39]	; 0x27
 8006efe:	2b00      	cmp	r3, #0
 8006f00:	f040 80ab 	bne.w	800705a <set_sequence_step_timeout+0x1d8>
 8006f04:	f897 3026 	ldrb.w	r3, [r7, #38]	; 0x26
 8006f08:	461a      	mov	r2, r3
 8006f0a:	2146      	movs	r1, #70	; 0x46
 8006f0c:	68f8      	ldr	r0, [r7, #12]
 8006f0e:	f001 fa4d 	bl	80083ac <VL53L0X_WrByte>
 8006f12:	4603      	mov	r3, r0
 8006f14:	f887 3027 	strb.w	r3, [r7, #39]	; 0x27
 8006f18:	e09f      	b.n	800705a <set_sequence_step_timeout+0x1d8>
 8006f1a:	7afb      	ldrb	r3, [r7, #11]
 8006f1c:	2b03      	cmp	r3, #3
 8006f1e:	d135      	bne.n	8006f8c <set_sequence_step_timeout+0x10a>
 8006f20:	f997 3027 	ldrsb.w	r3, [r7, #39]	; 0x27
 8006f24:	2b00      	cmp	r3, #0
 8006f26:	d11b      	bne.n	8006f60 <set_sequence_step_timeout+0xde>
 8006f28:	f107 031b 	add.w	r3, r7, #27
 8006f2c:	461a      	mov	r2, r3
 8006f2e:	2100      	movs	r1, #0
 8006f30:	68f8      	ldr	r0, [r7, #12]
 8006f32:	f7fd f911 	bl	8004158 <VL53L0X_GetVcselPulsePeriod>
 8006f36:	4603      	mov	r3, r0
 8006f38:	f887 3027 	strb.w	r3, [r7, #39]	; 0x27
 8006f3c:	7efb      	ldrb	r3, [r7, #27]
 8006f3e:	461a      	mov	r2, r3
 8006f40:	6879      	ldr	r1, [r7, #4]
 8006f42:	68f8      	ldr	r0, [r7, #12]
 8006f44:	f7ff fe68 	bl	8006c18 <VL53L0X_calc_timeout_mclks>
 8006f48:	4603      	mov	r3, r0
 8006f4a:	84bb      	strh	r3, [r7, #36]	; 0x24
 8006f4c:	8cbb      	ldrh	r3, [r7, #36]	; 0x24
 8006f4e:	4618      	mov	r0, r3
 8006f50:	f7ff fe20 	bl	8006b94 <VL53L0X_encode_timeout>
 8006f54:	4603      	mov	r3, r0
 8006f56:	833b      	strh	r3, [r7, #24]
 8006f58:	8b3a      	ldrh	r2, [r7, #24]
 8006f5a:	68fb      	ldr	r3, [r7, #12]
 8006f5c:	f8a3 20d8 	strh.w	r2, [r3, #216]	; 0xd8
 8006f60:	f997 3027 	ldrsb.w	r3, [r7, #39]	; 0x27
 8006f64:	2b00      	cmp	r3, #0
 8006f66:	d108      	bne.n	8006f7a <set_sequence_step_timeout+0xf8>
 8006f68:	8b3b      	ldrh	r3, [r7, #24]
 8006f6a:	461a      	mov	r2, r3
 8006f6c:	2151      	movs	r1, #81	; 0x51
 8006f6e:	68f8      	ldr	r0, [r7, #12]
 8006f70:	f001 fa40 	bl	80083f4 <VL53L0X_WrWord>
 8006f74:	4603      	mov	r3, r0
 8006f76:	f887 3027 	strb.w	r3, [r7, #39]	; 0x27
 8006f7a:	f997 3027 	ldrsb.w	r3, [r7, #39]	; 0x27
 8006f7e:	2b00      	cmp	r3, #0
 8006f80:	d16b      	bne.n	800705a <set_sequence_step_timeout+0x1d8>
 8006f82:	68fb      	ldr	r3, [r7, #12]
 8006f84:	687a      	ldr	r2, [r7, #4]
 8006f86:	f8c3 20e4 	str.w	r2, [r3, #228]	; 0xe4
 8006f8a:	e066      	b.n	800705a <set_sequence_step_timeout+0x1d8>
 8006f8c:	7afb      	ldrb	r3, [r7, #11]
 8006f8e:	2b04      	cmp	r3, #4
 8006f90:	d160      	bne.n	8007054 <set_sequence_step_timeout+0x1d2>
 8006f92:	f107 0310 	add.w	r3, r7, #16
 8006f96:	4619      	mov	r1, r3
 8006f98:	68f8      	ldr	r0, [r7, #12]
 8006f9a:	f7fd f9e9 	bl	8004370 <VL53L0X_GetSequenceStepEnables>
 8006f9e:	2300      	movs	r3, #0
 8006fa0:	84bb      	strh	r3, [r7, #36]	; 0x24
 8006fa2:	7cfb      	ldrb	r3, [r7, #19]
 8006fa4:	2b00      	cmp	r3, #0
 8006fa6:	d01d      	beq.n	8006fe4 <set_sequence_step_timeout+0x162>
 8006fa8:	f107 031b 	add.w	r3, r7, #27
 8006fac:	461a      	mov	r2, r3
 8006fae:	2100      	movs	r1, #0
 8006fb0:	68f8      	ldr	r0, [r7, #12]
 8006fb2:	f7fd f8d1 	bl	8004158 <VL53L0X_GetVcselPulsePeriod>
 8006fb6:	4603      	mov	r3, r0
 8006fb8:	f887 3027 	strb.w	r3, [r7, #39]	; 0x27
 8006fbc:	f997 3027 	ldrsb.w	r3, [r7, #39]	; 0x27
 8006fc0:	2b00      	cmp	r3, #0
 8006fc2:	d10f      	bne.n	8006fe4 <set_sequence_step_timeout+0x162>
 8006fc4:	f107 0318 	add.w	r3, r7, #24
 8006fc8:	461a      	mov	r2, r3
 8006fca:	2151      	movs	r1, #81	; 0x51
 8006fcc:	68f8      	ldr	r0, [r7, #12]
 8006fce:	f001 fa99 	bl	8008504 <VL53L0X_RdWord>
 8006fd2:	4603      	mov	r3, r0
 8006fd4:	f887 3027 	strb.w	r3, [r7, #39]	; 0x27
 8006fd8:	8b3b      	ldrh	r3, [r7, #24]
 8006fda:	4618      	mov	r0, r3
 8006fdc:	f7ff fe06 	bl	8006bec <VL53L0X_decode_timeout>
 8006fe0:	4603      	mov	r3, r0
 8006fe2:	84bb      	strh	r3, [r7, #36]	; 0x24
 8006fe4:	f997 3027 	ldrsb.w	r3, [r7, #39]	; 0x27
 8006fe8:	2b00      	cmp	r3, #0
 8006fea:	d109      	bne.n	8007000 <set_sequence_step_timeout+0x17e>
 8006fec:	f107 031b 	add.w	r3, r7, #27
 8006ff0:	461a      	mov	r2, r3
 8006ff2:	2101      	movs	r1, #1
 8006ff4:	68f8      	ldr	r0, [r7, #12]
 8006ff6:	f7fd f8af 	bl	8004158 <VL53L0X_GetVcselPulsePeriod>
 8006ffa:	4603      	mov	r3, r0
 8006ffc:	f887 3027 	strb.w	r3, [r7, #39]	; 0x27
 8007000:	f997 3027 	ldrsb.w	r3, [r7, #39]	; 0x27
 8007004:	2b00      	cmp	r3, #0
 8007006:	d128      	bne.n	800705a <set_sequence_step_timeout+0x1d8>
 8007008:	7efb      	ldrb	r3, [r7, #27]
 800700a:	461a      	mov	r2, r3
 800700c:	6879      	ldr	r1, [r7, #4]
 800700e:	68f8      	ldr	r0, [r7, #12]
 8007010:	f7ff fe02 	bl	8006c18 <VL53L0X_calc_timeout_mclks>
 8007014:	6238      	str	r0, [r7, #32]
 8007016:	8cbb      	ldrh	r3, [r7, #36]	; 0x24
 8007018:	6a3a      	ldr	r2, [r7, #32]
 800701a:	4413      	add	r3, r2
 800701c:	623b      	str	r3, [r7, #32]
 800701e:	6a38      	ldr	r0, [r7, #32]
 8007020:	f7ff fdb8 	bl	8006b94 <VL53L0X_encode_timeout>
 8007024:	4603      	mov	r3, r0
 8007026:	83fb      	strh	r3, [r7, #30]
 8007028:	f997 3027 	ldrsb.w	r3, [r7, #39]	; 0x27
 800702c:	2b00      	cmp	r3, #0
 800702e:	d108      	bne.n	8007042 <set_sequence_step_timeout+0x1c0>
 8007030:	8bfb      	ldrh	r3, [r7, #30]
 8007032:	461a      	mov	r2, r3
 8007034:	2171      	movs	r1, #113	; 0x71
 8007036:	68f8      	ldr	r0, [r7, #12]
 8007038:	f001 f9dc 	bl	80083f4 <VL53L0X_WrWord>
 800703c:	4603      	mov	r3, r0
 800703e:	f887 3027 	strb.w	r3, [r7, #39]	; 0x27
 8007042:	f997 3027 	ldrsb.w	r3, [r7, #39]	; 0x27
 8007046:	2b00      	cmp	r3, #0
 8007048:	d107      	bne.n	800705a <set_sequence_step_timeout+0x1d8>
 800704a:	68fb      	ldr	r3, [r7, #12]
 800704c:	687a      	ldr	r2, [r7, #4]
 800704e:	f8c3 20dc 	str.w	r2, [r3, #220]	; 0xdc
 8007052:	e002      	b.n	800705a <set_sequence_step_timeout+0x1d8>
 8007054:	23fc      	movs	r3, #252	; 0xfc
 8007056:	f887 3027 	strb.w	r3, [r7, #39]	; 0x27
 800705a:	f997 3027 	ldrsb.w	r3, [r7, #39]	; 0x27
 800705e:	4618      	mov	r0, r3
 8007060:	3728      	adds	r7, #40	; 0x28
 8007062:	46bd      	mov	sp, r7
 8007064:	bd80      	pop	{r7, pc}

08007066 <VL53L0X_get_vcsel_pulse_period>:
 8007066:	b580      	push	{r7, lr}
 8007068:	b086      	sub	sp, #24
 800706a:	af00      	add	r7, sp, #0
 800706c:	60f8      	str	r0, [r7, #12]
 800706e:	460b      	mov	r3, r1
 8007070:	607a      	str	r2, [r7, #4]
 8007072:	72fb      	strb	r3, [r7, #11]
 8007074:	2300      	movs	r3, #0
 8007076:	75fb      	strb	r3, [r7, #23]
 8007078:	7afb      	ldrb	r3, [r7, #11]
 800707a:	2b00      	cmp	r3, #0
 800707c:	d002      	beq.n	8007084 <VL53L0X_get_vcsel_pulse_period+0x1e>
 800707e:	2b01      	cmp	r3, #1
 8007080:	d00a      	beq.n	8007098 <VL53L0X_get_vcsel_pulse_period+0x32>
 8007082:	e013      	b.n	80070ac <VL53L0X_get_vcsel_pulse_period+0x46>
 8007084:	f107 0316 	add.w	r3, r7, #22
 8007088:	461a      	mov	r2, r3
 800708a:	2150      	movs	r1, #80	; 0x50
 800708c:	68f8      	ldr	r0, [r7, #12]
 800708e:	f001 fa0f 	bl	80084b0 <VL53L0X_RdByte>
 8007092:	4603      	mov	r3, r0
 8007094:	75fb      	strb	r3, [r7, #23]
 8007096:	e00b      	b.n	80070b0 <VL53L0X_get_vcsel_pulse_period+0x4a>
 8007098:	f107 0316 	add.w	r3, r7, #22
 800709c:	461a      	mov	r2, r3
 800709e:	2170      	movs	r1, #112	; 0x70
 80070a0:	68f8      	ldr	r0, [r7, #12]
 80070a2:	f001 fa05 	bl	80084b0 <VL53L0X_RdByte>
 80070a6:	4603      	mov	r3, r0
 80070a8:	75fb      	strb	r3, [r7, #23]
 80070aa:	e001      	b.n	80070b0 <VL53L0X_get_vcsel_pulse_period+0x4a>
 80070ac:	23fc      	movs	r3, #252	; 0xfc
 80070ae:	75fb      	strb	r3, [r7, #23]
 80070b0:	f997 3017 	ldrsb.w	r3, [r7, #23]
 80070b4:	2b00      	cmp	r3, #0
 80070b6:	d107      	bne.n	80070c8 <VL53L0X_get_vcsel_pulse_period+0x62>
 80070b8:	7dbb      	ldrb	r3, [r7, #22]
 80070ba:	4618      	mov	r0, r3
 80070bc:	f7fe fff6 	bl	80060ac <VL53L0X_decode_vcsel_period>
 80070c0:	4603      	mov	r3, r0
 80070c2:	461a      	mov	r2, r3
 80070c4:	687b      	ldr	r3, [r7, #4]
 80070c6:	701a      	strb	r2, [r3, #0]
 80070c8:	f997 3017 	ldrsb.w	r3, [r7, #23]
 80070cc:	4618      	mov	r0, r3
 80070ce:	3718      	adds	r7, #24
 80070d0:	46bd      	mov	sp, r7
 80070d2:	bd80      	pop	{r7, pc}

080070d4 <VL53L0X_set_measurement_timing_budget_micro_seconds>:
 80070d4:	b580      	push	{r7, lr}
 80070d6:	b092      	sub	sp, #72	; 0x48
 80070d8:	af00      	add	r7, sp, #0
 80070da:	6078      	str	r0, [r7, #4]
 80070dc:	6039      	str	r1, [r7, #0]
 80070de:	2300      	movs	r3, #0
 80070e0:	f887 3047 	strb.w	r3, [r7, #71]	; 0x47
 80070e4:	f44f 63fa 	mov.w	r3, #2000	; 0x7d0
 80070e8:	613b      	str	r3, [r7, #16]
 80070ea:	f240 7376 	movw	r3, #1910	; 0x776
 80070ee:	63fb      	str	r3, [r7, #60]	; 0x3c
 80070f0:	f44f 7370 	mov.w	r3, #960	; 0x3c0
 80070f4:	63bb      	str	r3, [r7, #56]	; 0x38
 80070f6:	f44f 7325 	mov.w	r3, #660	; 0x294
 80070fa:	637b      	str	r3, [r7, #52]	; 0x34
 80070fc:	f240 234e 	movw	r3, #590	; 0x24e
 8007100:	633b      	str	r3, [r7, #48]	; 0x30
 8007102:	f240 23b2 	movw	r3, #690	; 0x2b2
 8007106:	62fb      	str	r3, [r7, #44]	; 0x2c
 8007108:	f44f 7325 	mov.w	r3, #660	; 0x294
 800710c:	62bb      	str	r3, [r7, #40]	; 0x28
 800710e:	f240 2326 	movw	r3, #550	; 0x226
 8007112:	627b      	str	r3, [r7, #36]	; 0x24
 8007114:	2300      	movs	r3, #0
 8007116:	60fb      	str	r3, [r7, #12]
 8007118:	f644 6320 	movw	r3, #20000	; 0x4e20
 800711c:	623b      	str	r3, [r7, #32]
 800711e:	2300      	movs	r3, #0
 8007120:	61fb      	str	r3, [r7, #28]
 8007122:	683a      	ldr	r2, [r7, #0]
 8007124:	6a3b      	ldr	r3, [r7, #32]
 8007126:	429a      	cmp	r2, r3
 8007128:	d205      	bcs.n	8007136 <VL53L0X_set_measurement_timing_budget_micro_seconds+0x62>
 800712a:	23fc      	movs	r3, #252	; 0xfc
 800712c:	f887 3047 	strb.w	r3, [r7, #71]	; 0x47
 8007130:	f997 3047 	ldrsb.w	r3, [r7, #71]	; 0x47
 8007134:	e0aa      	b.n	800728c <VL53L0X_set_measurement_timing_budget_micro_seconds+0x1b8>
 8007136:	6bfa      	ldr	r2, [r7, #60]	; 0x3c
 8007138:	6bbb      	ldr	r3, [r7, #56]	; 0x38
 800713a:	4413      	add	r3, r2
 800713c:	683a      	ldr	r2, [r7, #0]
 800713e:	1ad3      	subs	r3, r2, r3
 8007140:	643b      	str	r3, [r7, #64]	; 0x40
 8007142:	f107 0314 	add.w	r3, r7, #20
 8007146:	4619      	mov	r1, r3
 8007148:	6878      	ldr	r0, [r7, #4]
 800714a:	f7fd f911 	bl	8004370 <VL53L0X_GetSequenceStepEnables>
 800714e:	4603      	mov	r3, r0
 8007150:	f887 3047 	strb.w	r3, [r7, #71]	; 0x47
 8007154:	f997 3047 	ldrsb.w	r3, [r7, #71]	; 0x47
 8007158:	2b00      	cmp	r3, #0
 800715a:	d15b      	bne.n	8007214 <VL53L0X_set_measurement_timing_budget_micro_seconds+0x140>
 800715c:	7d3b      	ldrb	r3, [r7, #20]
 800715e:	2b00      	cmp	r3, #0
 8007160:	d105      	bne.n	800716e <VL53L0X_set_measurement_timing_budget_micro_seconds+0x9a>
 8007162:	7d7b      	ldrb	r3, [r7, #21]
 8007164:	2b00      	cmp	r3, #0
 8007166:	d102      	bne.n	800716e <VL53L0X_set_measurement_timing_budget_micro_seconds+0x9a>
 8007168:	7dbb      	ldrb	r3, [r7, #22]
 800716a:	2b00      	cmp	r3, #0
 800716c:	d052      	beq.n	8007214 <VL53L0X_set_measurement_timing_budget_micro_seconds+0x140>
 800716e:	f107 0310 	add.w	r3, r7, #16
 8007172:	461a      	mov	r2, r3
 8007174:	2102      	movs	r1, #2
 8007176:	6878      	ldr	r0, [r7, #4]
 8007178:	f7ff fda2 	bl	8006cc0 <get_sequence_step_timeout>
 800717c:	4603      	mov	r3, r0
 800717e:	f887 3047 	strb.w	r3, [r7, #71]	; 0x47
 8007182:	f997 3047 	ldrsb.w	r3, [r7, #71]	; 0x47
 8007186:	2b00      	cmp	r3, #0
 8007188:	d002      	beq.n	8007190 <VL53L0X_set_measurement_timing_budget_micro_seconds+0xbc>
 800718a:	f997 3047 	ldrsb.w	r3, [r7, #71]	; 0x47
 800718e:	e07d      	b.n	800728c <VL53L0X_set_measurement_timing_budget_micro_seconds+0x1b8>
 8007190:	7d3b      	ldrb	r3, [r7, #20]
 8007192:	2b00      	cmp	r3, #0
 8007194:	d00f      	beq.n	80071b6 <VL53L0X_set_measurement_timing_budget_micro_seconds+0xe2>
 8007196:	693b      	ldr	r3, [r7, #16]
 8007198:	6b3a      	ldr	r2, [r7, #48]	; 0x30
 800719a:	4413      	add	r3, r2
 800719c:	61fb      	str	r3, [r7, #28]
 800719e:	69fa      	ldr	r2, [r7, #28]
 80071a0:	6c3b      	ldr	r3, [r7, #64]	; 0x40
 80071a2:	429a      	cmp	r2, r3
 80071a4:	d204      	bcs.n	80071b0 <VL53L0X_set_measurement_timing_budget_micro_seconds+0xdc>
 80071a6:	6c3a      	ldr	r2, [r7, #64]	; 0x40
 80071a8:	69fb      	ldr	r3, [r7, #28]
 80071aa:	1ad3      	subs	r3, r2, r3
 80071ac:	643b      	str	r3, [r7, #64]	; 0x40
 80071ae:	e002      	b.n	80071b6 <VL53L0X_set_measurement_timing_budget_micro_seconds+0xe2>
 80071b0:	23fc      	movs	r3, #252	; 0xfc
 80071b2:	f887 3047 	strb.w	r3, [r7, #71]	; 0x47
 80071b6:	f997 3047 	ldrsb.w	r3, [r7, #71]	; 0x47
 80071ba:	2b00      	cmp	r3, #0
 80071bc:	d002      	beq.n	80071c4 <VL53L0X_set_measurement_timing_budget_micro_seconds+0xf0>
 80071be:	f997 3047 	ldrsb.w	r3, [r7, #71]	; 0x47
 80071c2:	e063      	b.n	800728c <VL53L0X_set_measurement_timing_budget_micro_seconds+0x1b8>
 80071c4:	7dbb      	ldrb	r3, [r7, #22]
 80071c6:	2b00      	cmp	r3, #0
 80071c8:	d011      	beq.n	80071ee <VL53L0X_set_measurement_timing_budget_micro_seconds+0x11a>
 80071ca:	693a      	ldr	r2, [r7, #16]
 80071cc:	6afb      	ldr	r3, [r7, #44]	; 0x2c
 80071ce:	4413      	add	r3, r2
 80071d0:	005b      	lsls	r3, r3, #1
 80071d2:	61fb      	str	r3, [r7, #28]
 80071d4:	69fa      	ldr	r2, [r7, #28]
 80071d6:	6c3b      	ldr	r3, [r7, #64]	; 0x40
 80071d8:	429a      	cmp	r2, r3
 80071da:	d204      	bcs.n	80071e6 <VL53L0X_set_measurement_timing_budget_micro_seconds+0x112>
 80071dc:	6c3a      	ldr	r2, [r7, #64]	; 0x40
 80071de:	69fb      	ldr	r3, [r7, #28]
 80071e0:	1ad3      	subs	r3, r2, r3
 80071e2:	643b      	str	r3, [r7, #64]	; 0x40
 80071e4:	e016      	b.n	8007214 <VL53L0X_set_measurement_timing_budget_micro_seconds+0x140>
 80071e6:	23fc      	movs	r3, #252	; 0xfc
 80071e8:	f887 3047 	strb.w	r3, [r7, #71]	; 0x47
 80071ec:	e012      	b.n	8007214 <VL53L0X_set_measurement_timing_budget_micro_seconds+0x140>
 80071ee:	7d7b      	ldrb	r3, [r7, #21]
 80071f0:	2b00      	cmp	r3, #0
 80071f2:	d00f      	beq.n	8007214 <VL53L0X_set_measurement_timing_budget_micro_seconds+0x140>
 80071f4:	693b      	ldr	r3, [r7, #16]
 80071f6:	6b7a      	ldr	r2, [r7, #52]	; 0x34
 80071f8:	4413      	add	r3, r2
 80071fa:	61fb      	str	r3, [r7, #28]
 80071fc:	69fa      	ldr	r2, [r7, #28]
 80071fe:	6c3b      	ldr	r3, [r7, #64]	; 0x40
 8007200:	429a      	cmp	r2, r3
 8007202:	d204      	bcs.n	800720e <VL53L0X_set_measurement_timing_budget_micro_seconds+0x13a>
 8007204:	6c3a      	ldr	r2, [r7, #64]	; 0x40
 8007206:	69fb      	ldr	r3, [r7, #28]
 8007208:	1ad3      	subs	r3, r2, r3
 800720a:	643b      	str	r3, [r7, #64]	; 0x40
 800720c:	e002      	b.n	8007214 <VL53L0X_set_measurement_timing_budget_micro_seconds+0x140>
 800720e:	23fc      	movs	r3, #252	; 0xfc
 8007210:	f887 3047 	strb.w	r3, [r7, #71]	; 0x47
 8007214:	f997 3047 	ldrsb.w	r3, [r7, #71]	; 0x47
 8007218:	2b00      	cmp	r3, #0
 800721a:	d002      	beq.n	8007222 <VL53L0X_set_measurement_timing_budget_micro_seconds+0x14e>
 800721c:	f997 3047 	ldrsb.w	r3, [r7, #71]	; 0x47
 8007220:	e034      	b.n	800728c <VL53L0X_set_measurement_timing_budget_micro_seconds+0x1b8>
 8007222:	7dfb      	ldrb	r3, [r7, #23]
 8007224:	2b00      	cmp	r3, #0
 8007226:	d019      	beq.n	800725c <VL53L0X_set_measurement_timing_budget_micro_seconds+0x188>
 8007228:	f107 030c 	add.w	r3, r7, #12
 800722c:	461a      	mov	r2, r3
 800722e:	2103      	movs	r1, #3
 8007230:	6878      	ldr	r0, [r7, #4]
 8007232:	f7ff fd45 	bl	8006cc0 <get_sequence_step_timeout>
 8007236:	4603      	mov	r3, r0
 8007238:	f887 3047 	strb.w	r3, [r7, #71]	; 0x47
 800723c:	68fb      	ldr	r3, [r7, #12]
 800723e:	6aba      	ldr	r2, [r7, #40]	; 0x28
 8007240:	4413      	add	r3, r2
 8007242:	61fb      	str	r3, [r7, #28]
 8007244:	69fa      	ldr	r2, [r7, #28]
 8007246:	6c3b      	ldr	r3, [r7, #64]	; 0x40
 8007248:	429a      	cmp	r2, r3
 800724a:	d204      	bcs.n	8007256 <VL53L0X_set_measurement_timing_budget_micro_seconds+0x182>
 800724c:	6c3a      	ldr	r2, [r7, #64]	; 0x40
 800724e:	69fb      	ldr	r3, [r7, #28]
 8007250:	1ad3      	subs	r3, r2, r3
 8007252:	643b      	str	r3, [r7, #64]	; 0x40
 8007254:	e002      	b.n	800725c <VL53L0X_set_measurement_timing_budget_micro_seconds+0x188>
 8007256:	23fc      	movs	r3, #252	; 0xfc
 8007258:	f887 3047 	strb.w	r3, [r7, #71]	; 0x47
 800725c:	f997 3047 	ldrsb.w	r3, [r7, #71]	; 0x47
 8007260:	2b00      	cmp	r3, #0
 8007262:	d111      	bne.n	8007288 <VL53L0X_set_measurement_timing_budget_micro_seconds+0x1b4>
 8007264:	7e3b      	ldrb	r3, [r7, #24]
 8007266:	2b00      	cmp	r3, #0
 8007268:	d00e      	beq.n	8007288 <VL53L0X_set_measurement_timing_budget_micro_seconds+0x1b4>
 800726a:	6c3a      	ldr	r2, [r7, #64]	; 0x40
 800726c:	6a7b      	ldr	r3, [r7, #36]	; 0x24
 800726e:	1ad3      	subs	r3, r2, r3
 8007270:	643b      	str	r3, [r7, #64]	; 0x40
 8007272:	6c3a      	ldr	r2, [r7, #64]	; 0x40
 8007274:	2104      	movs	r1, #4
 8007276:	6878      	ldr	r0, [r7, #4]
 8007278:	f7ff fe03 	bl	8006e82 <set_sequence_step_timeout>
 800727c:	4603      	mov	r3, r0
 800727e:	f887 3047 	strb.w	r3, [r7, #71]	; 0x47
 8007282:	687b      	ldr	r3, [r7, #4]
 8007284:	683a      	ldr	r2, [r7, #0]
 8007286:	615a      	str	r2, [r3, #20]
 8007288:	f997 3047 	ldrsb.w	r3, [r7, #71]	; 0x47
 800728c:	4618      	mov	r0, r3
 800728e:	3748      	adds	r7, #72	; 0x48
 8007290:	46bd      	mov	sp, r7
 8007292:	bd80      	pop	{r7, pc}

08007294 <VL53L0X_get_measurement_timing_budget_micro_seconds>:
 8007294:	b580      	push	{r7, lr}
 8007296:	b090      	sub	sp, #64	; 0x40
 8007298:	af00      	add	r7, sp, #0
 800729a:	6078      	str	r0, [r7, #4]
 800729c:	6039      	str	r1, [r7, #0]
 800729e:	2300      	movs	r3, #0
 80072a0:	f887 303f 	strb.w	r3, [r7, #63]	; 0x3f
 80072a4:	f44f 63fa 	mov.w	r3, #2000	; 0x7d0
 80072a8:	613b      	str	r3, [r7, #16]
 80072aa:	f240 7376 	movw	r3, #1910	; 0x776
 80072ae:	63bb      	str	r3, [r7, #56]	; 0x38
 80072b0:	f44f 7370 	mov.w	r3, #960	; 0x3c0
 80072b4:	637b      	str	r3, [r7, #52]	; 0x34
 80072b6:	f44f 7325 	mov.w	r3, #660	; 0x294
 80072ba:	633b      	str	r3, [r7, #48]	; 0x30
 80072bc:	f240 234e 	movw	r3, #590	; 0x24e
 80072c0:	62fb      	str	r3, [r7, #44]	; 0x2c
 80072c2:	f240 23b2 	movw	r3, #690	; 0x2b2
 80072c6:	62bb      	str	r3, [r7, #40]	; 0x28
 80072c8:	f44f 7325 	mov.w	r3, #660	; 0x294
 80072cc:	627b      	str	r3, [r7, #36]	; 0x24
 80072ce:	f240 2326 	movw	r3, #550	; 0x226
 80072d2:	623b      	str	r3, [r7, #32]
 80072d4:	2300      	movs	r3, #0
 80072d6:	60fb      	str	r3, [r7, #12]
 80072d8:	6bba      	ldr	r2, [r7, #56]	; 0x38
 80072da:	6b7b      	ldr	r3, [r7, #52]	; 0x34
 80072dc:	441a      	add	r2, r3
 80072de:	683b      	ldr	r3, [r7, #0]
 80072e0:	601a      	str	r2, [r3, #0]
 80072e2:	f107 0318 	add.w	r3, r7, #24
 80072e6:	4619      	mov	r1, r3
 80072e8:	6878      	ldr	r0, [r7, #4]
 80072ea:	f7fd f841 	bl	8004370 <VL53L0X_GetSequenceStepEnables>
 80072ee:	4603      	mov	r3, r0
 80072f0:	f887 303f 	strb.w	r3, [r7, #63]	; 0x3f
 80072f4:	f997 303f 	ldrsb.w	r3, [r7, #63]	; 0x3f
 80072f8:	2b00      	cmp	r3, #0
 80072fa:	d002      	beq.n	8007302 <VL53L0X_get_measurement_timing_budget_micro_seconds+0x6e>
 80072fc:	f997 303f 	ldrsb.w	r3, [r7, #63]	; 0x3f
 8007300:	e075      	b.n	80073ee <VL53L0X_get_measurement_timing_budget_micro_seconds+0x15a>
 8007302:	7e3b      	ldrb	r3, [r7, #24]
 8007304:	2b00      	cmp	r3, #0
 8007306:	d105      	bne.n	8007314 <VL53L0X_get_measurement_timing_budget_micro_seconds+0x80>
 8007308:	7e7b      	ldrb	r3, [r7, #25]
 800730a:	2b00      	cmp	r3, #0
 800730c:	d102      	bne.n	8007314 <VL53L0X_get_measurement_timing_budget_micro_seconds+0x80>
 800730e:	7ebb      	ldrb	r3, [r7, #26]
 8007310:	2b00      	cmp	r3, #0
 8007312:	d030      	beq.n	8007376 <VL53L0X_get_measurement_timing_budget_micro_seconds+0xe2>
 8007314:	f107 0310 	add.w	r3, r7, #16
 8007318:	461a      	mov	r2, r3
 800731a:	2102      	movs	r1, #2
 800731c:	6878      	ldr	r0, [r7, #4]
 800731e:	f7ff fccf 	bl	8006cc0 <get_sequence_step_timeout>
 8007322:	4603      	mov	r3, r0
 8007324:	f887 303f 	strb.w	r3, [r7, #63]	; 0x3f
 8007328:	f997 303f 	ldrsb.w	r3, [r7, #63]	; 0x3f
 800732c:	2b00      	cmp	r3, #0
 800732e:	d122      	bne.n	8007376 <VL53L0X_get_measurement_timing_budget_micro_seconds+0xe2>
 8007330:	7e3b      	ldrb	r3, [r7, #24]
 8007332:	2b00      	cmp	r3, #0
 8007334:	d007      	beq.n	8007346 <VL53L0X_get_measurement_timing_budget_micro_seconds+0xb2>
 8007336:	683b      	ldr	r3, [r7, #0]
 8007338:	681a      	ldr	r2, [r3, #0]
 800733a:	6939      	ldr	r1, [r7, #16]
 800733c:	6afb      	ldr	r3, [r7, #44]	; 0x2c
 800733e:	440b      	add	r3, r1
 8007340:	441a      	add	r2, r3
 8007342:	683b      	ldr	r3, [r7, #0]
 8007344:	601a      	str	r2, [r3, #0]
 8007346:	7ebb      	ldrb	r3, [r7, #26]
 8007348:	2b00      	cmp	r3, #0
 800734a:	d009      	beq.n	8007360 <VL53L0X_get_measurement_timing_budget_micro_seconds+0xcc>
 800734c:	683b      	ldr	r3, [r7, #0]
 800734e:	681a      	ldr	r2, [r3, #0]
 8007350:	6939      	ldr	r1, [r7, #16]
 8007352:	6abb      	ldr	r3, [r7, #40]	; 0x28
 8007354:	440b      	add	r3, r1
 8007356:	005b      	lsls	r3, r3, #1
 8007358:	441a      	add	r2, r3
 800735a:	683b      	ldr	r3, [r7, #0]
 800735c:	601a      	str	r2, [r3, #0]
 800735e:	e00a      	b.n	8007376 <VL53L0X_get_measurement_timing_budget_micro_seconds+0xe2>
 8007360:	7e7b      	ldrb	r3, [r7, #25]
 8007362:	2b00      	cmp	r3, #0
 8007364:	d007      	beq.n	8007376 <VL53L0X_get_measurement_timing_budget_micro_seconds+0xe2>
 8007366:	683b      	ldr	r3, [r7, #0]
 8007368:	681a      	ldr	r2, [r3, #0]
 800736a:	6939      	ldr	r1, [r7, #16]
 800736c:	6b3b      	ldr	r3, [r7, #48]	; 0x30
 800736e:	440b      	add	r3, r1
 8007370:	441a      	add	r2, r3
 8007372:	683b      	ldr	r3, [r7, #0]
 8007374:	601a      	str	r2, [r3, #0]
 8007376:	f997 303f 	ldrsb.w	r3, [r7, #63]	; 0x3f
 800737a:	2b00      	cmp	r3, #0
 800737c:	d114      	bne.n	80073a8 <VL53L0X_get_measurement_timing_budget_micro_seconds+0x114>
 800737e:	7efb      	ldrb	r3, [r7, #27]
 8007380:	2b00      	cmp	r3, #0
 8007382:	d011      	beq.n	80073a8 <VL53L0X_get_measurement_timing_budget_micro_seconds+0x114>
 8007384:	f107 030c 	add.w	r3, r7, #12
 8007388:	461a      	mov	r2, r3
 800738a:	2103      	movs	r1, #3
 800738c:	6878      	ldr	r0, [r7, #4]
 800738e:	f7ff fc97 	bl	8006cc0 <get_sequence_step_timeout>
 8007392:	4603      	mov	r3, r0
 8007394:	f887 303f 	strb.w	r3, [r7, #63]	; 0x3f
 8007398:	683b      	ldr	r3, [r7, #0]
 800739a:	681a      	ldr	r2, [r3, #0]
 800739c:	68f9      	ldr	r1, [r7, #12]
 800739e:	6a7b      	ldr	r3, [r7, #36]	; 0x24
 80073a0:	440b      	add	r3, r1
 80073a2:	441a      	add	r2, r3
 80073a4:	683b      	ldr	r3, [r7, #0]
 80073a6:	601a      	str	r2, [r3, #0]
 80073a8:	f997 303f 	ldrsb.w	r3, [r7, #63]	; 0x3f
 80073ac:	2b00      	cmp	r3, #0
 80073ae:	d114      	bne.n	80073da <VL53L0X_get_measurement_timing_budget_micro_seconds+0x146>
 80073b0:	7f3b      	ldrb	r3, [r7, #28]
 80073b2:	2b00      	cmp	r3, #0
 80073b4:	d011      	beq.n	80073da <VL53L0X_get_measurement_timing_budget_micro_seconds+0x146>
 80073b6:	f107 0314 	add.w	r3, r7, #20
 80073ba:	461a      	mov	r2, r3
 80073bc:	2104      	movs	r1, #4
 80073be:	6878      	ldr	r0, [r7, #4]
 80073c0:	f7ff fc7e 	bl	8006cc0 <get_sequence_step_timeout>
 80073c4:	4603      	mov	r3, r0
 80073c6:	f887 303f 	strb.w	r3, [r7, #63]	; 0x3f
 80073ca:	683b      	ldr	r3, [r7, #0]
 80073cc:	681a      	ldr	r2, [r3, #0]
 80073ce:	6979      	ldr	r1, [r7, #20]
 80073d0:	6a3b      	ldr	r3, [r7, #32]
 80073d2:	440b      	add	r3, r1
 80073d4:	441a      	add	r2, r3
 80073d6:	683b      	ldr	r3, [r7, #0]
 80073d8:	601a      	str	r2, [r3, #0]
 80073da:	f997 303f 	ldrsb.w	r3, [r7, #63]	; 0x3f
 80073de:	2b00      	cmp	r3, #0
 80073e0:	d103      	bne.n	80073ea <VL53L0X_get_measurement_timing_budget_micro_seconds+0x156>
 80073e2:	683b      	ldr	r3, [r7, #0]
 80073e4:	681a      	ldr	r2, [r3, #0]
 80073e6:	687b      	ldr	r3, [r7, #4]
 80073e8:	615a      	str	r2, [r3, #20]
 80073ea:	f997 303f 	ldrsb.w	r3, [r7, #63]	; 0x3f
 80073ee:	4618      	mov	r0, r3
 80073f0:	3740      	adds	r7, #64	; 0x40
 80073f2:	46bd      	mov	sp, r7
 80073f4:	bd80      	pop	{r7, pc}
	...

080073f8 <VL53L0X_load_tuning_settings>:
 80073f8:	b580      	push	{r7, lr}
 80073fa:	b088      	sub	sp, #32
 80073fc:	af00      	add	r7, sp, #0
 80073fe:	6078      	str	r0, [r7, #4]
 8007400:	6039      	str	r1, [r7, #0]
 8007402:	2300      	movs	r3, #0
 8007404:	77fb      	strb	r3, [r7, #31]
 8007406:	2300      	movs	r3, #0
 8007408:	617b      	str	r3, [r7, #20]
 800740a:	e0c6      	b.n	800759a <VL53L0X_load_tuning_settings+0x1a2>
 800740c:	697b      	ldr	r3, [r7, #20]
 800740e:	683a      	ldr	r2, [r7, #0]
 8007410:	4413      	add	r3, r2
 8007412:	781b      	ldrb	r3, [r3, #0]
 8007414:	74fb      	strb	r3, [r7, #19]
 8007416:	697b      	ldr	r3, [r7, #20]
 8007418:	3301      	adds	r3, #1
 800741a:	617b      	str	r3, [r7, #20]
 800741c:	7cfb      	ldrb	r3, [r7, #19]
 800741e:	2bff      	cmp	r3, #255	; 0xff
 8007420:	f040 808d 	bne.w	800753e <VL53L0X_load_tuning_settings+0x146>
 8007424:	697b      	ldr	r3, [r7, #20]
 8007426:	683a      	ldr	r2, [r7, #0]
 8007428:	4413      	add	r3, r2
 800742a:	781b      	ldrb	r3, [r3, #0]
 800742c:	747b      	strb	r3, [r7, #17]
 800742e:	697b      	ldr	r3, [r7, #20]
 8007430:	3301      	adds	r3, #1
 8007432:	617b      	str	r3, [r7, #20]
 8007434:	7c7b      	ldrb	r3, [r7, #17]
 8007436:	2b03      	cmp	r3, #3
 8007438:	d87e      	bhi.n	8007538 <VL53L0X_load_tuning_settings+0x140>
 800743a:	a201      	add	r2, pc, #4	; (adr r2, 8007440 <VL53L0X_load_tuning_settings+0x48>)
 800743c:	f852 f023 	ldr.w	pc, [r2, r3, lsl #2]
 8007440:	08007451 	.word	0x08007451
 8007444:	0800748b 	.word	0x0800748b
 8007448:	080074c5 	.word	0x080074c5
 800744c:	080074ff 	.word	0x080074ff
 8007450:	697b      	ldr	r3, [r7, #20]
 8007452:	683a      	ldr	r2, [r7, #0]
 8007454:	4413      	add	r3, r2
 8007456:	781b      	ldrb	r3, [r3, #0]
 8007458:	743b      	strb	r3, [r7, #16]
 800745a:	697b      	ldr	r3, [r7, #20]
 800745c:	3301      	adds	r3, #1
 800745e:	617b      	str	r3, [r7, #20]
 8007460:	697b      	ldr	r3, [r7, #20]
 8007462:	683a      	ldr	r2, [r7, #0]
 8007464:	4413      	add	r3, r2
 8007466:	781b      	ldrb	r3, [r3, #0]
 8007468:	73fb      	strb	r3, [r7, #15]
 800746a:	697b      	ldr	r3, [r7, #20]
 800746c:	3301      	adds	r3, #1
 800746e:	617b      	str	r3, [r7, #20]
 8007470:	7c3b      	ldrb	r3, [r7, #16]
 8007472:	b29b      	uxth	r3, r3
 8007474:	021b      	lsls	r3, r3, #8
 8007476:	b29a      	uxth	r2, r3
 8007478:	7bfb      	ldrb	r3, [r7, #15]
 800747a:	b29b      	uxth	r3, r3
 800747c:	4413      	add	r3, r2
 800747e:	81bb      	strh	r3, [r7, #12]
 8007480:	687b      	ldr	r3, [r7, #4]
 8007482:	89ba      	ldrh	r2, [r7, #12]
 8007484:	f8a3 2134 	strh.w	r2, [r3, #308]	; 0x134
 8007488:	e087      	b.n	800759a <VL53L0X_load_tuning_settings+0x1a2>
 800748a:	697b      	ldr	r3, [r7, #20]
 800748c:	683a      	ldr	r2, [r7, #0]
 800748e:	4413      	add	r3, r2
 8007490:	781b      	ldrb	r3, [r3, #0]
 8007492:	743b      	strb	r3, [r7, #16]
 8007494:	697b      	ldr	r3, [r7, #20]
 8007496:	3301      	adds	r3, #1
 8007498:	617b      	str	r3, [r7, #20]
 800749a:	697b      	ldr	r3, [r7, #20]
 800749c:	683a      	ldr	r2, [r7, #0]
 800749e:	4413      	add	r3, r2
 80074a0:	781b      	ldrb	r3, [r3, #0]
 80074a2:	73fb      	strb	r3, [r7, #15]
 80074a4:	697b      	ldr	r3, [r7, #20]
 80074a6:	3301      	adds	r3, #1
 80074a8:	617b      	str	r3, [r7, #20]
 80074aa:	7c3b      	ldrb	r3, [r7, #16]
 80074ac:	b29b      	uxth	r3, r3
 80074ae:	021b      	lsls	r3, r3, #8
 80074b0:	b29a      	uxth	r2, r3
 80074b2:	7bfb      	ldrb	r3, [r7, #15]
 80074b4:	b29b      	uxth	r3, r3
 80074b6:	4413      	add	r3, r2
 80074b8:	81bb      	strh	r3, [r7, #12]
 80074ba:	687b      	ldr	r3, [r7, #4]
 80074bc:	89ba      	ldrh	r2, [r7, #12]
 80074be:	f8a3 2136 	strh.w	r2, [r3, #310]	; 0x136
 80074c2:	e06a      	b.n	800759a <VL53L0X_load_tuning_settings+0x1a2>
 80074c4:	697b      	ldr	r3, [r7, #20]
 80074c6:	683a      	ldr	r2, [r7, #0]
 80074c8:	4413      	add	r3, r2
 80074ca:	781b      	ldrb	r3, [r3, #0]
 80074cc:	743b      	strb	r3, [r7, #16]
 80074ce:	697b      	ldr	r3, [r7, #20]
 80074d0:	3301      	adds	r3, #1
 80074d2:	617b      	str	r3, [r7, #20]
 80074d4:	697b      	ldr	r3, [r7, #20]
 80074d6:	683a      	ldr	r2, [r7, #0]
 80074d8:	4413      	add	r3, r2
 80074da:	781b      	ldrb	r3, [r3, #0]
 80074dc:	73fb      	strb	r3, [r7, #15]
 80074de:	697b      	ldr	r3, [r7, #20]
 80074e0:	3301      	adds	r3, #1
 80074e2:	617b      	str	r3, [r7, #20]
 80074e4:	7c3b      	ldrb	r3, [r7, #16]
 80074e6:	b29b      	uxth	r3, r3
 80074e8:	021b      	lsls	r3, r3, #8
 80074ea:	b29a      	uxth	r2, r3
 80074ec:	7bfb      	ldrb	r3, [r7, #15]
 80074ee:	b29b      	uxth	r3, r3
 80074f0:	4413      	add	r3, r2
 80074f2:	81bb      	strh	r3, [r7, #12]
 80074f4:	687b      	ldr	r3, [r7, #4]
 80074f6:	89ba      	ldrh	r2, [r7, #12]
 80074f8:	f8a3 2138 	strh.w	r2, [r3, #312]	; 0x138
 80074fc:	e04d      	b.n	800759a <VL53L0X_load_tuning_settings+0x1a2>
 80074fe:	697b      	ldr	r3, [r7, #20]
 8007500:	683a      	ldr	r2, [r7, #0]
 8007502:	4413      	add	r3, r2
 8007504:	781b      	ldrb	r3, [r3, #0]
 8007506:	743b      	strb	r3, [r7, #16]
 8007508:	697b      	ldr	r3, [r7, #20]
 800750a:	3301      	adds	r3, #1
 800750c:	617b      	str	r3, [r7, #20]
 800750e:	697b      	ldr	r3, [r7, #20]
 8007510:	683a      	ldr	r2, [r7, #0]
 8007512:	4413      	add	r3, r2
 8007514:	781b      	ldrb	r3, [r3, #0]
 8007516:	73fb      	strb	r3, [r7, #15]
 8007518:	697b      	ldr	r3, [r7, #20]
 800751a:	3301      	adds	r3, #1
 800751c:	617b      	str	r3, [r7, #20]
 800751e:	7c3b      	ldrb	r3, [r7, #16]
 8007520:	b29b      	uxth	r3, r3
 8007522:	021b      	lsls	r3, r3, #8
 8007524:	b29a      	uxth	r2, r3
 8007526:	7bfb      	ldrb	r3, [r7, #15]
 8007528:	b29b      	uxth	r3, r3
 800752a:	4413      	add	r3, r2
 800752c:	81bb      	strh	r3, [r7, #12]
 800752e:	687b      	ldr	r3, [r7, #4]
 8007530:	89ba      	ldrh	r2, [r7, #12]
 8007532:	f8a3 213c 	strh.w	r2, [r3, #316]	; 0x13c
 8007536:	e030      	b.n	800759a <VL53L0X_load_tuning_settings+0x1a2>
 8007538:	23fc      	movs	r3, #252	; 0xfc
 800753a:	77fb      	strb	r3, [r7, #31]
 800753c:	e02d      	b.n	800759a <VL53L0X_load_tuning_settings+0x1a2>
 800753e:	7cfb      	ldrb	r3, [r7, #19]
 8007540:	2b04      	cmp	r3, #4
 8007542:	d828      	bhi.n	8007596 <VL53L0X_load_tuning_settings+0x19e>
 8007544:	697b      	ldr	r3, [r7, #20]
 8007546:	683a      	ldr	r2, [r7, #0]
 8007548:	4413      	add	r3, r2
 800754a:	781b      	ldrb	r3, [r3, #0]
 800754c:	74bb      	strb	r3, [r7, #18]
 800754e:	697b      	ldr	r3, [r7, #20]
 8007550:	3301      	adds	r3, #1
 8007552:	617b      	str	r3, [r7, #20]
 8007554:	2300      	movs	r3, #0
 8007556:	61bb      	str	r3, [r7, #24]
 8007558:	e00f      	b.n	800757a <VL53L0X_load_tuning_settings+0x182>
 800755a:	697b      	ldr	r3, [r7, #20]
 800755c:	683a      	ldr	r2, [r7, #0]
 800755e:	4413      	add	r3, r2
 8007560:	7819      	ldrb	r1, [r3, #0]
 8007562:	f107 0208 	add.w	r2, r7, #8
 8007566:	69bb      	ldr	r3, [r7, #24]
 8007568:	4413      	add	r3, r2
 800756a:	460a      	mov	r2, r1
 800756c:	701a      	strb	r2, [r3, #0]
 800756e:	697b      	ldr	r3, [r7, #20]
 8007570:	3301      	adds	r3, #1
 8007572:	617b      	str	r3, [r7, #20]
 8007574:	69bb      	ldr	r3, [r7, #24]
 8007576:	3301      	adds	r3, #1
 8007578:	61bb      	str	r3, [r7, #24]
 800757a:	7cfb      	ldrb	r3, [r7, #19]
 800757c:	69ba      	ldr	r2, [r7, #24]
 800757e:	429a      	cmp	r2, r3
 8007580:	dbeb      	blt.n	800755a <VL53L0X_load_tuning_settings+0x162>
 8007582:	7cfb      	ldrb	r3, [r7, #19]
 8007584:	f107 0208 	add.w	r2, r7, #8
 8007588:	7cb9      	ldrb	r1, [r7, #18]
 800758a:	6878      	ldr	r0, [r7, #4]
 800758c:	f000 feb2 	bl	80082f4 <VL53L0X_WriteMulti>
 8007590:	4603      	mov	r3, r0
 8007592:	77fb      	strb	r3, [r7, #31]
 8007594:	e001      	b.n	800759a <VL53L0X_load_tuning_settings+0x1a2>
 8007596:	23fc      	movs	r3, #252	; 0xfc
 8007598:	77fb      	strb	r3, [r7, #31]
 800759a:	697b      	ldr	r3, [r7, #20]
 800759c:	683a      	ldr	r2, [r7, #0]
 800759e:	4413      	add	r3, r2
 80075a0:	781b      	ldrb	r3, [r3, #0]
 80075a2:	2b00      	cmp	r3, #0
 80075a4:	d004      	beq.n	80075b0 <VL53L0X_load_tuning_settings+0x1b8>
 80075a6:	f997 301f 	ldrsb.w	r3, [r7, #31]
 80075aa:	2b00      	cmp	r3, #0
 80075ac:	f43f af2e 	beq.w	800740c <VL53L0X_load_tuning_settings+0x14>
 80075b0:	f997 301f 	ldrsb.w	r3, [r7, #31]
 80075b4:	4618      	mov	r0, r3
 80075b6:	3720      	adds	r7, #32
 80075b8:	46bd      	mov	sp, r7
 80075ba:	bd80      	pop	{r7, pc}

080075bc <VL53L0X_get_total_xtalk_rate>:
 80075bc:	b580      	push	{r7, lr}
 80075be:	b088      	sub	sp, #32
 80075c0:	af00      	add	r7, sp, #0
 80075c2:	60f8      	str	r0, [r7, #12]
 80075c4:	60b9      	str	r1, [r7, #8]
 80075c6:	607a      	str	r2, [r7, #4]
 80075c8:	2300      	movs	r3, #0
 80075ca:	77fb      	strb	r3, [r7, #31]
 80075cc:	687b      	ldr	r3, [r7, #4]
 80075ce:	2200      	movs	r2, #0
 80075d0:	601a      	str	r2, [r3, #0]
 80075d2:	f107 0313 	add.w	r3, r7, #19
 80075d6:	4619      	mov	r1, r3
 80075d8:	68f8      	ldr	r0, [r7, #12]
 80075da:	f7fc ff55 	bl	8004488 <VL53L0X_GetXTalkCompensationEnable>
 80075de:	4603      	mov	r3, r0
 80075e0:	77fb      	strb	r3, [r7, #31]
 80075e2:	f997 301f 	ldrsb.w	r3, [r7, #31]
 80075e6:	2b00      	cmp	r3, #0
 80075e8:	d111      	bne.n	800760e <VL53L0X_get_total_xtalk_rate+0x52>
 80075ea:	7cfb      	ldrb	r3, [r7, #19]
 80075ec:	2b00      	cmp	r3, #0
 80075ee:	d00e      	beq.n	800760e <VL53L0X_get_total_xtalk_rate+0x52>
 80075f0:	68fb      	ldr	r3, [r7, #12]
 80075f2:	6a1b      	ldr	r3, [r3, #32]
 80075f4:	61bb      	str	r3, [r7, #24]
 80075f6:	68bb      	ldr	r3, [r7, #8]
 80075f8:	8a9b      	ldrh	r3, [r3, #20]
 80075fa:	461a      	mov	r2, r3
 80075fc:	69bb      	ldr	r3, [r7, #24]
 80075fe:	fb02 f303 	mul.w	r3, r2, r3
 8007602:	617b      	str	r3, [r7, #20]
 8007604:	697b      	ldr	r3, [r7, #20]
 8007606:	3380      	adds	r3, #128	; 0x80
 8007608:	0a1a      	lsrs	r2, r3, #8
 800760a:	687b      	ldr	r3, [r7, #4]
 800760c:	601a      	str	r2, [r3, #0]
 800760e:	f997 301f 	ldrsb.w	r3, [r7, #31]
 8007612:	4618      	mov	r0, r3
 8007614:	3720      	adds	r7, #32
 8007616:	46bd      	mov	sp, r7
 8007618:	bd80      	pop	{r7, pc}

0800761a <VL53L0X_get_total_signal_rate>:
 800761a:	b580      	push	{r7, lr}
 800761c:	b086      	sub	sp, #24
 800761e:	af00      	add	r7, sp, #0
 8007620:	60f8      	str	r0, [r7, #12]
 8007622:	60b9      	str	r1, [r7, #8]
 8007624:	607a      	str	r2, [r7, #4]
 8007626:	2300      	movs	r3, #0
 8007628:	75fb      	strb	r3, [r7, #23]
 800762a:	68bb      	ldr	r3, [r7, #8]
 800762c:	68da      	ldr	r2, [r3, #12]
 800762e:	687b      	ldr	r3, [r7, #4]
 8007630:	601a      	str	r2, [r3, #0]
 8007632:	f107 0310 	add.w	r3, r7, #16
 8007636:	461a      	mov	r2, r3
 8007638:	68b9      	ldr	r1, [r7, #8]
 800763a:	68f8      	ldr	r0, [r7, #12]
 800763c:	f7ff ffbe 	bl	80075bc <VL53L0X_get_total_xtalk_rate>
 8007640:	4603      	mov	r3, r0
 8007642:	75fb      	strb	r3, [r7, #23]
 8007644:	f997 3017 	ldrsb.w	r3, [r7, #23]
 8007648:	2b00      	cmp	r3, #0
 800764a:	d105      	bne.n	8007658 <VL53L0X_get_total_signal_rate+0x3e>
 800764c:	687b      	ldr	r3, [r7, #4]
 800764e:	681a      	ldr	r2, [r3, #0]
 8007650:	693b      	ldr	r3, [r7, #16]
 8007652:	441a      	add	r2, r3
 8007654:	687b      	ldr	r3, [r7, #4]
 8007656:	601a      	str	r2, [r3, #0]
 8007658:	f997 3017 	ldrsb.w	r3, [r7, #23]
 800765c:	4618      	mov	r0, r3
 800765e:	3718      	adds	r7, #24
 8007660:	46bd      	mov	sp, r7
 8007662:	bd80      	pop	{r7, pc}

08007664 <VL53L0X_calc_dmax>:
 8007664:	b580      	push	{r7, lr}
 8007666:	b09a      	sub	sp, #104	; 0x68
 8007668:	af00      	add	r7, sp, #0
 800766a:	60f8      	str	r0, [r7, #12]
 800766c:	60b9      	str	r1, [r7, #8]
 800766e:	607a      	str	r2, [r7, #4]
 8007670:	603b      	str	r3, [r7, #0]
 8007672:	2312      	movs	r3, #18
 8007674:	657b      	str	r3, [r7, #84]	; 0x54
 8007676:	f44f 4380 	mov.w	r3, #16384	; 0x4000
 800767a:	653b      	str	r3, [r7, #80]	; 0x50
 800767c:	2342      	movs	r3, #66	; 0x42
 800767e:	64fb      	str	r3, [r7, #76]	; 0x4c
 8007680:	2306      	movs	r3, #6
 8007682:	64bb      	str	r3, [r7, #72]	; 0x48
 8007684:	2307      	movs	r3, #7
 8007686:	647b      	str	r3, [r7, #68]	; 0x44
 8007688:	2300      	movs	r3, #0
 800768a:	f887 3043 	strb.w	r3, [r7, #67]	; 0x43
 800768e:	68fb      	ldr	r3, [r7, #12]
 8007690:	f8b3 3154 	ldrh.w	r3, [r3, #340]	; 0x154
 8007694:	63fb      	str	r3, [r7, #60]	; 0x3c
 8007696:	68fb      	ldr	r3, [r7, #12]
 8007698:	f8d3 3158 	ldr.w	r3, [r3, #344]	; 0x158
 800769c:	63bb      	str	r3, [r7, #56]	; 0x38
 800769e:	6bfb      	ldr	r3, [r7, #60]	; 0x3c
 80076a0:	6bba      	ldr	r2, [r7, #56]	; 0x38
 80076a2:	fb02 f303 	mul.w	r3, r2, r3
 80076a6:	637b      	str	r3, [r7, #52]	; 0x34
 80076a8:	6b7b      	ldr	r3, [r7, #52]	; 0x34
 80076aa:	3380      	adds	r3, #128	; 0x80
 80076ac:	0a1b      	lsrs	r3, r3, #8
 80076ae:	637b      	str	r3, [r7, #52]	; 0x34
 80076b0:	6b7b      	ldr	r3, [r7, #52]	; 0x34
 80076b2:	6bfa      	ldr	r2, [r7, #60]	; 0x3c
 80076b4:	fb02 f303 	mul.w	r3, r2, r3
 80076b8:	637b      	str	r3, [r7, #52]	; 0x34
 80076ba:	2300      	movs	r3, #0
 80076bc:	667b      	str	r3, [r7, #100]	; 0x64
 80076be:	687b      	ldr	r3, [r7, #4]
 80076c0:	2b00      	cmp	r3, #0
 80076c2:	d01b      	beq.n	80076fc <VL53L0X_calc_dmax+0x98>
 80076c4:	68bb      	ldr	r3, [r7, #8]
 80076c6:	029b      	lsls	r3, r3, #10
 80076c8:	633b      	str	r3, [r7, #48]	; 0x30
 80076ca:	687b      	ldr	r3, [r7, #4]
 80076cc:	085b      	lsrs	r3, r3, #1
 80076ce:	6b3a      	ldr	r2, [r7, #48]	; 0x30
 80076d0:	4413      	add	r3, r2
 80076d2:	667b      	str	r3, [r7, #100]	; 0x64
 80076d4:	6e7a      	ldr	r2, [r7, #100]	; 0x64
 80076d6:	687b      	ldr	r3, [r7, #4]
 80076d8:	fbb2 f3f3 	udiv	r3, r2, r3
 80076dc:	667b      	str	r3, [r7, #100]	; 0x64
 80076de:	6e7a      	ldr	r2, [r7, #100]	; 0x64
 80076e0:	4613      	mov	r3, r2
 80076e2:	005b      	lsls	r3, r3, #1
 80076e4:	4413      	add	r3, r2
 80076e6:	667b      	str	r3, [r7, #100]	; 0x64
 80076e8:	6e7b      	ldr	r3, [r7, #100]	; 0x64
 80076ea:	6e7a      	ldr	r2, [r7, #100]	; 0x64
 80076ec:	fb02 f303 	mul.w	r3, r2, r3
 80076f0:	667b      	str	r3, [r7, #100]	; 0x64
 80076f2:	6e7b      	ldr	r3, [r7, #100]	; 0x64
 80076f4:	f503 4300 	add.w	r3, r3, #32768	; 0x8000
 80076f8:	0c1b      	lsrs	r3, r3, #16
 80076fa:	667b      	str	r3, [r7, #100]	; 0x64
 80076fc:	683b      	ldr	r3, [r7, #0]
 80076fe:	6f3a      	ldr	r2, [r7, #112]	; 0x70
 8007700:	fb02 f303 	mul.w	r3, r2, r3
 8007704:	62fb      	str	r3, [r7, #44]	; 0x2c
 8007706:	6afb      	ldr	r3, [r7, #44]	; 0x2c
 8007708:	f503 4300 	add.w	r3, r3, #32768	; 0x8000
 800770c:	0c1b      	lsrs	r3, r3, #16
 800770e:	62fb      	str	r3, [r7, #44]	; 0x2c
 8007710:	6afb      	ldr	r3, [r7, #44]	; 0x2c
 8007712:	6afa      	ldr	r2, [r7, #44]	; 0x2c
 8007714:	fb02 f303 	mul.w	r3, r2, r3
 8007718:	62fb      	str	r3, [r7, #44]	; 0x2c
 800771a:	6f7b      	ldr	r3, [r7, #116]	; 0x74
 800771c:	f503 4300 	add.w	r3, r3, #32768	; 0x8000
 8007720:	0c1b      	lsrs	r3, r3, #16
 8007722:	62bb      	str	r3, [r7, #40]	; 0x28
 8007724:	6cbb      	ldr	r3, [r7, #72]	; 0x48
 8007726:	085a      	lsrs	r2, r3, #1
 8007728:	6abb      	ldr	r3, [r7, #40]	; 0x28
 800772a:	441a      	add	r2, r3
 800772c:	6cbb      	ldr	r3, [r7, #72]	; 0x48
 800772e:	fbb2 f3f3 	udiv	r3, r2, r3
 8007732:	62bb      	str	r3, [r7, #40]	; 0x28
 8007734:	6abb      	ldr	r3, [r7, #40]	; 0x28
 8007736:	6c7a      	ldr	r2, [r7, #68]	; 0x44
 8007738:	fb02 f303 	mul.w	r3, r2, r3
 800773c:	62bb      	str	r3, [r7, #40]	; 0x28
 800773e:	6abb      	ldr	r3, [r7, #40]	; 0x28
 8007740:	f5b3 3f80 	cmp.w	r3, #65536	; 0x10000
 8007744:	d302      	bcc.n	800774c <VL53L0X_calc_dmax+0xe8>
 8007746:	4b55      	ldr	r3, [pc, #340]	; (800789c <VL53L0X_calc_dmax+0x238>)
 8007748:	663b      	str	r3, [r7, #96]	; 0x60
 800774a:	e016      	b.n	800777a <VL53L0X_calc_dmax+0x116>
 800774c:	6cbb      	ldr	r3, [r7, #72]	; 0x48
 800774e:	085a      	lsrs	r2, r3, #1
 8007750:	6f7b      	ldr	r3, [r7, #116]	; 0x74
 8007752:	441a      	add	r2, r3
 8007754:	6cbb      	ldr	r3, [r7, #72]	; 0x48
 8007756:	fbb2 f3f3 	udiv	r3, r2, r3
 800775a:	677b      	str	r3, [r7, #116]	; 0x74
 800775c:	6f7b      	ldr	r3, [r7, #116]	; 0x74
 800775e:	6c7a      	ldr	r2, [r7, #68]	; 0x44
 8007760:	fb02 f303 	mul.w	r3, r2, r3
 8007764:	677b      	str	r3, [r7, #116]	; 0x74
 8007766:	6f7b      	ldr	r3, [r7, #116]	; 0x74
 8007768:	f503 4300 	add.w	r3, r3, #32768	; 0x8000
 800776c:	0c1b      	lsrs	r3, r3, #16
 800776e:	663b      	str	r3, [r7, #96]	; 0x60
 8007770:	6e3b      	ldr	r3, [r7, #96]	; 0x60
 8007772:	6e3a      	ldr	r2, [r7, #96]	; 0x60
 8007774:	fb02 f303 	mul.w	r3, r2, r3
 8007778:	663b      	str	r3, [r7, #96]	; 0x60
 800777a:	6d7b      	ldr	r3, [r7, #84]	; 0x54
 800777c:	039b      	lsls	r3, r3, #14
 800777e:	f503 73fa 	add.w	r3, r3, #500	; 0x1f4
 8007782:	4a47      	ldr	r2, [pc, #284]	; (80078a0 <VL53L0X_calc_dmax+0x23c>)
 8007784:	fba2 2303 	umull	r2, r3, r2, r3
 8007788:	099b      	lsrs	r3, r3, #6
 800778a:	627b      	str	r3, [r7, #36]	; 0x24
 800778c:	6a7b      	ldr	r3, [r7, #36]	; 0x24
 800778e:	6a7a      	ldr	r2, [r7, #36]	; 0x24
 8007790:	fb02 f303 	mul.w	r3, r2, r3
 8007794:	627b      	str	r3, [r7, #36]	; 0x24
 8007796:	6cfb      	ldr	r3, [r7, #76]	; 0x4c
 8007798:	6cfa      	ldr	r2, [r7, #76]	; 0x4c
 800779a:	fb02 f303 	mul.w	r3, r2, r3
 800779e:	623b      	str	r3, [r7, #32]
 80077a0:	6a3b      	ldr	r3, [r7, #32]
 80077a2:	3308      	adds	r3, #8
 80077a4:	091b      	lsrs	r3, r3, #4
 80077a6:	623b      	str	r3, [r7, #32]
 80077a8:	6a7a      	ldr	r2, [r7, #36]	; 0x24
 80077aa:	6a3b      	ldr	r3, [r7, #32]
 80077ac:	1ad3      	subs	r3, r2, r3
 80077ae:	627b      	str	r3, [r7, #36]	; 0x24
 80077b0:	6a7a      	ldr	r2, [r7, #36]	; 0x24
 80077b2:	4613      	mov	r3, r2
 80077b4:	005b      	lsls	r3, r3, #1
 80077b6:	4413      	add	r3, r2
 80077b8:	011b      	lsls	r3, r3, #4
 80077ba:	61fb      	str	r3, [r7, #28]
 80077bc:	69fb      	ldr	r3, [r7, #28]
 80077be:	f503 5300 	add.w	r3, r3, #8192	; 0x2000
 80077c2:	0b9b      	lsrs	r3, r3, #14
 80077c4:	61fb      	str	r3, [r7, #28]
 80077c6:	6afa      	ldr	r2, [r7, #44]	; 0x2c
 80077c8:	6e3b      	ldr	r3, [r7, #96]	; 0x60
 80077ca:	4413      	add	r3, r2
 80077cc:	61bb      	str	r3, [r7, #24]
 80077ce:	6fbb      	ldr	r3, [r7, #120]	; 0x78
 80077d0:	085b      	lsrs	r3, r3, #1
 80077d2:	69ba      	ldr	r2, [r7, #24]
 80077d4:	4413      	add	r3, r2
 80077d6:	61bb      	str	r3, [r7, #24]
 80077d8:	69ba      	ldr	r2, [r7, #24]
 80077da:	6fbb      	ldr	r3, [r7, #120]	; 0x78
 80077dc:	fbb2 f3f3 	udiv	r3, r2, r3
 80077e0:	61bb      	str	r3, [r7, #24]
 80077e2:	69bb      	ldr	r3, [r7, #24]
 80077e4:	039b      	lsls	r3, r3, #14
 80077e6:	61bb      	str	r3, [r7, #24]
 80077e8:	69fb      	ldr	r3, [r7, #28]
 80077ea:	085b      	lsrs	r3, r3, #1
 80077ec:	69ba      	ldr	r2, [r7, #24]
 80077ee:	4413      	add	r3, r2
 80077f0:	61bb      	str	r3, [r7, #24]
 80077f2:	69ba      	ldr	r2, [r7, #24]
 80077f4:	69fb      	ldr	r3, [r7, #28]
 80077f6:	fbb2 f3f3 	udiv	r3, r2, r3
 80077fa:	61bb      	str	r3, [r7, #24]
 80077fc:	69bb      	ldr	r3, [r7, #24]
 80077fe:	6e7a      	ldr	r2, [r7, #100]	; 0x64
 8007800:	fb02 f303 	mul.w	r3, r2, r3
 8007804:	61bb      	str	r3, [r7, #24]
 8007806:	69bb      	ldr	r3, [r7, #24]
 8007808:	f503 73fa 	add.w	r3, r3, #500	; 0x1f4
 800780c:	4a24      	ldr	r2, [pc, #144]	; (80078a0 <VL53L0X_calc_dmax+0x23c>)
 800780e:	fba2 2303 	umull	r2, r3, r2, r3
 8007812:	099b      	lsrs	r3, r3, #6
 8007814:	61bb      	str	r3, [r7, #24]
 8007816:	69bb      	ldr	r3, [r7, #24]
 8007818:	011b      	lsls	r3, r3, #4
 800781a:	61bb      	str	r3, [r7, #24]
 800781c:	69bb      	ldr	r3, [r7, #24]
 800781e:	f503 73fa 	add.w	r3, r3, #500	; 0x1f4
 8007822:	4a1f      	ldr	r2, [pc, #124]	; (80078a0 <VL53L0X_calc_dmax+0x23c>)
 8007824:	fba2 2303 	umull	r2, r3, r2, r3
 8007828:	099b      	lsrs	r3, r3, #6
 800782a:	61bb      	str	r3, [r7, #24]
 800782c:	6d3b      	ldr	r3, [r7, #80]	; 0x50
 800782e:	3380      	adds	r3, #128	; 0x80
 8007830:	0a1b      	lsrs	r3, r3, #8
 8007832:	617b      	str	r3, [r7, #20]
 8007834:	697b      	ldr	r3, [r7, #20]
 8007836:	2b00      	cmp	r3, #0
 8007838:	d008      	beq.n	800784c <VL53L0X_calc_dmax+0x1e8>
 800783a:	697b      	ldr	r3, [r7, #20]
 800783c:	085a      	lsrs	r2, r3, #1
 800783e:	6b7b      	ldr	r3, [r7, #52]	; 0x34
 8007840:	441a      	add	r2, r3
 8007842:	697b      	ldr	r3, [r7, #20]
 8007844:	fbb2 f3f3 	udiv	r3, r2, r3
 8007848:	65bb      	str	r3, [r7, #88]	; 0x58
 800784a:	e001      	b.n	8007850 <VL53L0X_calc_dmax+0x1ec>
 800784c:	2300      	movs	r3, #0
 800784e:	65bb      	str	r3, [r7, #88]	; 0x58
 8007850:	6db8      	ldr	r0, [r7, #88]	; 0x58
 8007852:	f7fe fc3e 	bl	80060d2 <VL53L0X_isqrt>
 8007856:	6138      	str	r0, [r7, #16]
 8007858:	69bb      	ldr	r3, [r7, #24]
 800785a:	2b00      	cmp	r3, #0
 800785c:	d008      	beq.n	8007870 <VL53L0X_calc_dmax+0x20c>
 800785e:	69bb      	ldr	r3, [r7, #24]
 8007860:	085a      	lsrs	r2, r3, #1
 8007862:	6b7b      	ldr	r3, [r7, #52]	; 0x34
 8007864:	441a      	add	r2, r3
 8007866:	69bb      	ldr	r3, [r7, #24]
 8007868:	fbb2 f3f3 	udiv	r3, r2, r3
 800786c:	65fb      	str	r3, [r7, #92]	; 0x5c
 800786e:	e001      	b.n	8007874 <VL53L0X_calc_dmax+0x210>
 8007870:	2300      	movs	r3, #0
 8007872:	65fb      	str	r3, [r7, #92]	; 0x5c
 8007874:	6df8      	ldr	r0, [r7, #92]	; 0x5c
 8007876:	f7fe fc2c 	bl	80060d2 <VL53L0X_isqrt>
 800787a:	65f8      	str	r0, [r7, #92]	; 0x5c
 800787c:	6ffb      	ldr	r3, [r7, #124]	; 0x7c
 800787e:	693a      	ldr	r2, [r7, #16]
 8007880:	601a      	str	r2, [r3, #0]
 8007882:	693a      	ldr	r2, [r7, #16]
 8007884:	6dfb      	ldr	r3, [r7, #92]	; 0x5c
 8007886:	429a      	cmp	r2, r3
 8007888:	d902      	bls.n	8007890 <VL53L0X_calc_dmax+0x22c>
 800788a:	6ffb      	ldr	r3, [r7, #124]	; 0x7c
 800788c:	6dfa      	ldr	r2, [r7, #92]	; 0x5c
 800788e:	601a      	str	r2, [r3, #0]
 8007890:	f997 3043 	ldrsb.w	r3, [r7, #67]	; 0x43
 8007894:	4618      	mov	r0, r3
 8007896:	3768      	adds	r7, #104	; 0x68
 8007898:	46bd      	mov	sp, r7
 800789a:	bd80      	pop	{r7, pc}
 800789c:	fff00000 	.word	0xfff00000
 80078a0:	10624dd3 	.word	0x10624dd3

080078a4 <VL53L0X_calc_sigma_estimate>:
 80078a4:	b580      	push	{r7, lr}
 80078a6:	b0b4      	sub	sp, #208	; 0xd0
 80078a8:	af04      	add	r7, sp, #16
 80078aa:	60f8      	str	r0, [r7, #12]
 80078ac:	60b9      	str	r1, [r7, #8]
 80078ae:	607a      	str	r2, [r7, #4]
 80078b0:	603b      	str	r3, [r7, #0]
 80078b2:	f44f 7348 	mov.w	r3, #800	; 0x320
 80078b6:	f8c7 3090 	str.w	r3, [r7, #144]	; 0x90
 80078ba:	f44f 7316 	mov.w	r3, #600	; 0x258
 80078be:	f8c7 308c 	str.w	r3, [r7, #140]	; 0x8c
 80078c2:	f44f 13c8 	mov.w	r3, #1638400	; 0x190000
 80078c6:	f8c7 3088 	str.w	r3, [r7, #136]	; 0x88
 80078ca:	f241 235c 	movw	r3, #4700	; 0x125c
 80078ce:	f8c7 3084 	str.w	r3, [r7, #132]	; 0x84
 80078d2:	4b9e      	ldr	r3, [pc, #632]	; (8007b4c <VL53L0X_calc_sigma_estimate+0x2a8>)
 80078d4:	f8c7 3080 	str.w	r3, [r7, #128]	; 0x80
 80078d8:	f44f 4370 	mov.w	r3, #61440	; 0xf000
 80078dc:	67fb      	str	r3, [r7, #124]	; 0x7c
 80078de:	f04f 4270 	mov.w	r2, #4026531840	; 0xf0000000
 80078e2:	f8d7 308c 	ldr.w	r3, [r7, #140]	; 0x8c
 80078e6:	fbb2 f3f3 	udiv	r3, r2, r3
 80078ea:	67bb      	str	r3, [r7, #120]	; 0x78
 80078ec:	4b98      	ldr	r3, [pc, #608]	; (8007b50 <VL53L0X_calc_sigma_estimate+0x2ac>)
 80078ee:	677b      	str	r3, [r7, #116]	; 0x74
 80078f0:	f44f 4300 	mov.w	r3, #32768	; 0x8000
 80078f4:	673b      	str	r3, [r7, #112]	; 0x70
 80078f6:	f44f 1348 	mov.w	r3, #3276800	; 0x320000
 80078fa:	66fb      	str	r3, [r7, #108]	; 0x6c
 80078fc:	f240 6377 	movw	r3, #1655	; 0x677
 8007900:	66bb      	str	r3, [r7, #104]	; 0x68
 8007902:	2300      	movs	r3, #0
 8007904:	f887 309f 	strb.w	r3, [r7, #159]	; 0x9f
 8007908:	68fb      	ldr	r3, [r7, #12]
 800790a:	6a1b      	ldr	r3, [r3, #32]
 800790c:	617b      	str	r3, [r7, #20]
 800790e:	68bb      	ldr	r3, [r7, #8]
 8007910:	691b      	ldr	r3, [r3, #16]
 8007912:	f44f 727a 	mov.w	r2, #1000	; 0x3e8
 8007916:	fb02 f303 	mul.w	r3, r2, r3
 800791a:	0c1b      	lsrs	r3, r3, #16
 800791c:	667b      	str	r3, [r7, #100]	; 0x64
 800791e:	68bb      	ldr	r3, [r7, #8]
 8007920:	68db      	ldr	r3, [r3, #12]
 8007922:	663b      	str	r3, [r7, #96]	; 0x60
 8007924:	f107 0310 	add.w	r3, r7, #16
 8007928:	461a      	mov	r2, r3
 800792a:	68b9      	ldr	r1, [r7, #8]
 800792c:	68f8      	ldr	r0, [r7, #12]
 800792e:	f7ff fe74 	bl	800761a <VL53L0X_get_total_signal_rate>
 8007932:	4603      	mov	r3, r0
 8007934:	f887 309f 	strb.w	r3, [r7, #159]	; 0x9f
 8007938:	f107 0314 	add.w	r3, r7, #20
 800793c:	461a      	mov	r2, r3
 800793e:	68b9      	ldr	r1, [r7, #8]
 8007940:	68f8      	ldr	r0, [r7, #12]
 8007942:	f7ff fe3b 	bl	80075bc <VL53L0X_get_total_xtalk_rate>
 8007946:	4603      	mov	r3, r0
 8007948:	f887 309f 	strb.w	r3, [r7, #159]	; 0x9f
 800794c:	693b      	ldr	r3, [r7, #16]
 800794e:	f44f 727a 	mov.w	r2, #1000	; 0x3e8
 8007952:	fb02 f303 	mul.w	r3, r2, r3
 8007956:	65fb      	str	r3, [r7, #92]	; 0x5c
 8007958:	6dfb      	ldr	r3, [r7, #92]	; 0x5c
 800795a:	f503 4300 	add.w	r3, r3, #32768	; 0x8000
 800795e:	0c1b      	lsrs	r3, r3, #16
 8007960:	65fb      	str	r3, [r7, #92]	; 0x5c
 8007962:	697b      	ldr	r3, [r7, #20]
 8007964:	f44f 727a 	mov.w	r2, #1000	; 0x3e8
 8007968:	fb02 f303 	mul.w	r3, r2, r3
 800796c:	f8c7 30a0 	str.w	r3, [r7, #160]	; 0xa0
 8007970:	f8d7 20a0 	ldr.w	r2, [r7, #160]	; 0xa0
 8007974:	6efb      	ldr	r3, [r7, #108]	; 0x6c
 8007976:	429a      	cmp	r2, r3
 8007978:	d902      	bls.n	8007980 <VL53L0X_calc_sigma_estimate+0xdc>
 800797a:	6efb      	ldr	r3, [r7, #108]	; 0x6c
 800797c:	f8c7 30a0 	str.w	r3, [r7, #160]	; 0xa0
 8007980:	f997 309f 	ldrsb.w	r3, [r7, #159]	; 0x9f
 8007984:	2b00      	cmp	r3, #0
 8007986:	d168      	bne.n	8007a5a <VL53L0X_calc_sigma_estimate+0x1b6>
 8007988:	68fb      	ldr	r3, [r7, #12]
 800798a:	f8d3 30dc 	ldr.w	r3, [r3, #220]	; 0xdc
 800798e:	f8c7 30b8 	str.w	r3, [r7, #184]	; 0xb8
 8007992:	68fb      	ldr	r3, [r7, #12]
 8007994:	f893 30e0 	ldrb.w	r3, [r3, #224]	; 0xe0
 8007998:	f887 305b 	strb.w	r3, [r7, #91]	; 0x5b
 800799c:	f897 305b 	ldrb.w	r3, [r7, #91]	; 0x5b
 80079a0:	461a      	mov	r2, r3
 80079a2:	f8d7 10b8 	ldr.w	r1, [r7, #184]	; 0xb8
 80079a6:	68f8      	ldr	r0, [r7, #12]
 80079a8:	f7ff f936 	bl	8006c18 <VL53L0X_calc_timeout_mclks>
 80079ac:	6578      	str	r0, [r7, #84]	; 0x54
 80079ae:	68fb      	ldr	r3, [r7, #12]
 80079b0:	f8d3 30e4 	ldr.w	r3, [r3, #228]	; 0xe4
 80079b4:	f8c7 30b4 	str.w	r3, [r7, #180]	; 0xb4
 80079b8:	68fb      	ldr	r3, [r7, #12]
 80079ba:	f893 30e8 	ldrb.w	r3, [r3, #232]	; 0xe8
 80079be:	f887 3053 	strb.w	r3, [r7, #83]	; 0x53
 80079c2:	f897 3053 	ldrb.w	r3, [r7, #83]	; 0x53
 80079c6:	461a      	mov	r2, r3
 80079c8:	f8d7 10b4 	ldr.w	r1, [r7, #180]	; 0xb4
 80079cc:	68f8      	ldr	r0, [r7, #12]
 80079ce:	f7ff f923 	bl	8006c18 <VL53L0X_calc_timeout_mclks>
 80079d2:	64f8      	str	r0, [r7, #76]	; 0x4c
 80079d4:	2303      	movs	r3, #3
 80079d6:	f8c7 3098 	str.w	r3, [r7, #152]	; 0x98
 80079da:	f897 305b 	ldrb.w	r3, [r7, #91]	; 0x5b
 80079de:	2b08      	cmp	r3, #8
 80079e0:	d102      	bne.n	80079e8 <VL53L0X_calc_sigma_estimate+0x144>
 80079e2:	2302      	movs	r3, #2
 80079e4:	f8c7 3098 	str.w	r3, [r7, #152]	; 0x98
 80079e8:	6cfa      	ldr	r2, [r7, #76]	; 0x4c
 80079ea:	6d7b      	ldr	r3, [r7, #84]	; 0x54
 80079ec:	4413      	add	r3, r2
 80079ee:	f8d7 2098 	ldr.w	r2, [r7, #152]	; 0x98
 80079f2:	fb02 f303 	mul.w	r3, r2, r3
 80079f6:	02db      	lsls	r3, r3, #11
 80079f8:	f8c7 3094 	str.w	r3, [r7, #148]	; 0x94
 80079fc:	f8d7 3094 	ldr.w	r3, [r7, #148]	; 0x94
 8007a00:	f503 73fa 	add.w	r3, r3, #500	; 0x1f4
 8007a04:	4a53      	ldr	r2, [pc, #332]	; (8007b54 <VL53L0X_calc_sigma_estimate+0x2b0>)
 8007a06:	fba2 2303 	umull	r2, r3, r2, r3
 8007a0a:	099b      	lsrs	r3, r3, #6
 8007a0c:	f8c7 3094 	str.w	r3, [r7, #148]	; 0x94
 8007a10:	f8d7 3094 	ldr.w	r3, [r7, #148]	; 0x94
 8007a14:	6eba      	ldr	r2, [r7, #104]	; 0x68
 8007a16:	fb02 f303 	mul.w	r3, r2, r3
 8007a1a:	f8c7 3094 	str.w	r3, [r7, #148]	; 0x94
 8007a1e:	f8d7 3094 	ldr.w	r3, [r7, #148]	; 0x94
 8007a22:	f503 73fa 	add.w	r3, r3, #500	; 0x1f4
 8007a26:	4a4b      	ldr	r2, [pc, #300]	; (8007b54 <VL53L0X_calc_sigma_estimate+0x2b0>)
 8007a28:	fba2 2303 	umull	r2, r3, r2, r3
 8007a2c:	099b      	lsrs	r3, r3, #6
 8007a2e:	f8c7 3094 	str.w	r3, [r7, #148]	; 0x94
 8007a32:	693b      	ldr	r3, [r7, #16]
 8007a34:	3380      	adds	r3, #128	; 0x80
 8007a36:	0a1b      	lsrs	r3, r3, #8
 8007a38:	613b      	str	r3, [r7, #16]
 8007a3a:	693a      	ldr	r2, [r7, #16]
 8007a3c:	f8d7 3094 	ldr.w	r3, [r7, #148]	; 0x94
 8007a40:	fb02 f303 	mul.w	r3, r2, r3
 8007a44:	f8c7 30bc 	str.w	r3, [r7, #188]	; 0xbc
 8007a48:	f8d7 30bc 	ldr.w	r3, [r7, #188]	; 0xbc
 8007a4c:	3380      	adds	r3, #128	; 0x80
 8007a4e:	0a1b      	lsrs	r3, r3, #8
 8007a50:	f8c7 30bc 	str.w	r3, [r7, #188]	; 0xbc
 8007a54:	693b      	ldr	r3, [r7, #16]
 8007a56:	021b      	lsls	r3, r3, #8
 8007a58:	613b      	str	r3, [r7, #16]
 8007a5a:	f997 309f 	ldrsb.w	r3, [r7, #159]	; 0x9f
 8007a5e:	2b00      	cmp	r3, #0
 8007a60:	d002      	beq.n	8007a68 <VL53L0X_calc_sigma_estimate+0x1c4>
 8007a62:	f997 309f 	ldrsb.w	r3, [r7, #159]	; 0x9f
 8007a66:	e165      	b.n	8007d34 <VL53L0X_calc_sigma_estimate+0x490>
 8007a68:	6dfb      	ldr	r3, [r7, #92]	; 0x5c
 8007a6a:	2b00      	cmp	r3, #0
 8007a6c:	d10c      	bne.n	8007a88 <VL53L0X_calc_sigma_estimate+0x1e4>
 8007a6e:	687b      	ldr	r3, [r7, #4]
 8007a70:	f8d7 2080 	ldr.w	r2, [r7, #128]	; 0x80
 8007a74:	601a      	str	r2, [r3, #0]
 8007a76:	68fb      	ldr	r3, [r7, #12]
 8007a78:	f8d7 2080 	ldr.w	r2, [r7, #128]	; 0x80
 8007a7c:	f8c3 2140 	str.w	r2, [r3, #320]	; 0x140
 8007a80:	683b      	ldr	r3, [r7, #0]
 8007a82:	2200      	movs	r2, #0
 8007a84:	601a      	str	r2, [r3, #0]
 8007a86:	e153      	b.n	8007d30 <VL53L0X_calc_sigma_estimate+0x48c>
 8007a88:	f8d7 30bc 	ldr.w	r3, [r7, #188]	; 0xbc
 8007a8c:	2b00      	cmp	r3, #0
 8007a8e:	d102      	bne.n	8007a96 <VL53L0X_calc_sigma_estimate+0x1f2>
 8007a90:	2301      	movs	r3, #1
 8007a92:	f8c7 30bc 	str.w	r3, [r7, #188]	; 0xbc
 8007a96:	f8d7 3090 	ldr.w	r3, [r7, #144]	; 0x90
 8007a9a:	64bb      	str	r3, [r7, #72]	; 0x48
 8007a9c:	6e7b      	ldr	r3, [r7, #100]	; 0x64
 8007a9e:	041a      	lsls	r2, r3, #16
 8007aa0:	6dfb      	ldr	r3, [r7, #92]	; 0x5c
 8007aa2:	fbb2 f3f3 	udiv	r3, r2, r3
 8007aa6:	f8c7 30b0 	str.w	r3, [r7, #176]	; 0xb0
 8007aaa:	f8d7 20b0 	ldr.w	r2, [r7, #176]	; 0xb0
 8007aae:	6fbb      	ldr	r3, [r7, #120]	; 0x78
 8007ab0:	429a      	cmp	r2, r3
 8007ab2:	d902      	bls.n	8007aba <VL53L0X_calc_sigma_estimate+0x216>
 8007ab4:	6fbb      	ldr	r3, [r7, #120]	; 0x78
 8007ab6:	f8c7 30b0 	str.w	r3, [r7, #176]	; 0xb0
 8007aba:	f8d7 30b0 	ldr.w	r3, [r7, #176]	; 0xb0
 8007abe:	f8d7 208c 	ldr.w	r2, [r7, #140]	; 0x8c
 8007ac2:	fb02 f303 	mul.w	r3, r2, r3
 8007ac6:	f8c7 30b0 	str.w	r3, [r7, #176]	; 0xb0
 8007aca:	f8d7 20bc 	ldr.w	r2, [r7, #188]	; 0xbc
 8007ace:	4613      	mov	r3, r2
 8007ad0:	005b      	lsls	r3, r3, #1
 8007ad2:	4413      	add	r3, r2
 8007ad4:	009b      	lsls	r3, r3, #2
 8007ad6:	4618      	mov	r0, r3
 8007ad8:	f7fe fafb 	bl	80060d2 <VL53L0X_isqrt>
 8007adc:	4603      	mov	r3, r0
 8007ade:	005b      	lsls	r3, r3, #1
 8007ae0:	647b      	str	r3, [r7, #68]	; 0x44
 8007ae2:	68bb      	ldr	r3, [r7, #8]
 8007ae4:	891b      	ldrh	r3, [r3, #8]
 8007ae6:	461a      	mov	r2, r3
 8007ae8:	6f7b      	ldr	r3, [r7, #116]	; 0x74
 8007aea:	fb02 f303 	mul.w	r3, r2, r3
 8007aee:	643b      	str	r3, [r7, #64]	; 0x40
 8007af0:	6dfb      	ldr	r3, [r7, #92]	; 0x5c
 8007af2:	041a      	lsls	r2, r3, #16
 8007af4:	f8d7 30a0 	ldr.w	r3, [r7, #160]	; 0xa0
 8007af8:	005b      	lsls	r3, r3, #1
 8007afa:	1ad3      	subs	r3, r2, r3
 8007afc:	f503 73fa 	add.w	r3, r3, #500	; 0x1f4
 8007b00:	4a14      	ldr	r2, [pc, #80]	; (8007b54 <VL53L0X_calc_sigma_estimate+0x2b0>)
 8007b02:	fba2 2303 	umull	r2, r3, r2, r3
 8007b06:	099b      	lsrs	r3, r3, #6
 8007b08:	63fb      	str	r3, [r7, #60]	; 0x3c
 8007b0a:	6dfb      	ldr	r3, [r7, #92]	; 0x5c
 8007b0c:	041b      	lsls	r3, r3, #16
 8007b0e:	f503 73fa 	add.w	r3, r3, #500	; 0x1f4
 8007b12:	4a10      	ldr	r2, [pc, #64]	; (8007b54 <VL53L0X_calc_sigma_estimate+0x2b0>)
 8007b14:	fba2 2303 	umull	r2, r3, r2, r3
 8007b18:	099b      	lsrs	r3, r3, #6
 8007b1a:	63bb      	str	r3, [r7, #56]	; 0x38
 8007b1c:	6bfb      	ldr	r3, [r7, #60]	; 0x3c
 8007b1e:	021b      	lsls	r3, r3, #8
 8007b20:	63fb      	str	r3, [r7, #60]	; 0x3c
 8007b22:	6bfa      	ldr	r2, [r7, #60]	; 0x3c
 8007b24:	6bbb      	ldr	r3, [r7, #56]	; 0x38
 8007b26:	fbb2 f3f3 	udiv	r3, r2, r3
 8007b2a:	2b00      	cmp	r3, #0
 8007b2c:	bfb8      	it	lt
 8007b2e:	425b      	neglt	r3, r3
 8007b30:	637b      	str	r3, [r7, #52]	; 0x34
 8007b32:	6b7b      	ldr	r3, [r7, #52]	; 0x34
 8007b34:	021b      	lsls	r3, r3, #8
 8007b36:	637b      	str	r3, [r7, #52]	; 0x34
 8007b38:	68bb      	ldr	r3, [r7, #8]
 8007b3a:	7e1b      	ldrb	r3, [r3, #24]
 8007b3c:	2b00      	cmp	r3, #0
 8007b3e:	d00b      	beq.n	8007b58 <VL53L0X_calc_sigma_estimate+0x2b4>
 8007b40:	f44f 3380 	mov.w	r3, #65536	; 0x10000
 8007b44:	f8c7 30ac 	str.w	r3, [r7, #172]	; 0xac
 8007b48:	e035      	b.n	8007bb6 <VL53L0X_calc_sigma_estimate+0x312>
 8007b4a:	bf00      	nop
 8007b4c:	028f87ae 	.word	0x028f87ae
 8007b50:	0006999a 	.word	0x0006999a
 8007b54:	10624dd3 	.word	0x10624dd3
 8007b58:	6c3a      	ldr	r2, [r7, #64]	; 0x40
 8007b5a:	f8d7 3084 	ldr.w	r3, [r7, #132]	; 0x84
 8007b5e:	fbb2 f3f3 	udiv	r3, r2, r3
 8007b62:	f8c7 30ac 	str.w	r3, [r7, #172]	; 0xac
 8007b66:	6b7b      	ldr	r3, [r7, #52]	; 0x34
 8007b68:	f5c3 3280 	rsb	r2, r3, #65536	; 0x10000
 8007b6c:	f8d7 30ac 	ldr.w	r3, [r7, #172]	; 0xac
 8007b70:	fb02 f303 	mul.w	r3, r2, r3
 8007b74:	f8c7 30ac 	str.w	r3, [r7, #172]	; 0xac
 8007b78:	f8d7 20ac 	ldr.w	r2, [r7, #172]	; 0xac
 8007b7c:	6f3b      	ldr	r3, [r7, #112]	; 0x70
 8007b7e:	4413      	add	r3, r2
 8007b80:	0c1b      	lsrs	r3, r3, #16
 8007b82:	f8c7 30ac 	str.w	r3, [r7, #172]	; 0xac
 8007b86:	f8d7 30ac 	ldr.w	r3, [r7, #172]	; 0xac
 8007b8a:	f503 3380 	add.w	r3, r3, #65536	; 0x10000
 8007b8e:	f8c7 30ac 	str.w	r3, [r7, #172]	; 0xac
 8007b92:	f8d7 30ac 	ldr.w	r3, [r7, #172]	; 0xac
 8007b96:	085b      	lsrs	r3, r3, #1
 8007b98:	f8c7 30ac 	str.w	r3, [r7, #172]	; 0xac
 8007b9c:	f8d7 30ac 	ldr.w	r3, [r7, #172]	; 0xac
 8007ba0:	f8d7 20ac 	ldr.w	r2, [r7, #172]	; 0xac
 8007ba4:	fb02 f303 	mul.w	r3, r2, r3
 8007ba8:	f8c7 30ac 	str.w	r3, [r7, #172]	; 0xac
 8007bac:	f8d7 30ac 	ldr.w	r3, [r7, #172]	; 0xac
 8007bb0:	0b9b      	lsrs	r3, r3, #14
 8007bb2:	f8c7 30ac 	str.w	r3, [r7, #172]	; 0xac
 8007bb6:	f8d7 30ac 	ldr.w	r3, [r7, #172]	; 0xac
 8007bba:	6cba      	ldr	r2, [r7, #72]	; 0x48
 8007bbc:	fb02 f303 	mul.w	r3, r2, r3
 8007bc0:	633b      	str	r3, [r7, #48]	; 0x30
 8007bc2:	6b3b      	ldr	r3, [r7, #48]	; 0x30
 8007bc4:	f503 4300 	add.w	r3, r3, #32768	; 0x8000
 8007bc8:	0c1b      	lsrs	r3, r3, #16
 8007bca:	633b      	str	r3, [r7, #48]	; 0x30
 8007bcc:	6b3b      	ldr	r3, [r7, #48]	; 0x30
 8007bce:	6b3a      	ldr	r2, [r7, #48]	; 0x30
 8007bd0:	fb02 f303 	mul.w	r3, r2, r3
 8007bd4:	633b      	str	r3, [r7, #48]	; 0x30
 8007bd6:	f8d7 30b0 	ldr.w	r3, [r7, #176]	; 0xb0
 8007bda:	62fb      	str	r3, [r7, #44]	; 0x2c
 8007bdc:	6afb      	ldr	r3, [r7, #44]	; 0x2c
 8007bde:	f503 4300 	add.w	r3, r3, #32768	; 0x8000
 8007be2:	0c1b      	lsrs	r3, r3, #16
 8007be4:	62fb      	str	r3, [r7, #44]	; 0x2c
 8007be6:	6afb      	ldr	r3, [r7, #44]	; 0x2c
 8007be8:	6afa      	ldr	r2, [r7, #44]	; 0x2c
 8007bea:	fb02 f303 	mul.w	r3, r2, r3
 8007bee:	62fb      	str	r3, [r7, #44]	; 0x2c
 8007bf0:	6b3a      	ldr	r2, [r7, #48]	; 0x30
 8007bf2:	6afb      	ldr	r3, [r7, #44]	; 0x2c
 8007bf4:	4413      	add	r3, r2
 8007bf6:	62bb      	str	r3, [r7, #40]	; 0x28
 8007bf8:	6ab8      	ldr	r0, [r7, #40]	; 0x28
 8007bfa:	f7fe fa6a 	bl	80060d2 <VL53L0X_isqrt>
 8007bfe:	6278      	str	r0, [r7, #36]	; 0x24
 8007c00:	6a7b      	ldr	r3, [r7, #36]	; 0x24
 8007c02:	041b      	lsls	r3, r3, #16
 8007c04:	627b      	str	r3, [r7, #36]	; 0x24
 8007c06:	6a7b      	ldr	r3, [r7, #36]	; 0x24
 8007c08:	3332      	adds	r3, #50	; 0x32
 8007c0a:	4a4c      	ldr	r2, [pc, #304]	; (8007d3c <VL53L0X_calc_sigma_estimate+0x498>)
 8007c0c:	fba2 2303 	umull	r2, r3, r2, r3
 8007c10:	095a      	lsrs	r2, r3, #5
 8007c12:	6c7b      	ldr	r3, [r7, #68]	; 0x44
 8007c14:	fbb2 f3f3 	udiv	r3, r2, r3
 8007c18:	f8c7 30a8 	str.w	r3, [r7, #168]	; 0xa8
 8007c1c:	f8d7 30a8 	ldr.w	r3, [r7, #168]	; 0xa8
 8007c20:	f640 32b5 	movw	r2, #2997	; 0xbb5
 8007c24:	fb02 f303 	mul.w	r3, r2, r3
 8007c28:	f8c7 30a8 	str.w	r3, [r7, #168]	; 0xa8
 8007c2c:	f8d7 30a8 	ldr.w	r3, [r7, #168]	; 0xa8
 8007c30:	f503 539c 	add.w	r3, r3, #4992	; 0x1380
 8007c34:	3308      	adds	r3, #8
 8007c36:	f8c7 30a8 	str.w	r3, [r7, #168]	; 0xa8
 8007c3a:	f8d7 30a8 	ldr.w	r3, [r7, #168]	; 0xa8
 8007c3e:	4a40      	ldr	r2, [pc, #256]	; (8007d40 <VL53L0X_calc_sigma_estimate+0x49c>)
 8007c40:	fba2 2303 	umull	r2, r3, r2, r3
 8007c44:	0b5b      	lsrs	r3, r3, #13
 8007c46:	f8c7 30a8 	str.w	r3, [r7, #168]	; 0xa8
 8007c4a:	f8d7 20a8 	ldr.w	r2, [r7, #168]	; 0xa8
 8007c4e:	6ffb      	ldr	r3, [r7, #124]	; 0x7c
 8007c50:	429a      	cmp	r2, r3
 8007c52:	d902      	bls.n	8007c5a <VL53L0X_calc_sigma_estimate+0x3b6>
 8007c54:	6ffb      	ldr	r3, [r7, #124]	; 0x7c
 8007c56:	f8c7 30a8 	str.w	r3, [r7, #168]	; 0xa8
 8007c5a:	f8d7 20b8 	ldr.w	r2, [r7, #184]	; 0xb8
 8007c5e:	f8d7 30b4 	ldr.w	r3, [r7, #180]	; 0xb4
 8007c62:	4413      	add	r3, r2
 8007c64:	f503 73fa 	add.w	r3, r3, #500	; 0x1f4
 8007c68:	4a36      	ldr	r2, [pc, #216]	; (8007d44 <VL53L0X_calc_sigma_estimate+0x4a0>)
 8007c6a:	fba2 2303 	umull	r2, r3, r2, r3
 8007c6e:	099b      	lsrs	r3, r3, #6
 8007c70:	623b      	str	r3, [r7, #32]
 8007c72:	6a3b      	ldr	r3, [r7, #32]
 8007c74:	085a      	lsrs	r2, r3, #1
 8007c76:	f8d7 3088 	ldr.w	r3, [r7, #136]	; 0x88
 8007c7a:	441a      	add	r2, r3
 8007c7c:	6a3b      	ldr	r3, [r7, #32]
 8007c7e:	fbb2 f3f3 	udiv	r3, r2, r3
 8007c82:	4618      	mov	r0, r3
 8007c84:	f7fe fa25 	bl	80060d2 <VL53L0X_isqrt>
 8007c88:	61f8      	str	r0, [r7, #28]
 8007c8a:	69fb      	ldr	r3, [r7, #28]
 8007c8c:	021b      	lsls	r3, r3, #8
 8007c8e:	61fb      	str	r3, [r7, #28]
 8007c90:	69fb      	ldr	r3, [r7, #28]
 8007c92:	f503 73fa 	add.w	r3, r3, #500	; 0x1f4
 8007c96:	4a2b      	ldr	r2, [pc, #172]	; (8007d44 <VL53L0X_calc_sigma_estimate+0x4a0>)
 8007c98:	fba2 2303 	umull	r2, r3, r2, r3
 8007c9c:	099b      	lsrs	r3, r3, #6
 8007c9e:	61fb      	str	r3, [r7, #28]
 8007ca0:	f8d7 30a8 	ldr.w	r3, [r7, #168]	; 0xa8
 8007ca4:	f8d7 20a8 	ldr.w	r2, [r7, #168]	; 0xa8
 8007ca8:	fb02 f303 	mul.w	r3, r2, r3
 8007cac:	633b      	str	r3, [r7, #48]	; 0x30
 8007cae:	69fb      	ldr	r3, [r7, #28]
 8007cb0:	69fa      	ldr	r2, [r7, #28]
 8007cb2:	fb02 f303 	mul.w	r3, r2, r3
 8007cb6:	62fb      	str	r3, [r7, #44]	; 0x2c
 8007cb8:	6b3a      	ldr	r2, [r7, #48]	; 0x30
 8007cba:	6afb      	ldr	r3, [r7, #44]	; 0x2c
 8007cbc:	4413      	add	r3, r2
 8007cbe:	4618      	mov	r0, r3
 8007cc0:	f7fe fa07 	bl	80060d2 <VL53L0X_isqrt>
 8007cc4:	61b8      	str	r0, [r7, #24]
 8007cc6:	69bb      	ldr	r3, [r7, #24]
 8007cc8:	f44f 727a 	mov.w	r2, #1000	; 0x3e8
 8007ccc:	fb02 f303 	mul.w	r3, r2, r3
 8007cd0:	f8c7 30a4 	str.w	r3, [r7, #164]	; 0xa4
 8007cd4:	6dfb      	ldr	r3, [r7, #92]	; 0x5c
 8007cd6:	2b00      	cmp	r3, #0
 8007cd8:	d009      	beq.n	8007cee <VL53L0X_calc_sigma_estimate+0x44a>
 8007cda:	f8d7 30bc 	ldr.w	r3, [r7, #188]	; 0xbc
 8007cde:	2b00      	cmp	r3, #0
 8007ce0:	d005      	beq.n	8007cee <VL53L0X_calc_sigma_estimate+0x44a>
 8007ce2:	f8d7 20a4 	ldr.w	r2, [r7, #164]	; 0xa4
 8007ce6:	f8d7 3080 	ldr.w	r3, [r7, #128]	; 0x80
 8007cea:	429a      	cmp	r2, r3
 8007cec:	d903      	bls.n	8007cf6 <VL53L0X_calc_sigma_estimate+0x452>
 8007cee:	f8d7 3080 	ldr.w	r3, [r7, #128]	; 0x80
 8007cf2:	f8c7 30a4 	str.w	r3, [r7, #164]	; 0xa4
 8007cf6:	687b      	ldr	r3, [r7, #4]
 8007cf8:	f8d7 20a4 	ldr.w	r2, [r7, #164]	; 0xa4
 8007cfc:	601a      	str	r2, [r3, #0]
 8007cfe:	687b      	ldr	r3, [r7, #4]
 8007d00:	681a      	ldr	r2, [r3, #0]
 8007d02:	68fb      	ldr	r3, [r7, #12]
 8007d04:	f8c3 2140 	str.w	r2, [r3, #320]	; 0x140
 8007d08:	6939      	ldr	r1, [r7, #16]
 8007d0a:	683b      	ldr	r3, [r7, #0]
 8007d0c:	9303      	str	r3, [sp, #12]
 8007d0e:	f8d7 3094 	ldr.w	r3, [r7, #148]	; 0x94
 8007d12:	9302      	str	r3, [sp, #8]
 8007d14:	f8d7 30b0 	ldr.w	r3, [r7, #176]	; 0xb0
 8007d18:	9301      	str	r3, [sp, #4]
 8007d1a:	6cbb      	ldr	r3, [r7, #72]	; 0x48
 8007d1c:	9300      	str	r3, [sp, #0]
 8007d1e:	f8d7 30ac 	ldr.w	r3, [r7, #172]	; 0xac
 8007d22:	6e3a      	ldr	r2, [r7, #96]	; 0x60
 8007d24:	68f8      	ldr	r0, [r7, #12]
 8007d26:	f7ff fc9d 	bl	8007664 <VL53L0X_calc_dmax>
 8007d2a:	4603      	mov	r3, r0
 8007d2c:	f887 309f 	strb.w	r3, [r7, #159]	; 0x9f
 8007d30:	f997 309f 	ldrsb.w	r3, [r7, #159]	; 0x9f
 8007d34:	4618      	mov	r0, r3
 8007d36:	37c0      	adds	r7, #192	; 0xc0
 8007d38:	46bd      	mov	sp, r7
 8007d3a:	bd80      	pop	{r7, pc}
 8007d3c:	51eb851f 	.word	0x51eb851f
 8007d40:	d1b71759 	.word	0xd1b71759
 8007d44:	10624dd3 	.word	0x10624dd3

08007d48 <VL53L0X_get_pal_range_status>:
 8007d48:	b580      	push	{r7, lr}
 8007d4a:	b090      	sub	sp, #64	; 0x40
 8007d4c:	af00      	add	r7, sp, #0
 8007d4e:	60f8      	str	r0, [r7, #12]
 8007d50:	607a      	str	r2, [r7, #4]
 8007d52:	461a      	mov	r2, r3
 8007d54:	460b      	mov	r3, r1
 8007d56:	72fb      	strb	r3, [r7, #11]
 8007d58:	4613      	mov	r3, r2
 8007d5a:	813b      	strh	r3, [r7, #8]
 8007d5c:	2300      	movs	r3, #0
 8007d5e:	f887 303f 	strb.w	r3, [r7, #63]	; 0x3f
 8007d62:	2300      	movs	r3, #0
 8007d64:	f887 303d 	strb.w	r3, [r7, #61]	; 0x3d
 8007d68:	2300      	movs	r3, #0
 8007d6a:	f887 303c 	strb.w	r3, [r7, #60]	; 0x3c
 8007d6e:	2300      	movs	r3, #0
 8007d70:	f887 303b 	strb.w	r3, [r7, #59]	; 0x3b
 8007d74:	2300      	movs	r3, #0
 8007d76:	f887 302b 	strb.w	r3, [r7, #43]	; 0x2b
 8007d7a:	2300      	movs	r3, #0
 8007d7c:	f887 302a 	strb.w	r3, [r7, #42]	; 0x2a
 8007d80:	2300      	movs	r3, #0
 8007d82:	f887 3029 	strb.w	r3, [r7, #41]	; 0x29
 8007d86:	2300      	movs	r3, #0
 8007d88:	f887 3028 	strb.w	r3, [r7, #40]	; 0x28
 8007d8c:	2300      	movs	r3, #0
 8007d8e:	f887 3032 	strb.w	r3, [r7, #50]	; 0x32
 8007d92:	2300      	movs	r3, #0
 8007d94:	82fb      	strh	r3, [r7, #22]
 8007d96:	2300      	movs	r3, #0
 8007d98:	613b      	str	r3, [r7, #16]
 8007d9a:	7afb      	ldrb	r3, [r7, #11]
 8007d9c:	10db      	asrs	r3, r3, #3
 8007d9e:	b2db      	uxtb	r3, r3
 8007da0:	f003 030f 	and.w	r3, r3, #15
 8007da4:	f887 3032 	strb.w	r3, [r7, #50]	; 0x32
 8007da8:	f897 3032 	ldrb.w	r3, [r7, #50]	; 0x32
 8007dac:	2b00      	cmp	r3, #0
 8007dae:	d017      	beq.n	8007de0 <VL53L0X_get_pal_range_status+0x98>
 8007db0:	f897 3032 	ldrb.w	r3, [r7, #50]	; 0x32
 8007db4:	2b05      	cmp	r3, #5
 8007db6:	d013      	beq.n	8007de0 <VL53L0X_get_pal_range_status+0x98>
 8007db8:	f897 3032 	ldrb.w	r3, [r7, #50]	; 0x32
 8007dbc:	2b07      	cmp	r3, #7
 8007dbe:	d00f      	beq.n	8007de0 <VL53L0X_get_pal_range_status+0x98>
 8007dc0:	f897 3032 	ldrb.w	r3, [r7, #50]	; 0x32
 8007dc4:	2b0c      	cmp	r3, #12
 8007dc6:	d00b      	beq.n	8007de0 <VL53L0X_get_pal_range_status+0x98>
 8007dc8:	f897 3032 	ldrb.w	r3, [r7, #50]	; 0x32
 8007dcc:	2b0d      	cmp	r3, #13
 8007dce:	d007      	beq.n	8007de0 <VL53L0X_get_pal_range_status+0x98>
 8007dd0:	f897 3032 	ldrb.w	r3, [r7, #50]	; 0x32
 8007dd4:	2b0e      	cmp	r3, #14
 8007dd6:	d003      	beq.n	8007de0 <VL53L0X_get_pal_range_status+0x98>
 8007dd8:	f897 3032 	ldrb.w	r3, [r7, #50]	; 0x32
 8007ddc:	2b0f      	cmp	r3, #15
 8007dde:	d103      	bne.n	8007de8 <VL53L0X_get_pal_range_status+0xa0>
 8007de0:	2301      	movs	r3, #1
 8007de2:	f887 303e 	strb.w	r3, [r7, #62]	; 0x3e
 8007de6:	e002      	b.n	8007dee <VL53L0X_get_pal_range_status+0xa6>
 8007de8:	2300      	movs	r3, #0
 8007dea:	f887 303e 	strb.w	r3, [r7, #62]	; 0x3e
 8007dee:	f997 303f 	ldrsb.w	r3, [r7, #63]	; 0x3f
 8007df2:	2b00      	cmp	r3, #0
 8007df4:	d109      	bne.n	8007e0a <VL53L0X_get_pal_range_status+0xc2>
 8007df6:	f107 032b 	add.w	r3, r7, #43	; 0x2b
 8007dfa:	461a      	mov	r2, r3
 8007dfc:	2100      	movs	r1, #0
 8007dfe:	68f8      	ldr	r0, [r7, #12]
 8007e00:	f7fc fc4a 	bl	8004698 <VL53L0X_GetLimitCheckEnable>
 8007e04:	4603      	mov	r3, r0
 8007e06:	f887 303f 	strb.w	r3, [r7, #63]	; 0x3f
 8007e0a:	f897 302b 	ldrb.w	r3, [r7, #43]	; 0x2b
 8007e0e:	2b00      	cmp	r3, #0
 8007e10:	d02e      	beq.n	8007e70 <VL53L0X_get_pal_range_status+0x128>
 8007e12:	f997 303f 	ldrsb.w	r3, [r7, #63]	; 0x3f
 8007e16:	2b00      	cmp	r3, #0
 8007e18:	d12a      	bne.n	8007e70 <VL53L0X_get_pal_range_status+0x128>
 8007e1a:	f107 0310 	add.w	r3, r7, #16
 8007e1e:	f107 0224 	add.w	r2, r7, #36	; 0x24
 8007e22:	6cb9      	ldr	r1, [r7, #72]	; 0x48
 8007e24:	68f8      	ldr	r0, [r7, #12]
 8007e26:	f7ff fd3d 	bl	80078a4 <VL53L0X_calc_sigma_estimate>
 8007e2a:	4603      	mov	r3, r0
 8007e2c:	f887 303f 	strb.w	r3, [r7, #63]	; 0x3f
 8007e30:	f997 303f 	ldrsb.w	r3, [r7, #63]	; 0x3f
 8007e34:	2b00      	cmp	r3, #0
 8007e36:	d103      	bne.n	8007e40 <VL53L0X_get_pal_range_status+0xf8>
 8007e38:	693b      	ldr	r3, [r7, #16]
 8007e3a:	b29a      	uxth	r2, r3
 8007e3c:	6cbb      	ldr	r3, [r7, #72]	; 0x48
 8007e3e:	815a      	strh	r2, [r3, #10]
 8007e40:	f997 303f 	ldrsb.w	r3, [r7, #63]	; 0x3f
 8007e44:	2b00      	cmp	r3, #0
 8007e46:	d113      	bne.n	8007e70 <VL53L0X_get_pal_range_status+0x128>
 8007e48:	f107 0320 	add.w	r3, r7, #32
 8007e4c:	461a      	mov	r2, r3
 8007e4e:	2100      	movs	r1, #0
 8007e50:	68f8      	ldr	r0, [r7, #12]
 8007e52:	f7fc fca7 	bl	80047a4 <VL53L0X_GetLimitCheckValue>
 8007e56:	4603      	mov	r3, r0
 8007e58:	f887 303f 	strb.w	r3, [r7, #63]	; 0x3f
 8007e5c:	6a3b      	ldr	r3, [r7, #32]
 8007e5e:	2b00      	cmp	r3, #0
 8007e60:	d006      	beq.n	8007e70 <VL53L0X_get_pal_range_status+0x128>
 8007e62:	6a7a      	ldr	r2, [r7, #36]	; 0x24
 8007e64:	6a3b      	ldr	r3, [r7, #32]
 8007e66:	429a      	cmp	r2, r3
 8007e68:	d902      	bls.n	8007e70 <VL53L0X_get_pal_range_status+0x128>
 8007e6a:	2301      	movs	r3, #1
 8007e6c:	f887 303d 	strb.w	r3, [r7, #61]	; 0x3d
 8007e70:	f997 303f 	ldrsb.w	r3, [r7, #63]	; 0x3f
 8007e74:	2b00      	cmp	r3, #0
 8007e76:	d109      	bne.n	8007e8c <VL53L0X_get_pal_range_status+0x144>
 8007e78:	f107 0329 	add.w	r3, r7, #41	; 0x29
 8007e7c:	461a      	mov	r2, r3
 8007e7e:	2102      	movs	r1, #2
 8007e80:	68f8      	ldr	r0, [r7, #12]
 8007e82:	f7fc fc09 	bl	8004698 <VL53L0X_GetLimitCheckEnable>
 8007e86:	4603      	mov	r3, r0
 8007e88:	f887 303f 	strb.w	r3, [r7, #63]	; 0x3f
 8007e8c:	f897 3029 	ldrb.w	r3, [r7, #41]	; 0x29
 8007e90:	2b00      	cmp	r3, #0
 8007e92:	d044      	beq.n	8007f1e <VL53L0X_get_pal_range_status+0x1d6>
 8007e94:	f997 303f 	ldrsb.w	r3, [r7, #63]	; 0x3f
 8007e98:	2b00      	cmp	r3, #0
 8007e9a:	d140      	bne.n	8007f1e <VL53L0X_get_pal_range_status+0x1d6>
 8007e9c:	f107 031c 	add.w	r3, r7, #28
 8007ea0:	461a      	mov	r2, r3
 8007ea2:	2102      	movs	r1, #2
 8007ea4:	68f8      	ldr	r0, [r7, #12]
 8007ea6:	f7fc fc7d 	bl	80047a4 <VL53L0X_GetLimitCheckValue>
 8007eaa:	4603      	mov	r3, r0
 8007eac:	f887 303f 	strb.w	r3, [r7, #63]	; 0x3f
 8007eb0:	f997 303f 	ldrsb.w	r3, [r7, #63]	; 0x3f
 8007eb4:	2b00      	cmp	r3, #0
 8007eb6:	d107      	bne.n	8007ec8 <VL53L0X_get_pal_range_status+0x180>
 8007eb8:	2201      	movs	r2, #1
 8007eba:	21ff      	movs	r1, #255	; 0xff
 8007ebc:	68f8      	ldr	r0, [r7, #12]
 8007ebe:	f000 fa75 	bl	80083ac <VL53L0X_WrByte>
 8007ec2:	4603      	mov	r3, r0
 8007ec4:	f887 303f 	strb.w	r3, [r7, #63]	; 0x3f
 8007ec8:	f997 303f 	ldrsb.w	r3, [r7, #63]	; 0x3f
 8007ecc:	2b00      	cmp	r3, #0
 8007ece:	d109      	bne.n	8007ee4 <VL53L0X_get_pal_range_status+0x19c>
 8007ed0:	f107 0316 	add.w	r3, r7, #22
 8007ed4:	461a      	mov	r2, r3
 8007ed6:	21b6      	movs	r1, #182	; 0xb6
 8007ed8:	68f8      	ldr	r0, [r7, #12]
 8007eda:	f000 fb13 	bl	8008504 <VL53L0X_RdWord>
 8007ede:	4603      	mov	r3, r0
 8007ee0:	f887 303f 	strb.w	r3, [r7, #63]	; 0x3f
 8007ee4:	f997 303f 	ldrsb.w	r3, [r7, #63]	; 0x3f
 8007ee8:	2b00      	cmp	r3, #0
 8007eea:	d107      	bne.n	8007efc <VL53L0X_get_pal_range_status+0x1b4>
 8007eec:	2200      	movs	r2, #0
 8007eee:	21ff      	movs	r1, #255	; 0xff
 8007ef0:	68f8      	ldr	r0, [r7, #12]
 8007ef2:	f000 fa5b 	bl	80083ac <VL53L0X_WrByte>
 8007ef6:	4603      	mov	r3, r0
 8007ef8:	f887 303f 	strb.w	r3, [r7, #63]	; 0x3f
 8007efc:	8afb      	ldrh	r3, [r7, #22]
 8007efe:	025b      	lsls	r3, r3, #9
 8007f00:	62fb      	str	r3, [r7, #44]	; 0x2c
 8007f02:	68fb      	ldr	r3, [r7, #12]
 8007f04:	6afa      	ldr	r2, [r7, #44]	; 0x2c
 8007f06:	f8c3 2148 	str.w	r2, [r3, #328]	; 0x148
 8007f0a:	69fb      	ldr	r3, [r7, #28]
 8007f0c:	2b00      	cmp	r3, #0
 8007f0e:	d006      	beq.n	8007f1e <VL53L0X_get_pal_range_status+0x1d6>
 8007f10:	69fb      	ldr	r3, [r7, #28]
 8007f12:	6afa      	ldr	r2, [r7, #44]	; 0x2c
 8007f14:	429a      	cmp	r2, r3
 8007f16:	d902      	bls.n	8007f1e <VL53L0X_get_pal_range_status+0x1d6>
 8007f18:	2301      	movs	r3, #1
 8007f1a:	f887 303c 	strb.w	r3, [r7, #60]	; 0x3c
 8007f1e:	f997 303f 	ldrsb.w	r3, [r7, #63]	; 0x3f
 8007f22:	2b00      	cmp	r3, #0
 8007f24:	d109      	bne.n	8007f3a <VL53L0X_get_pal_range_status+0x1f2>
 8007f26:	f107 0328 	add.w	r3, r7, #40	; 0x28
 8007f2a:	461a      	mov	r2, r3
 8007f2c:	2103      	movs	r1, #3
 8007f2e:	68f8      	ldr	r0, [r7, #12]
 8007f30:	f7fc fbb2 	bl	8004698 <VL53L0X_GetLimitCheckEnable>
 8007f34:	4603      	mov	r3, r0
 8007f36:	f887 303f 	strb.w	r3, [r7, #63]	; 0x3f
 8007f3a:	f897 3028 	ldrb.w	r3, [r7, #40]	; 0x28
 8007f3e:	2b00      	cmp	r3, #0
 8007f40:	d023      	beq.n	8007f8a <VL53L0X_get_pal_range_status+0x242>
 8007f42:	f997 303f 	ldrsb.w	r3, [r7, #63]	; 0x3f
 8007f46:	2b00      	cmp	r3, #0
 8007f48:	d11f      	bne.n	8007f8a <VL53L0X_get_pal_range_status+0x242>
 8007f4a:	893b      	ldrh	r3, [r7, #8]
 8007f4c:	2b00      	cmp	r3, #0
 8007f4e:	d102      	bne.n	8007f56 <VL53L0X_get_pal_range_status+0x20e>
 8007f50:	2300      	movs	r3, #0
 8007f52:	637b      	str	r3, [r7, #52]	; 0x34
 8007f54:	e005      	b.n	8007f62 <VL53L0X_get_pal_range_status+0x21a>
 8007f56:	687b      	ldr	r3, [r7, #4]
 8007f58:	021a      	lsls	r2, r3, #8
 8007f5a:	893b      	ldrh	r3, [r7, #8]
 8007f5c:	fbb2 f3f3 	udiv	r3, r2, r3
 8007f60:	637b      	str	r3, [r7, #52]	; 0x34
 8007f62:	f107 0318 	add.w	r3, r7, #24
 8007f66:	461a      	mov	r2, r3
 8007f68:	2103      	movs	r1, #3
 8007f6a:	68f8      	ldr	r0, [r7, #12]
 8007f6c:	f7fc fc1a 	bl	80047a4 <VL53L0X_GetLimitCheckValue>
 8007f70:	4603      	mov	r3, r0
 8007f72:	f887 303f 	strb.w	r3, [r7, #63]	; 0x3f
 8007f76:	69bb      	ldr	r3, [r7, #24]
 8007f78:	2b00      	cmp	r3, #0
 8007f7a:	d006      	beq.n	8007f8a <VL53L0X_get_pal_range_status+0x242>
 8007f7c:	69bb      	ldr	r3, [r7, #24]
 8007f7e:	6b7a      	ldr	r2, [r7, #52]	; 0x34
 8007f80:	429a      	cmp	r2, r3
 8007f82:	d202      	bcs.n	8007f8a <VL53L0X_get_pal_range_status+0x242>
 8007f84:	2301      	movs	r3, #1
 8007f86:	f887 303b 	strb.w	r3, [r7, #59]	; 0x3b
 8007f8a:	f997 303f 	ldrsb.w	r3, [r7, #63]	; 0x3f
 8007f8e:	2b00      	cmp	r3, #0
 8007f90:	d14a      	bne.n	8008028 <VL53L0X_get_pal_range_status+0x2e0>
 8007f92:	f897 303e 	ldrb.w	r3, [r7, #62]	; 0x3e
 8007f96:	2b01      	cmp	r3, #1
 8007f98:	d103      	bne.n	8007fa2 <VL53L0X_get_pal_range_status+0x25a>
 8007f9a:	6cfb      	ldr	r3, [r7, #76]	; 0x4c
 8007f9c:	22ff      	movs	r2, #255	; 0xff
 8007f9e:	701a      	strb	r2, [r3, #0]
 8007fa0:	e042      	b.n	8008028 <VL53L0X_get_pal_range_status+0x2e0>
 8007fa2:	f897 3032 	ldrb.w	r3, [r7, #50]	; 0x32
 8007fa6:	2b01      	cmp	r3, #1
 8007fa8:	d007      	beq.n	8007fba <VL53L0X_get_pal_range_status+0x272>
 8007faa:	f897 3032 	ldrb.w	r3, [r7, #50]	; 0x32
 8007fae:	2b02      	cmp	r3, #2
 8007fb0:	d003      	beq.n	8007fba <VL53L0X_get_pal_range_status+0x272>
 8007fb2:	f897 3032 	ldrb.w	r3, [r7, #50]	; 0x32
 8007fb6:	2b03      	cmp	r3, #3
 8007fb8:	d103      	bne.n	8007fc2 <VL53L0X_get_pal_range_status+0x27a>
 8007fba:	6cfb      	ldr	r3, [r7, #76]	; 0x4c
 8007fbc:	2205      	movs	r2, #5
 8007fbe:	701a      	strb	r2, [r3, #0]
 8007fc0:	e032      	b.n	8008028 <VL53L0X_get_pal_range_status+0x2e0>
 8007fc2:	f897 3032 	ldrb.w	r3, [r7, #50]	; 0x32
 8007fc6:	2b06      	cmp	r3, #6
 8007fc8:	d003      	beq.n	8007fd2 <VL53L0X_get_pal_range_status+0x28a>
 8007fca:	f897 3032 	ldrb.w	r3, [r7, #50]	; 0x32
 8007fce:	2b09      	cmp	r3, #9
 8007fd0:	d103      	bne.n	8007fda <VL53L0X_get_pal_range_status+0x292>
 8007fd2:	6cfb      	ldr	r3, [r7, #76]	; 0x4c
 8007fd4:	2204      	movs	r2, #4
 8007fd6:	701a      	strb	r2, [r3, #0]
 8007fd8:	e026      	b.n	8008028 <VL53L0X_get_pal_range_status+0x2e0>
 8007fda:	f897 3032 	ldrb.w	r3, [r7, #50]	; 0x32
 8007fde:	2b08      	cmp	r3, #8
 8007fe0:	d007      	beq.n	8007ff2 <VL53L0X_get_pal_range_status+0x2aa>
 8007fe2:	f897 3032 	ldrb.w	r3, [r7, #50]	; 0x32
 8007fe6:	2b0a      	cmp	r3, #10
 8007fe8:	d003      	beq.n	8007ff2 <VL53L0X_get_pal_range_status+0x2aa>
 8007fea:	f897 303c 	ldrb.w	r3, [r7, #60]	; 0x3c
 8007fee:	2b01      	cmp	r3, #1
 8007ff0:	d103      	bne.n	8007ffa <VL53L0X_get_pal_range_status+0x2b2>
 8007ff2:	6cfb      	ldr	r3, [r7, #76]	; 0x4c
 8007ff4:	2203      	movs	r2, #3
 8007ff6:	701a      	strb	r2, [r3, #0]
 8007ff8:	e016      	b.n	8008028 <VL53L0X_get_pal_range_status+0x2e0>
 8007ffa:	f897 3032 	ldrb.w	r3, [r7, #50]	; 0x32
 8007ffe:	2b04      	cmp	r3, #4
 8008000:	d003      	beq.n	800800a <VL53L0X_get_pal_range_status+0x2c2>
 8008002:	f897 303b 	ldrb.w	r3, [r7, #59]	; 0x3b
 8008006:	2b01      	cmp	r3, #1
 8008008:	d103      	bne.n	8008012 <VL53L0X_get_pal_range_status+0x2ca>
 800800a:	6cfb      	ldr	r3, [r7, #76]	; 0x4c
 800800c:	2202      	movs	r2, #2
 800800e:	701a      	strb	r2, [r3, #0]
 8008010:	e00a      	b.n	8008028 <VL53L0X_get_pal_range_status+0x2e0>
 8008012:	f897 303d 	ldrb.w	r3, [r7, #61]	; 0x3d
 8008016:	2b01      	cmp	r3, #1
 8008018:	d103      	bne.n	8008022 <VL53L0X_get_pal_range_status+0x2da>
 800801a:	6cfb      	ldr	r3, [r7, #76]	; 0x4c
 800801c:	2201      	movs	r2, #1
 800801e:	701a      	strb	r2, [r3, #0]
 8008020:	e002      	b.n	8008028 <VL53L0X_get_pal_range_status+0x2e0>
 8008022:	6cfb      	ldr	r3, [r7, #76]	; 0x4c
 8008024:	2200      	movs	r2, #0
 8008026:	701a      	strb	r2, [r3, #0]
 8008028:	6cfb      	ldr	r3, [r7, #76]	; 0x4c
 800802a:	781b      	ldrb	r3, [r3, #0]
 800802c:	2b00      	cmp	r3, #0
 800802e:	d102      	bne.n	8008036 <VL53L0X_get_pal_range_status+0x2ee>
 8008030:	6cbb      	ldr	r3, [r7, #72]	; 0x48
 8008032:	2200      	movs	r2, #0
 8008034:	815a      	strh	r2, [r3, #10]
 8008036:	f107 032a 	add.w	r3, r7, #42	; 0x2a
 800803a:	461a      	mov	r2, r3
 800803c:	2101      	movs	r1, #1
 800803e:	68f8      	ldr	r0, [r7, #12]
 8008040:	f7fc fb2a 	bl	8004698 <VL53L0X_GetLimitCheckEnable>
 8008044:	4603      	mov	r3, r0
 8008046:	f887 303f 	strb.w	r3, [r7, #63]	; 0x3f
 800804a:	f997 303f 	ldrsb.w	r3, [r7, #63]	; 0x3f
 800804e:	2b00      	cmp	r3, #0
 8008050:	d14f      	bne.n	80080f2 <VL53L0X_get_pal_range_status+0x3aa>
 8008052:	f897 302b 	ldrb.w	r3, [r7, #43]	; 0x2b
 8008056:	2b00      	cmp	r3, #0
 8008058:	d003      	beq.n	8008062 <VL53L0X_get_pal_range_status+0x31a>
 800805a:	f897 303d 	ldrb.w	r3, [r7, #61]	; 0x3d
 800805e:	2b01      	cmp	r3, #1
 8008060:	d103      	bne.n	800806a <VL53L0X_get_pal_range_status+0x322>
 8008062:	2301      	movs	r3, #1
 8008064:	f887 3033 	strb.w	r3, [r7, #51]	; 0x33
 8008068:	e002      	b.n	8008070 <VL53L0X_get_pal_range_status+0x328>
 800806a:	2300      	movs	r3, #0
 800806c:	f887 3033 	strb.w	r3, [r7, #51]	; 0x33
 8008070:	68fb      	ldr	r3, [r7, #12]
 8008072:	f897 2033 	ldrb.w	r2, [r7, #51]	; 0x33
 8008076:	f883 202e 	strb.w	r2, [r3, #46]	; 0x2e
 800807a:	f897 3032 	ldrb.w	r3, [r7, #50]	; 0x32
 800807e:	2b04      	cmp	r3, #4
 8008080:	d003      	beq.n	800808a <VL53L0X_get_pal_range_status+0x342>
 8008082:	f897 302a 	ldrb.w	r3, [r7, #42]	; 0x2a
 8008086:	2b00      	cmp	r3, #0
 8008088:	d103      	bne.n	8008092 <VL53L0X_get_pal_range_status+0x34a>
 800808a:	2301      	movs	r3, #1
 800808c:	f887 3033 	strb.w	r3, [r7, #51]	; 0x33
 8008090:	e002      	b.n	8008098 <VL53L0X_get_pal_range_status+0x350>
 8008092:	2300      	movs	r3, #0
 8008094:	f887 3033 	strb.w	r3, [r7, #51]	; 0x33
 8008098:	68fb      	ldr	r3, [r7, #12]
 800809a:	f897 2033 	ldrb.w	r2, [r7, #51]	; 0x33
 800809e:	f883 202f 	strb.w	r2, [r3, #47]	; 0x2f
 80080a2:	f897 3029 	ldrb.w	r3, [r7, #41]	; 0x29
 80080a6:	2b00      	cmp	r3, #0
 80080a8:	d003      	beq.n	80080b2 <VL53L0X_get_pal_range_status+0x36a>
 80080aa:	f897 303c 	ldrb.w	r3, [r7, #60]	; 0x3c
 80080ae:	2b01      	cmp	r3, #1
 80080b0:	d103      	bne.n	80080ba <VL53L0X_get_pal_range_status+0x372>
 80080b2:	2301      	movs	r3, #1
 80080b4:	f887 3033 	strb.w	r3, [r7, #51]	; 0x33
 80080b8:	e002      	b.n	80080c0 <VL53L0X_get_pal_range_status+0x378>
 80080ba:	2300      	movs	r3, #0
 80080bc:	f887 3033 	strb.w	r3, [r7, #51]	; 0x33
 80080c0:	68fb      	ldr	r3, [r7, #12]
 80080c2:	f897 2033 	ldrb.w	r2, [r7, #51]	; 0x33
 80080c6:	f883 2030 	strb.w	r2, [r3, #48]	; 0x30
 80080ca:	f897 3028 	ldrb.w	r3, [r7, #40]	; 0x28
 80080ce:	2b00      	cmp	r3, #0
 80080d0:	d003      	beq.n	80080da <VL53L0X_get_pal_range_status+0x392>
 80080d2:	f897 303b 	ldrb.w	r3, [r7, #59]	; 0x3b
 80080d6:	2b01      	cmp	r3, #1
 80080d8:	d103      	bne.n	80080e2 <VL53L0X_get_pal_range_status+0x39a>
 80080da:	2301      	movs	r3, #1
 80080dc:	f887 3033 	strb.w	r3, [r7, #51]	; 0x33
 80080e0:	e002      	b.n	80080e8 <VL53L0X_get_pal_range_status+0x3a0>
 80080e2:	2300      	movs	r3, #0
 80080e4:	f887 3033 	strb.w	r3, [r7, #51]	; 0x33
 80080e8:	68fb      	ldr	r3, [r7, #12]
 80080ea:	f897 2033 	ldrb.w	r2, [r7, #51]	; 0x33
 80080ee:	f883 2031 	strb.w	r2, [r3, #49]	; 0x31
 80080f2:	f997 303f 	ldrsb.w	r3, [r7, #63]	; 0x3f
 80080f6:	4618      	mov	r0, r3
 80080f8:	3740      	adds	r7, #64	; 0x40
 80080fa:	46bd      	mov	sp, r7
 80080fc:	bd80      	pop	{r7, pc}

080080fe <VL53L0X_check_part_used>:
 80080fe:	b580      	push	{r7, lr}
 8008100:	b086      	sub	sp, #24
 8008102:	af00      	add	r7, sp, #0
 8008104:	60f8      	str	r0, [r7, #12]
 8008106:	60b9      	str	r1, [r7, #8]
 8008108:	607a      	str	r2, [r7, #4]
 800810a:	2300      	movs	r3, #0
 800810c:	75fb      	strb	r3, [r7, #23]
 800810e:	2102      	movs	r1, #2
 8008110:	68f8      	ldr	r0, [r7, #12]
 8008112:	f7fe f855 	bl	80061c0 <VL53L0X_get_info_from_device>
 8008116:	4603      	mov	r3, r0
 8008118:	75fb      	strb	r3, [r7, #23]
 800811a:	f997 3017 	ldrsb.w	r3, [r7, #23]
 800811e:	2b00      	cmp	r3, #0
 8008120:	d11c      	bne.n	800815c <VL53L0X_check_part_used+0x5e>
 8008122:	68fb      	ldr	r3, [r7, #12]
 8008124:	f893 30f1 	ldrb.w	r3, [r3, #241]	; 0xf1
 8008128:	75bb      	strb	r3, [r7, #22]
 800812a:	7dbb      	ldrb	r3, [r7, #22]
 800812c:	2b00      	cmp	r3, #0
 800812e:	d107      	bne.n	8008140 <VL53L0X_check_part_used+0x42>
 8008130:	68bb      	ldr	r3, [r7, #8]
 8008132:	2200      	movs	r2, #0
 8008134:	701a      	strb	r2, [r3, #0]
 8008136:	687b      	ldr	r3, [r7, #4]
 8008138:	3340      	adds	r3, #64	; 0x40
 800813a:	2200      	movs	r2, #0
 800813c:	701a      	strb	r2, [r3, #0]
 800813e:	e00d      	b.n	800815c <VL53L0X_check_part_used+0x5e>
 8008140:	68fb      	ldr	r3, [r7, #12]
 8008142:	f893 20f2 	ldrb.w	r2, [r3, #242]	; 0xf2
 8008146:	68bb      	ldr	r3, [r7, #8]
 8008148:	701a      	strb	r2, [r3, #0]
 800814a:	68fb      	ldr	r3, [r7, #12]
 800814c:	33f3      	adds	r3, #243	; 0xf3
 800814e:	613b      	str	r3, [r7, #16]
 8008150:	687b      	ldr	r3, [r7, #4]
 8008152:	3340      	adds	r3, #64	; 0x40
 8008154:	6939      	ldr	r1, [r7, #16]
 8008156:	4618      	mov	r0, r3
 8008158:	f000 fbc0 	bl	80088dc <strcpy>
 800815c:	f997 3017 	ldrsb.w	r3, [r7, #23]
 8008160:	4618      	mov	r0, r3
 8008162:	3718      	adds	r7, #24
 8008164:	46bd      	mov	sp, r7
 8008166:	bd80      	pop	{r7, pc}

08008168 <VL53L0X_get_device_info>:
 8008168:	b5b0      	push	{r4, r5, r7, lr}
 800816a:	b084      	sub	sp, #16
 800816c:	af00      	add	r7, sp, #0
 800816e:	6078      	str	r0, [r7, #4]
 8008170:	6039      	str	r1, [r7, #0]
 8008172:	2300      	movs	r3, #0
 8008174:	73fb      	strb	r3, [r7, #15]
 8008176:	f107 030d 	add.w	r3, r7, #13
 800817a:	683a      	ldr	r2, [r7, #0]
 800817c:	4619      	mov	r1, r3
 800817e:	6878      	ldr	r0, [r7, #4]
 8008180:	f7ff ffbd 	bl	80080fe <VL53L0X_check_part_used>
 8008184:	4603      	mov	r3, r0
 8008186:	73fb      	strb	r3, [r7, #15]
 8008188:	f997 300f 	ldrsb.w	r3, [r7, #15]
 800818c:	2b00      	cmp	r3, #0
 800818e:	d13b      	bne.n	8008208 <VL53L0X_get_device_info+0xa0>
 8008190:	7b7b      	ldrb	r3, [r7, #13]
 8008192:	2b00      	cmp	r3, #0
 8008194:	d108      	bne.n	80081a8 <VL53L0X_get_device_info+0x40>
 8008196:	683b      	ldr	r3, [r7, #0]
 8008198:	4a30      	ldr	r2, [pc, #192]	; (800825c <VL53L0X_get_device_info+0xf4>)
 800819a:	461c      	mov	r4, r3
 800819c:	4613      	mov	r3, r2
 800819e:	cb07      	ldmia	r3!, {r0, r1, r2}
 80081a0:	6020      	str	r0, [r4, #0]
 80081a2:	6061      	str	r1, [r4, #4]
 80081a4:	60a2      	str	r2, [r4, #8]
 80081a6:	e027      	b.n	80081f8 <VL53L0X_get_device_info+0x90>
 80081a8:	7b7b      	ldrb	r3, [r7, #13]
 80081aa:	2b22      	cmp	r3, #34	; 0x22
 80081ac:	d80b      	bhi.n	80081c6 <VL53L0X_get_device_info+0x5e>
 80081ae:	7b7b      	ldrb	r3, [r7, #13]
 80081b0:	2b20      	cmp	r3, #32
 80081b2:	d008      	beq.n	80081c6 <VL53L0X_get_device_info+0x5e>
 80081b4:	683b      	ldr	r3, [r7, #0]
 80081b6:	4a2a      	ldr	r2, [pc, #168]	; (8008260 <VL53L0X_get_device_info+0xf8>)
 80081b8:	461c      	mov	r4, r3
 80081ba:	4613      	mov	r3, r2
 80081bc:	cb07      	ldmia	r3!, {r0, r1, r2}
 80081be:	6020      	str	r0, [r4, #0]
 80081c0:	6061      	str	r1, [r4, #4]
 80081c2:	60a2      	str	r2, [r4, #8]
 80081c4:	e018      	b.n	80081f8 <VL53L0X_get_device_info+0x90>
 80081c6:	7b7b      	ldrb	r3, [r7, #13]
 80081c8:	2b26      	cmp	r3, #38	; 0x26
 80081ca:	d808      	bhi.n	80081de <VL53L0X_get_device_info+0x76>
 80081cc:	683b      	ldr	r3, [r7, #0]
 80081ce:	4a25      	ldr	r2, [pc, #148]	; (8008264 <VL53L0X_get_device_info+0xfc>)
 80081d0:	461c      	mov	r4, r3
 80081d2:	4613      	mov	r3, r2
 80081d4:	cb07      	ldmia	r3!, {r0, r1, r2}
 80081d6:	6020      	str	r0, [r4, #0]
 80081d8:	6061      	str	r1, [r4, #4]
 80081da:	60a2      	str	r2, [r4, #8]
 80081dc:	e00c      	b.n	80081f8 <VL53L0X_get_device_info+0x90>
 80081de:	683b      	ldr	r3, [r7, #0]
 80081e0:	4a21      	ldr	r2, [pc, #132]	; (8008268 <VL53L0X_get_device_info+0x100>)
 80081e2:	461d      	mov	r5, r3
 80081e4:	4614      	mov	r4, r2
 80081e6:	cc0f      	ldmia	r4!, {r0, r1, r2, r3}
 80081e8:	6028      	str	r0, [r5, #0]
 80081ea:	6069      	str	r1, [r5, #4]
 80081ec:	60aa      	str	r2, [r5, #8]
 80081ee:	60eb      	str	r3, [r5, #12]
 80081f0:	6820      	ldr	r0, [r4, #0]
 80081f2:	6128      	str	r0, [r5, #16]
 80081f4:	7923      	ldrb	r3, [r4, #4]
 80081f6:	752b      	strb	r3, [r5, #20]
 80081f8:	683b      	ldr	r3, [r7, #0]
 80081fa:	3320      	adds	r3, #32
 80081fc:	491b      	ldr	r1, [pc, #108]	; (800826c <VL53L0X_get_device_info+0x104>)
 80081fe:	461a      	mov	r2, r3
 8008200:	460b      	mov	r3, r1
 8008202:	cb03      	ldmia	r3!, {r0, r1}
 8008204:	6010      	str	r0, [r2, #0]
 8008206:	6051      	str	r1, [r2, #4]
 8008208:	f997 300f 	ldrsb.w	r3, [r7, #15]
 800820c:	2b00      	cmp	r3, #0
 800820e:	d108      	bne.n	8008222 <VL53L0X_get_device_info+0xba>
 8008210:	683b      	ldr	r3, [r7, #0]
 8008212:	3360      	adds	r3, #96	; 0x60
 8008214:	461a      	mov	r2, r3
 8008216:	21c0      	movs	r1, #192	; 0xc0
 8008218:	6878      	ldr	r0, [r7, #4]
 800821a:	f000 f949 	bl	80084b0 <VL53L0X_RdByte>
 800821e:	4603      	mov	r3, r0
 8008220:	73fb      	strb	r3, [r7, #15]
 8008222:	f997 300f 	ldrsb.w	r3, [r7, #15]
 8008226:	2b00      	cmp	r3, #0
 8008228:	d112      	bne.n	8008250 <VL53L0X_get_device_info+0xe8>
 800822a:	f107 030e 	add.w	r3, r7, #14
 800822e:	461a      	mov	r2, r3
 8008230:	21c2      	movs	r1, #194	; 0xc2
 8008232:	6878      	ldr	r0, [r7, #4]
 8008234:	f000 f93c 	bl	80084b0 <VL53L0X_RdByte>
 8008238:	4603      	mov	r3, r0
 800823a:	73fb      	strb	r3, [r7, #15]
 800823c:	683b      	ldr	r3, [r7, #0]
 800823e:	2201      	movs	r2, #1
 8008240:	f883 2061 	strb.w	r2, [r3, #97]	; 0x61
 8008244:	7bbb      	ldrb	r3, [r7, #14]
 8008246:	091b      	lsrs	r3, r3, #4
 8008248:	b2da      	uxtb	r2, r3
 800824a:	683b      	ldr	r3, [r7, #0]
 800824c:	f883 2062 	strb.w	r2, [r3, #98]	; 0x62
 8008250:	f997 300f 	ldrsb.w	r3, [r7, #15]
 8008254:	4618      	mov	r0, r3
 8008256:	3710      	adds	r7, #16
 8008258:	46bd      	mov	sp, r7
 800825a:	bdb0      	pop	{r4, r5, r7, pc}
 800825c:	08009804 	.word	0x08009804
 8008260:	08009810 	.word	0x08009810
 8008264:	0800981c 	.word	0x0800981c
 8008268:	08009828 	.word	0x08009828
 800826c:	08009840 	.word	0x08009840

08008270 <_I2CWrite>:
 8008270:	b580      	push	{r7, lr}
 8008272:	b088      	sub	sp, #32
 8008274:	af02      	add	r7, sp, #8
 8008276:	60f8      	str	r0, [r7, #12]
 8008278:	60b9      	str	r1, [r7, #8]
 800827a:	607a      	str	r2, [r7, #4]
 800827c:	687b      	ldr	r3, [r7, #4]
 800827e:	330a      	adds	r3, #10
 8008280:	617b      	str	r3, [r7, #20]
 8008282:	68fb      	ldr	r3, [r7, #12]
 8008284:	f8d3 015c 	ldr.w	r0, [r3, #348]	; 0x15c
 8008288:	68fb      	ldr	r3, [r7, #12]
 800828a:	f893 3160 	ldrb.w	r3, [r3, #352]	; 0x160
 800828e:	b299      	uxth	r1, r3
 8008290:	687b      	ldr	r3, [r7, #4]
 8008292:	b29a      	uxth	r2, r3
 8008294:	697b      	ldr	r3, [r7, #20]
 8008296:	9300      	str	r3, [sp, #0]
 8008298:	4613      	mov	r3, r2
 800829a:	68ba      	ldr	r2, [r7, #8]
 800829c:	f7f9 fa54 	bl	8001748 <HAL_I2C_Master_Transmit>
 80082a0:	4603      	mov	r3, r0
 80082a2:	613b      	str	r3, [r7, #16]
 80082a4:	693b      	ldr	r3, [r7, #16]
 80082a6:	4618      	mov	r0, r3
 80082a8:	3718      	adds	r7, #24
 80082aa:	46bd      	mov	sp, r7
 80082ac:	bd80      	pop	{r7, pc}

080082ae <_I2CRead>:
 80082ae:	b580      	push	{r7, lr}
 80082b0:	b088      	sub	sp, #32
 80082b2:	af02      	add	r7, sp, #8
 80082b4:	60f8      	str	r0, [r7, #12]
 80082b6:	60b9      	str	r1, [r7, #8]
 80082b8:	607a      	str	r2, [r7, #4]
 80082ba:	687b      	ldr	r3, [r7, #4]
 80082bc:	330a      	adds	r3, #10
 80082be:	617b      	str	r3, [r7, #20]
 80082c0:	68fb      	ldr	r3, [r7, #12]
 80082c2:	f8d3 015c 	ldr.w	r0, [r3, #348]	; 0x15c
 80082c6:	68fb      	ldr	r3, [r7, #12]
 80082c8:	f893 3160 	ldrb.w	r3, [r3, #352]	; 0x160
 80082cc:	f043 0301 	orr.w	r3, r3, #1
 80082d0:	b2db      	uxtb	r3, r3
 80082d2:	b299      	uxth	r1, r3
 80082d4:	687b      	ldr	r3, [r7, #4]
 80082d6:	b29a      	uxth	r2, r3
 80082d8:	697b      	ldr	r3, [r7, #20]
 80082da:	9300      	str	r3, [sp, #0]
 80082dc:	4613      	mov	r3, r2
 80082de:	68ba      	ldr	r2, [r7, #8]
 80082e0:	f7f9 fb30 	bl	8001944 <HAL_I2C_Master_Receive>
 80082e4:	4603      	mov	r3, r0
 80082e6:	613b      	str	r3, [r7, #16]
 80082e8:	693b      	ldr	r3, [r7, #16]
 80082ea:	4618      	mov	r0, r3
 80082ec:	3718      	adds	r7, #24
 80082ee:	46bd      	mov	sp, r7
 80082f0:	bd80      	pop	{r7, pc}
	...

080082f4 <VL53L0X_WriteMulti>:
 80082f4:	b580      	push	{r7, lr}
 80082f6:	b086      	sub	sp, #24
 80082f8:	af00      	add	r7, sp, #0
 80082fa:	60f8      	str	r0, [r7, #12]
 80082fc:	607a      	str	r2, [r7, #4]
 80082fe:	603b      	str	r3, [r7, #0]
 8008300:	460b      	mov	r3, r1
 8008302:	72fb      	strb	r3, [r7, #11]
 8008304:	2300      	movs	r3, #0
 8008306:	75fb      	strb	r3, [r7, #23]
 8008308:	683b      	ldr	r3, [r7, #0]
 800830a:	2b3f      	cmp	r3, #63	; 0x3f
 800830c:	d902      	bls.n	8008314 <VL53L0X_WriteMulti+0x20>
 800830e:	f06f 0303 	mvn.w	r3, #3
 8008312:	e016      	b.n	8008342 <VL53L0X_WriteMulti+0x4e>
 8008314:	4a0d      	ldr	r2, [pc, #52]	; (800834c <VL53L0X_WriteMulti+0x58>)
 8008316:	7afb      	ldrb	r3, [r7, #11]
 8008318:	7013      	strb	r3, [r2, #0]
 800831a:	683a      	ldr	r2, [r7, #0]
 800831c:	6879      	ldr	r1, [r7, #4]
 800831e:	480c      	ldr	r0, [pc, #48]	; (8008350 <VL53L0X_WriteMulti+0x5c>)
 8008320:	f000 f99e 	bl	8008660 <memcpy>
 8008324:	683b      	ldr	r3, [r7, #0]
 8008326:	3301      	adds	r3, #1
 8008328:	461a      	mov	r2, r3
 800832a:	4908      	ldr	r1, [pc, #32]	; (800834c <VL53L0X_WriteMulti+0x58>)
 800832c:	68f8      	ldr	r0, [r7, #12]
 800832e:	f7ff ff9f 	bl	8008270 <_I2CWrite>
 8008332:	6138      	str	r0, [r7, #16]
 8008334:	693b      	ldr	r3, [r7, #16]
 8008336:	2b00      	cmp	r3, #0
 8008338:	d001      	beq.n	800833e <VL53L0X_WriteMulti+0x4a>
 800833a:	23ec      	movs	r3, #236	; 0xec
 800833c:	75fb      	strb	r3, [r7, #23]
 800833e:	f997 3017 	ldrsb.w	r3, [r7, #23]
 8008342:	4618      	mov	r0, r3
 8008344:	3718      	adds	r7, #24
 8008346:	46bd      	mov	sp, r7
 8008348:	bd80      	pop	{r7, pc}
 800834a:	bf00      	nop
 800834c:	200003f0 	.word	0x200003f0
 8008350:	200003f1 	.word	0x200003f1

08008354 <VL53L0X_ReadMulti>:
 8008354:	b580      	push	{r7, lr}
 8008356:	b086      	sub	sp, #24
 8008358:	af00      	add	r7, sp, #0
 800835a:	60f8      	str	r0, [r7, #12]
 800835c:	607a      	str	r2, [r7, #4]
 800835e:	603b      	str	r3, [r7, #0]
 8008360:	460b      	mov	r3, r1
 8008362:	72fb      	strb	r3, [r7, #11]
 8008364:	2300      	movs	r3, #0
 8008366:	75fb      	strb	r3, [r7, #23]
 8008368:	f107 030b 	add.w	r3, r7, #11
 800836c:	2201      	movs	r2, #1
 800836e:	4619      	mov	r1, r3
 8008370:	68f8      	ldr	r0, [r7, #12]
 8008372:	f7ff ff7d 	bl	8008270 <_I2CWrite>
 8008376:	6138      	str	r0, [r7, #16]
 8008378:	693b      	ldr	r3, [r7, #16]
 800837a:	2b00      	cmp	r3, #0
 800837c:	d002      	beq.n	8008384 <VL53L0X_ReadMulti+0x30>
 800837e:	23ec      	movs	r3, #236	; 0xec
 8008380:	75fb      	strb	r3, [r7, #23]
 8008382:	e00c      	b.n	800839e <VL53L0X_ReadMulti+0x4a>
 8008384:	683a      	ldr	r2, [r7, #0]
 8008386:	6879      	ldr	r1, [r7, #4]
 8008388:	68f8      	ldr	r0, [r7, #12]
 800838a:	f7ff ff90 	bl	80082ae <_I2CRead>
 800838e:	6138      	str	r0, [r7, #16]
 8008390:	693b      	ldr	r3, [r7, #16]
 8008392:	2b00      	cmp	r3, #0
 8008394:	d002      	beq.n	800839c <VL53L0X_ReadMulti+0x48>
 8008396:	23ec      	movs	r3, #236	; 0xec
 8008398:	75fb      	strb	r3, [r7, #23]
 800839a:	e000      	b.n	800839e <VL53L0X_ReadMulti+0x4a>
 800839c:	bf00      	nop
 800839e:	f997 3017 	ldrsb.w	r3, [r7, #23]
 80083a2:	4618      	mov	r0, r3
 80083a4:	3718      	adds	r7, #24
 80083a6:	46bd      	mov	sp, r7
 80083a8:	bd80      	pop	{r7, pc}
	...

080083ac <VL53L0X_WrByte>:
 80083ac:	b580      	push	{r7, lr}
 80083ae:	b084      	sub	sp, #16
 80083b0:	af00      	add	r7, sp, #0
 80083b2:	6078      	str	r0, [r7, #4]
 80083b4:	460b      	mov	r3, r1
 80083b6:	70fb      	strb	r3, [r7, #3]
 80083b8:	4613      	mov	r3, r2
 80083ba:	70bb      	strb	r3, [r7, #2]
 80083bc:	2300      	movs	r3, #0
 80083be:	73fb      	strb	r3, [r7, #15]
 80083c0:	4a0b      	ldr	r2, [pc, #44]	; (80083f0 <VL53L0X_WrByte+0x44>)
 80083c2:	78fb      	ldrb	r3, [r7, #3]
 80083c4:	7013      	strb	r3, [r2, #0]
 80083c6:	4a0a      	ldr	r2, [pc, #40]	; (80083f0 <VL53L0X_WrByte+0x44>)
 80083c8:	78bb      	ldrb	r3, [r7, #2]
 80083ca:	7053      	strb	r3, [r2, #1]
 80083cc:	2202      	movs	r2, #2
 80083ce:	4908      	ldr	r1, [pc, #32]	; (80083f0 <VL53L0X_WrByte+0x44>)
 80083d0:	6878      	ldr	r0, [r7, #4]
 80083d2:	f7ff ff4d 	bl	8008270 <_I2CWrite>
 80083d6:	60b8      	str	r0, [r7, #8]
 80083d8:	68bb      	ldr	r3, [r7, #8]
 80083da:	2b00      	cmp	r3, #0
 80083dc:	d001      	beq.n	80083e2 <VL53L0X_WrByte+0x36>
 80083de:	23ec      	movs	r3, #236	; 0xec
 80083e0:	73fb      	strb	r3, [r7, #15]
 80083e2:	f997 300f 	ldrsb.w	r3, [r7, #15]
 80083e6:	4618      	mov	r0, r3
 80083e8:	3710      	adds	r7, #16
 80083ea:	46bd      	mov	sp, r7
 80083ec:	bd80      	pop	{r7, pc}
 80083ee:	bf00      	nop
 80083f0:	200003f0 	.word	0x200003f0

080083f4 <VL53L0X_WrWord>:
 80083f4:	b580      	push	{r7, lr}
 80083f6:	b084      	sub	sp, #16
 80083f8:	af00      	add	r7, sp, #0
 80083fa:	6078      	str	r0, [r7, #4]
 80083fc:	460b      	mov	r3, r1
 80083fe:	70fb      	strb	r3, [r7, #3]
 8008400:	4613      	mov	r3, r2
 8008402:	803b      	strh	r3, [r7, #0]
 8008404:	2300      	movs	r3, #0
 8008406:	73fb      	strb	r3, [r7, #15]
 8008408:	4a0e      	ldr	r2, [pc, #56]	; (8008444 <VL53L0X_WrWord+0x50>)
 800840a:	78fb      	ldrb	r3, [r7, #3]
 800840c:	7013      	strb	r3, [r2, #0]
 800840e:	883b      	ldrh	r3, [r7, #0]
 8008410:	0a1b      	lsrs	r3, r3, #8
 8008412:	b29b      	uxth	r3, r3
 8008414:	b2da      	uxtb	r2, r3
 8008416:	4b0b      	ldr	r3, [pc, #44]	; (8008444 <VL53L0X_WrWord+0x50>)
 8008418:	705a      	strb	r2, [r3, #1]
 800841a:	883b      	ldrh	r3, [r7, #0]
 800841c:	b2da      	uxtb	r2, r3
 800841e:	4b09      	ldr	r3, [pc, #36]	; (8008444 <VL53L0X_WrWord+0x50>)
 8008420:	709a      	strb	r2, [r3, #2]
 8008422:	2203      	movs	r2, #3
 8008424:	4907      	ldr	r1, [pc, #28]	; (8008444 <VL53L0X_WrWord+0x50>)
 8008426:	6878      	ldr	r0, [r7, #4]
 8008428:	f7ff ff22 	bl	8008270 <_I2CWrite>
 800842c:	60b8      	str	r0, [r7, #8]
 800842e:	68bb      	ldr	r3, [r7, #8]
 8008430:	2b00      	cmp	r3, #0
 8008432:	d001      	beq.n	8008438 <VL53L0X_WrWord+0x44>
 8008434:	23ec      	movs	r3, #236	; 0xec
 8008436:	73fb      	strb	r3, [r7, #15]
 8008438:	f997 300f 	ldrsb.w	r3, [r7, #15]
 800843c:	4618      	mov	r0, r3
 800843e:	3710      	adds	r7, #16
 8008440:	46bd      	mov	sp, r7
 8008442:	bd80      	pop	{r7, pc}
 8008444:	200003f0 	.word	0x200003f0

08008448 <VL53L0X_UpdateByte>:
 8008448:	b580      	push	{r7, lr}
 800844a:	b084      	sub	sp, #16
 800844c:	af00      	add	r7, sp, #0
 800844e:	6078      	str	r0, [r7, #4]
 8008450:	4608      	mov	r0, r1
 8008452:	4611      	mov	r1, r2
 8008454:	461a      	mov	r2, r3
 8008456:	4603      	mov	r3, r0
 8008458:	70fb      	strb	r3, [r7, #3]
 800845a:	460b      	mov	r3, r1
 800845c:	70bb      	strb	r3, [r7, #2]
 800845e:	4613      	mov	r3, r2
 8008460:	707b      	strb	r3, [r7, #1]
 8008462:	2300      	movs	r3, #0
 8008464:	73fb      	strb	r3, [r7, #15]
 8008466:	f107 020e 	add.w	r2, r7, #14
 800846a:	78fb      	ldrb	r3, [r7, #3]
 800846c:	4619      	mov	r1, r3
 800846e:	6878      	ldr	r0, [r7, #4]
 8008470:	f000 f81e 	bl	80084b0 <VL53L0X_RdByte>
 8008474:	4603      	mov	r3, r0
 8008476:	73fb      	strb	r3, [r7, #15]
 8008478:	f997 300f 	ldrsb.w	r3, [r7, #15]
 800847c:	2b00      	cmp	r3, #0
 800847e:	d110      	bne.n	80084a2 <VL53L0X_UpdateByte+0x5a>
 8008480:	7bba      	ldrb	r2, [r7, #14]
 8008482:	78bb      	ldrb	r3, [r7, #2]
 8008484:	4013      	ands	r3, r2
 8008486:	b2da      	uxtb	r2, r3
 8008488:	787b      	ldrb	r3, [r7, #1]
 800848a:	4313      	orrs	r3, r2
 800848c:	b2db      	uxtb	r3, r3
 800848e:	73bb      	strb	r3, [r7, #14]
 8008490:	7bba      	ldrb	r2, [r7, #14]
 8008492:	78fb      	ldrb	r3, [r7, #3]
 8008494:	4619      	mov	r1, r3
 8008496:	6878      	ldr	r0, [r7, #4]
 8008498:	f7ff ff88 	bl	80083ac <VL53L0X_WrByte>
 800849c:	4603      	mov	r3, r0
 800849e:	73fb      	strb	r3, [r7, #15]
 80084a0:	e000      	b.n	80084a4 <VL53L0X_UpdateByte+0x5c>
 80084a2:	bf00      	nop
 80084a4:	f997 300f 	ldrsb.w	r3, [r7, #15]
 80084a8:	4618      	mov	r0, r3
 80084aa:	3710      	adds	r7, #16
 80084ac:	46bd      	mov	sp, r7
 80084ae:	bd80      	pop	{r7, pc}

080084b0 <VL53L0X_RdByte>:
 80084b0:	b580      	push	{r7, lr}
 80084b2:	b086      	sub	sp, #24
 80084b4:	af00      	add	r7, sp, #0
 80084b6:	60f8      	str	r0, [r7, #12]
 80084b8:	460b      	mov	r3, r1
 80084ba:	607a      	str	r2, [r7, #4]
 80084bc:	72fb      	strb	r3, [r7, #11]
 80084be:	2300      	movs	r3, #0
 80084c0:	75fb      	strb	r3, [r7, #23]
 80084c2:	f107 030b 	add.w	r3, r7, #11
 80084c6:	2201      	movs	r2, #1
 80084c8:	4619      	mov	r1, r3
 80084ca:	68f8      	ldr	r0, [r7, #12]
 80084cc:	f7ff fed0 	bl	8008270 <_I2CWrite>
 80084d0:	6138      	str	r0, [r7, #16]
 80084d2:	693b      	ldr	r3, [r7, #16]
 80084d4:	2b00      	cmp	r3, #0
 80084d6:	d002      	beq.n	80084de <VL53L0X_RdByte+0x2e>
 80084d8:	23ec      	movs	r3, #236	; 0xec
 80084da:	75fb      	strb	r3, [r7, #23]
 80084dc:	e00c      	b.n	80084f8 <VL53L0X_RdByte+0x48>
 80084de:	2201      	movs	r2, #1
 80084e0:	6879      	ldr	r1, [r7, #4]
 80084e2:	68f8      	ldr	r0, [r7, #12]
 80084e4:	f7ff fee3 	bl	80082ae <_I2CRead>
 80084e8:	6138      	str	r0, [r7, #16]
 80084ea:	693b      	ldr	r3, [r7, #16]
 80084ec:	2b00      	cmp	r3, #0
 80084ee:	d002      	beq.n	80084f6 <VL53L0X_RdByte+0x46>
 80084f0:	23ec      	movs	r3, #236	; 0xec
 80084f2:	75fb      	strb	r3, [r7, #23]
 80084f4:	e000      	b.n	80084f8 <VL53L0X_RdByte+0x48>
 80084f6:	bf00      	nop
 80084f8:	f997 3017 	ldrsb.w	r3, [r7, #23]
 80084fc:	4618      	mov	r0, r3
 80084fe:	3718      	adds	r7, #24
 8008500:	46bd      	mov	sp, r7
 8008502:	bd80      	pop	{r7, pc}

08008504 <VL53L0X_RdWord>:
 8008504:	b580      	push	{r7, lr}
 8008506:	b086      	sub	sp, #24
 8008508:	af00      	add	r7, sp, #0
 800850a:	60f8      	str	r0, [r7, #12]
 800850c:	460b      	mov	r3, r1
 800850e:	607a      	str	r2, [r7, #4]
 8008510:	72fb      	strb	r3, [r7, #11]
 8008512:	2300      	movs	r3, #0
 8008514:	75fb      	strb	r3, [r7, #23]
 8008516:	f107 030b 	add.w	r3, r7, #11
 800851a:	2201      	movs	r2, #1
 800851c:	4619      	mov	r1, r3
 800851e:	68f8      	ldr	r0, [r7, #12]
 8008520:	f7ff fea6 	bl	8008270 <_I2CWrite>
 8008524:	6138      	str	r0, [r7, #16]
 8008526:	693b      	ldr	r3, [r7, #16]
 8008528:	2b00      	cmp	r3, #0
 800852a:	d002      	beq.n	8008532 <VL53L0X_RdWord+0x2e>
 800852c:	23ec      	movs	r3, #236	; 0xec
 800852e:	75fb      	strb	r3, [r7, #23]
 8008530:	e017      	b.n	8008562 <VL53L0X_RdWord+0x5e>
 8008532:	2202      	movs	r2, #2
 8008534:	490e      	ldr	r1, [pc, #56]	; (8008570 <VL53L0X_RdWord+0x6c>)
 8008536:	68f8      	ldr	r0, [r7, #12]
 8008538:	f7ff feb9 	bl	80082ae <_I2CRead>
 800853c:	6138      	str	r0, [r7, #16]
 800853e:	693b      	ldr	r3, [r7, #16]
 8008540:	2b00      	cmp	r3, #0
 8008542:	d002      	beq.n	800854a <VL53L0X_RdWord+0x46>
 8008544:	23ec      	movs	r3, #236	; 0xec
 8008546:	75fb      	strb	r3, [r7, #23]
 8008548:	e00b      	b.n	8008562 <VL53L0X_RdWord+0x5e>
 800854a:	4b09      	ldr	r3, [pc, #36]	; (8008570 <VL53L0X_RdWord+0x6c>)
 800854c:	781b      	ldrb	r3, [r3, #0]
 800854e:	b29b      	uxth	r3, r3
 8008550:	021b      	lsls	r3, r3, #8
 8008552:	b29a      	uxth	r2, r3
 8008554:	4b06      	ldr	r3, [pc, #24]	; (8008570 <VL53L0X_RdWord+0x6c>)
 8008556:	785b      	ldrb	r3, [r3, #1]
 8008558:	b29b      	uxth	r3, r3
 800855a:	4413      	add	r3, r2
 800855c:	b29a      	uxth	r2, r3
 800855e:	687b      	ldr	r3, [r7, #4]
 8008560:	801a      	strh	r2, [r3, #0]
 8008562:	f997 3017 	ldrsb.w	r3, [r7, #23]
 8008566:	4618      	mov	r0, r3
 8008568:	3718      	adds	r7, #24
 800856a:	46bd      	mov	sp, r7
 800856c:	bd80      	pop	{r7, pc}
 800856e:	bf00      	nop
 8008570:	200003f0 	.word	0x200003f0

08008574 <VL53L0X_RdDWord>:
 8008574:	b580      	push	{r7, lr}
 8008576:	b086      	sub	sp, #24
 8008578:	af00      	add	r7, sp, #0
 800857a:	60f8      	str	r0, [r7, #12]
 800857c:	460b      	mov	r3, r1
 800857e:	607a      	str	r2, [r7, #4]
 8008580:	72fb      	strb	r3, [r7, #11]
 8008582:	2300      	movs	r3, #0
 8008584:	75fb      	strb	r3, [r7, #23]
 8008586:	f107 030b 	add.w	r3, r7, #11
 800858a:	2201      	movs	r2, #1
 800858c:	4619      	mov	r1, r3
 800858e:	68f8      	ldr	r0, [r7, #12]
 8008590:	f7ff fe6e 	bl	8008270 <_I2CWrite>
 8008594:	6138      	str	r0, [r7, #16]
 8008596:	693b      	ldr	r3, [r7, #16]
 8008598:	2b00      	cmp	r3, #0
 800859a:	d002      	beq.n	80085a2 <VL53L0X_RdDWord+0x2e>
 800859c:	23ec      	movs	r3, #236	; 0xec
 800859e:	75fb      	strb	r3, [r7, #23]
 80085a0:	e01b      	b.n	80085da <VL53L0X_RdDWord+0x66>
 80085a2:	2204      	movs	r2, #4
 80085a4:	4910      	ldr	r1, [pc, #64]	; (80085e8 <VL53L0X_RdDWord+0x74>)
 80085a6:	68f8      	ldr	r0, [r7, #12]
 80085a8:	f7ff fe81 	bl	80082ae <_I2CRead>
 80085ac:	6138      	str	r0, [r7, #16]
 80085ae:	693b      	ldr	r3, [r7, #16]
 80085b0:	2b00      	cmp	r3, #0
 80085b2:	d002      	beq.n	80085ba <VL53L0X_RdDWord+0x46>
 80085b4:	23ec      	movs	r3, #236	; 0xec
 80085b6:	75fb      	strb	r3, [r7, #23]
 80085b8:	e00f      	b.n	80085da <VL53L0X_RdDWord+0x66>
 80085ba:	4b0b      	ldr	r3, [pc, #44]	; (80085e8 <VL53L0X_RdDWord+0x74>)
 80085bc:	781b      	ldrb	r3, [r3, #0]
 80085be:	061a      	lsls	r2, r3, #24
 80085c0:	4b09      	ldr	r3, [pc, #36]	; (80085e8 <VL53L0X_RdDWord+0x74>)
 80085c2:	785b      	ldrb	r3, [r3, #1]
 80085c4:	041b      	lsls	r3, r3, #16
 80085c6:	441a      	add	r2, r3
 80085c8:	4b07      	ldr	r3, [pc, #28]	; (80085e8 <VL53L0X_RdDWord+0x74>)
 80085ca:	789b      	ldrb	r3, [r3, #2]
 80085cc:	021b      	lsls	r3, r3, #8
 80085ce:	4413      	add	r3, r2
 80085d0:	4a05      	ldr	r2, [pc, #20]	; (80085e8 <VL53L0X_RdDWord+0x74>)
 80085d2:	78d2      	ldrb	r2, [r2, #3]
 80085d4:	441a      	add	r2, r3
 80085d6:	687b      	ldr	r3, [r7, #4]
 80085d8:	601a      	str	r2, [r3, #0]
 80085da:	f997 3017 	ldrsb.w	r3, [r7, #23]
 80085de:	4618      	mov	r0, r3
 80085e0:	3718      	adds	r7, #24
 80085e2:	46bd      	mov	sp, r7
 80085e4:	bd80      	pop	{r7, pc}
 80085e6:	bf00      	nop
 80085e8:	200003f0 	.word	0x200003f0

080085ec <VL53L0X_PollingDelay>:
 80085ec:	b580      	push	{r7, lr}
 80085ee:	b084      	sub	sp, #16
 80085f0:	af00      	add	r7, sp, #0
 80085f2:	6078      	str	r0, [r7, #4]
 80085f4:	2300      	movs	r3, #0
 80085f6:	73fb      	strb	r3, [r7, #15]
 80085f8:	2002      	movs	r0, #2
 80085fa:	f7f8 fcb9 	bl	8000f70 <HAL_Delay>
 80085fe:	f997 300f 	ldrsb.w	r3, [r7, #15]
 8008602:	4618      	mov	r0, r3
 8008604:	3710      	adds	r7, #16
 8008606:	46bd      	mov	sp, r7
 8008608:	bd80      	pop	{r7, pc}
	...

0800860c <__errno>:
 800860c:	4b01      	ldr	r3, [pc, #4]	; (8008614 <__errno+0x8>)
 800860e:	6818      	ldr	r0, [r3, #0]
 8008610:	4770      	bx	lr
 8008612:	bf00      	nop
 8008614:	200002c8 	.word	0x200002c8

08008618 <__libc_init_array>:
 8008618:	b570      	push	{r4, r5, r6, lr}
 800861a:	4e0d      	ldr	r6, [pc, #52]	; (8008650 <__libc_init_array+0x38>)
 800861c:	4c0d      	ldr	r4, [pc, #52]	; (8008654 <__libc_init_array+0x3c>)
 800861e:	1ba4      	subs	r4, r4, r6
 8008620:	10a4      	asrs	r4, r4, #2
 8008622:	2500      	movs	r5, #0
 8008624:	42a5      	cmp	r5, r4
 8008626:	d109      	bne.n	800863c <__libc_init_array+0x24>
 8008628:	4e0b      	ldr	r6, [pc, #44]	; (8008658 <__libc_init_array+0x40>)
 800862a:	4c0c      	ldr	r4, [pc, #48]	; (800865c <__libc_init_array+0x44>)
 800862c:	f001 f832 	bl	8009694 <_init>
 8008630:	1ba4      	subs	r4, r4, r6
 8008632:	10a4      	asrs	r4, r4, #2
 8008634:	2500      	movs	r5, #0
 8008636:	42a5      	cmp	r5, r4
 8008638:	d105      	bne.n	8008646 <__libc_init_array+0x2e>
 800863a:	bd70      	pop	{r4, r5, r6, pc}
 800863c:	f856 3025 	ldr.w	r3, [r6, r5, lsl #2]
 8008640:	4798      	blx	r3
 8008642:	3501      	adds	r5, #1
 8008644:	e7ee      	b.n	8008624 <__libc_init_array+0xc>
 8008646:	f856 3025 	ldr.w	r3, [r6, r5, lsl #2]
 800864a:	4798      	blx	r3
 800864c:	3501      	adds	r5, #1
 800864e:	e7f2      	b.n	8008636 <__libc_init_array+0x1e>
 8008650:	08009d60 	.word	0x08009d60
 8008654:	08009d60 	.word	0x08009d60
 8008658:	08009d60 	.word	0x08009d60
 800865c:	08009d64 	.word	0x08009d64

08008660 <memcpy>:
 8008660:	b510      	push	{r4, lr}
 8008662:	1e43      	subs	r3, r0, #1
 8008664:	440a      	add	r2, r1
 8008666:	4291      	cmp	r1, r2
 8008668:	d100      	bne.n	800866c <memcpy+0xc>
 800866a:	bd10      	pop	{r4, pc}
 800866c:	f811 4b01 	ldrb.w	r4, [r1], #1
 8008670:	f803 4f01 	strb.w	r4, [r3, #1]!
 8008674:	e7f7      	b.n	8008666 <memcpy+0x6>

08008676 <memset>:
 8008676:	4402      	add	r2, r0
 8008678:	4603      	mov	r3, r0
 800867a:	4293      	cmp	r3, r2
 800867c:	d100      	bne.n	8008680 <memset+0xa>
 800867e:	4770      	bx	lr
 8008680:	f803 1b01 	strb.w	r1, [r3], #1
 8008684:	e7f9      	b.n	800867a <memset+0x4>
	...

08008688 <iprintf>:
 8008688:	b40f      	push	{r0, r1, r2, r3}
 800868a:	4b0a      	ldr	r3, [pc, #40]	; (80086b4 <iprintf+0x2c>)
 800868c:	b513      	push	{r0, r1, r4, lr}
 800868e:	681c      	ldr	r4, [r3, #0]
 8008690:	b124      	cbz	r4, 800869c <iprintf+0x14>
 8008692:	69a3      	ldr	r3, [r4, #24]
 8008694:	b913      	cbnz	r3, 800869c <iprintf+0x14>
 8008696:	4620      	mov	r0, r4
 8008698:	f000 fad8 	bl	8008c4c <__sinit>
 800869c:	ab05      	add	r3, sp, #20
 800869e:	9a04      	ldr	r2, [sp, #16]
 80086a0:	68a1      	ldr	r1, [r4, #8]
 80086a2:	9301      	str	r3, [sp, #4]
 80086a4:	4620      	mov	r0, r4
 80086a6:	f000 fc99 	bl	8008fdc <_vfiprintf_r>
 80086aa:	b002      	add	sp, #8
 80086ac:	e8bd 4010 	ldmia.w	sp!, {r4, lr}
 80086b0:	b004      	add	sp, #16
 80086b2:	4770      	bx	lr
 80086b4:	200002c8 	.word	0x200002c8

080086b8 <_puts_r>:
 80086b8:	b570      	push	{r4, r5, r6, lr}
 80086ba:	460e      	mov	r6, r1
 80086bc:	4605      	mov	r5, r0
 80086be:	b118      	cbz	r0, 80086c8 <_puts_r+0x10>
 80086c0:	6983      	ldr	r3, [r0, #24]
 80086c2:	b90b      	cbnz	r3, 80086c8 <_puts_r+0x10>
 80086c4:	f000 fac2 	bl	8008c4c <__sinit>
 80086c8:	69ab      	ldr	r3, [r5, #24]
 80086ca:	68ac      	ldr	r4, [r5, #8]
 80086cc:	b913      	cbnz	r3, 80086d4 <_puts_r+0x1c>
 80086ce:	4628      	mov	r0, r5
 80086d0:	f000 fabc 	bl	8008c4c <__sinit>
 80086d4:	4b23      	ldr	r3, [pc, #140]	; (8008764 <_puts_r+0xac>)
 80086d6:	429c      	cmp	r4, r3
 80086d8:	d117      	bne.n	800870a <_puts_r+0x52>
 80086da:	686c      	ldr	r4, [r5, #4]
 80086dc:	89a3      	ldrh	r3, [r4, #12]
 80086de:	071b      	lsls	r3, r3, #28
 80086e0:	d51d      	bpl.n	800871e <_puts_r+0x66>
 80086e2:	6923      	ldr	r3, [r4, #16]
 80086e4:	b1db      	cbz	r3, 800871e <_puts_r+0x66>
 80086e6:	3e01      	subs	r6, #1
 80086e8:	68a3      	ldr	r3, [r4, #8]
 80086ea:	f816 1f01 	ldrb.w	r1, [r6, #1]!
 80086ee:	3b01      	subs	r3, #1
 80086f0:	60a3      	str	r3, [r4, #8]
 80086f2:	b9e9      	cbnz	r1, 8008730 <_puts_r+0x78>
 80086f4:	2b00      	cmp	r3, #0
 80086f6:	da2e      	bge.n	8008756 <_puts_r+0x9e>
 80086f8:	4622      	mov	r2, r4
 80086fa:	210a      	movs	r1, #10
 80086fc:	4628      	mov	r0, r5
 80086fe:	f000 f8f5 	bl	80088ec <__swbuf_r>
 8008702:	3001      	adds	r0, #1
 8008704:	d011      	beq.n	800872a <_puts_r+0x72>
 8008706:	200a      	movs	r0, #10
 8008708:	e011      	b.n	800872e <_puts_r+0x76>
 800870a:	4b17      	ldr	r3, [pc, #92]	; (8008768 <_puts_r+0xb0>)
 800870c:	429c      	cmp	r4, r3
 800870e:	d101      	bne.n	8008714 <_puts_r+0x5c>
 8008710:	68ac      	ldr	r4, [r5, #8]
 8008712:	e7e3      	b.n	80086dc <_puts_r+0x24>
 8008714:	4b15      	ldr	r3, [pc, #84]	; (800876c <_puts_r+0xb4>)
 8008716:	429c      	cmp	r4, r3
 8008718:	bf08      	it	eq
 800871a:	68ec      	ldreq	r4, [r5, #12]
 800871c:	e7de      	b.n	80086dc <_puts_r+0x24>
 800871e:	4621      	mov	r1, r4
 8008720:	4628      	mov	r0, r5
 8008722:	f000 f935 	bl	8008990 <__swsetup_r>
 8008726:	2800      	cmp	r0, #0
 8008728:	d0dd      	beq.n	80086e6 <_puts_r+0x2e>
 800872a:	f04f 30ff 	mov.w	r0, #4294967295
 800872e:	bd70      	pop	{r4, r5, r6, pc}
 8008730:	2b00      	cmp	r3, #0
 8008732:	da04      	bge.n	800873e <_puts_r+0x86>
 8008734:	69a2      	ldr	r2, [r4, #24]
 8008736:	429a      	cmp	r2, r3
 8008738:	dc06      	bgt.n	8008748 <_puts_r+0x90>
 800873a:	290a      	cmp	r1, #10
 800873c:	d004      	beq.n	8008748 <_puts_r+0x90>
 800873e:	6823      	ldr	r3, [r4, #0]
 8008740:	1c5a      	adds	r2, r3, #1
 8008742:	6022      	str	r2, [r4, #0]
 8008744:	7019      	strb	r1, [r3, #0]
 8008746:	e7cf      	b.n	80086e8 <_puts_r+0x30>
 8008748:	4622      	mov	r2, r4
 800874a:	4628      	mov	r0, r5
 800874c:	f000 f8ce 	bl	80088ec <__swbuf_r>
 8008750:	3001      	adds	r0, #1
 8008752:	d1c9      	bne.n	80086e8 <_puts_r+0x30>
 8008754:	e7e9      	b.n	800872a <_puts_r+0x72>
 8008756:	6823      	ldr	r3, [r4, #0]
 8008758:	200a      	movs	r0, #10
 800875a:	1c5a      	adds	r2, r3, #1
 800875c:	6022      	str	r2, [r4, #0]
 800875e:	7018      	strb	r0, [r3, #0]
 8008760:	e7e5      	b.n	800872e <_puts_r+0x76>
 8008762:	bf00      	nop
 8008764:	08009ce4 	.word	0x08009ce4
 8008768:	08009d04 	.word	0x08009d04
 800876c:	08009cc4 	.word	0x08009cc4

08008770 <puts>:
 8008770:	4b02      	ldr	r3, [pc, #8]	; (800877c <puts+0xc>)
 8008772:	4601      	mov	r1, r0
 8008774:	6818      	ldr	r0, [r3, #0]
 8008776:	f7ff bf9f 	b.w	80086b8 <_puts_r>
 800877a:	bf00      	nop
 800877c:	200002c8 	.word	0x200002c8

08008780 <setvbuf>:
 8008780:	e92d 43f7 	stmdb	sp!, {r0, r1, r2, r4, r5, r6, r7, r8, r9, lr}
 8008784:	461d      	mov	r5, r3
 8008786:	4b51      	ldr	r3, [pc, #324]	; (80088cc <setvbuf+0x14c>)
 8008788:	681e      	ldr	r6, [r3, #0]
 800878a:	4604      	mov	r4, r0
 800878c:	460f      	mov	r7, r1
 800878e:	4690      	mov	r8, r2
 8008790:	b126      	cbz	r6, 800879c <setvbuf+0x1c>
 8008792:	69b3      	ldr	r3, [r6, #24]
 8008794:	b913      	cbnz	r3, 800879c <setvbuf+0x1c>
 8008796:	4630      	mov	r0, r6
 8008798:	f000 fa58 	bl	8008c4c <__sinit>
 800879c:	4b4c      	ldr	r3, [pc, #304]	; (80088d0 <setvbuf+0x150>)
 800879e:	429c      	cmp	r4, r3
 80087a0:	d152      	bne.n	8008848 <setvbuf+0xc8>
 80087a2:	6874      	ldr	r4, [r6, #4]
 80087a4:	f1b8 0f02 	cmp.w	r8, #2
 80087a8:	d006      	beq.n	80087b8 <setvbuf+0x38>
 80087aa:	f1b8 0f01 	cmp.w	r8, #1
 80087ae:	f200 8089 	bhi.w	80088c4 <setvbuf+0x144>
 80087b2:	2d00      	cmp	r5, #0
 80087b4:	f2c0 8086 	blt.w	80088c4 <setvbuf+0x144>
 80087b8:	4621      	mov	r1, r4
 80087ba:	4630      	mov	r0, r6
 80087bc:	f000 f9dc 	bl	8008b78 <_fflush_r>
 80087c0:	6b61      	ldr	r1, [r4, #52]	; 0x34
 80087c2:	b141      	cbz	r1, 80087d6 <setvbuf+0x56>
 80087c4:	f104 0344 	add.w	r3, r4, #68	; 0x44
 80087c8:	4299      	cmp	r1, r3
 80087ca:	d002      	beq.n	80087d2 <setvbuf+0x52>
 80087cc:	4630      	mov	r0, r6
 80087ce:	f000 fb33 	bl	8008e38 <_free_r>
 80087d2:	2300      	movs	r3, #0
 80087d4:	6363      	str	r3, [r4, #52]	; 0x34
 80087d6:	2300      	movs	r3, #0
 80087d8:	61a3      	str	r3, [r4, #24]
 80087da:	6063      	str	r3, [r4, #4]
 80087dc:	89a3      	ldrh	r3, [r4, #12]
 80087de:	061b      	lsls	r3, r3, #24
 80087e0:	d503      	bpl.n	80087ea <setvbuf+0x6a>
 80087e2:	6921      	ldr	r1, [r4, #16]
 80087e4:	4630      	mov	r0, r6
 80087e6:	f000 fb27 	bl	8008e38 <_free_r>
 80087ea:	89a3      	ldrh	r3, [r4, #12]
 80087ec:	f423 634a 	bic.w	r3, r3, #3232	; 0xca0
 80087f0:	f023 0303 	bic.w	r3, r3, #3
 80087f4:	f1b8 0f02 	cmp.w	r8, #2
 80087f8:	81a3      	strh	r3, [r4, #12]
 80087fa:	d05d      	beq.n	80088b8 <setvbuf+0x138>
 80087fc:	ab01      	add	r3, sp, #4
 80087fe:	466a      	mov	r2, sp
 8008800:	4621      	mov	r1, r4
 8008802:	4630      	mov	r0, r6
 8008804:	f000 faac 	bl	8008d60 <__swhatbuf_r>
 8008808:	89a3      	ldrh	r3, [r4, #12]
 800880a:	4318      	orrs	r0, r3
 800880c:	81a0      	strh	r0, [r4, #12]
 800880e:	bb2d      	cbnz	r5, 800885c <setvbuf+0xdc>
 8008810:	9d00      	ldr	r5, [sp, #0]
 8008812:	4628      	mov	r0, r5
 8008814:	f000 fb08 	bl	8008e28 <malloc>
 8008818:	4607      	mov	r7, r0
 800881a:	2800      	cmp	r0, #0
 800881c:	d14e      	bne.n	80088bc <setvbuf+0x13c>
 800881e:	f8dd 9000 	ldr.w	r9, [sp]
 8008822:	45a9      	cmp	r9, r5
 8008824:	d13c      	bne.n	80088a0 <setvbuf+0x120>
 8008826:	f04f 30ff 	mov.w	r0, #4294967295
 800882a:	89a3      	ldrh	r3, [r4, #12]
 800882c:	f043 0302 	orr.w	r3, r3, #2
 8008830:	81a3      	strh	r3, [r4, #12]
 8008832:	2300      	movs	r3, #0
 8008834:	60a3      	str	r3, [r4, #8]
 8008836:	f104 0347 	add.w	r3, r4, #71	; 0x47
 800883a:	6023      	str	r3, [r4, #0]
 800883c:	6123      	str	r3, [r4, #16]
 800883e:	2301      	movs	r3, #1
 8008840:	6163      	str	r3, [r4, #20]
 8008842:	b003      	add	sp, #12
 8008844:	e8bd 83f0 	ldmia.w	sp!, {r4, r5, r6, r7, r8, r9, pc}
 8008848:	4b22      	ldr	r3, [pc, #136]	; (80088d4 <setvbuf+0x154>)
 800884a:	429c      	cmp	r4, r3
 800884c:	d101      	bne.n	8008852 <setvbuf+0xd2>
 800884e:	68b4      	ldr	r4, [r6, #8]
 8008850:	e7a8      	b.n	80087a4 <setvbuf+0x24>
 8008852:	4b21      	ldr	r3, [pc, #132]	; (80088d8 <setvbuf+0x158>)
 8008854:	429c      	cmp	r4, r3
 8008856:	bf08      	it	eq
 8008858:	68f4      	ldreq	r4, [r6, #12]
 800885a:	e7a3      	b.n	80087a4 <setvbuf+0x24>
 800885c:	2f00      	cmp	r7, #0
 800885e:	d0d8      	beq.n	8008812 <setvbuf+0x92>
 8008860:	69b3      	ldr	r3, [r6, #24]
 8008862:	b913      	cbnz	r3, 800886a <setvbuf+0xea>
 8008864:	4630      	mov	r0, r6
 8008866:	f000 f9f1 	bl	8008c4c <__sinit>
 800886a:	f1b8 0f01 	cmp.w	r8, #1
 800886e:	bf08      	it	eq
 8008870:	89a3      	ldrheq	r3, [r4, #12]
 8008872:	6027      	str	r7, [r4, #0]
 8008874:	bf04      	itt	eq
 8008876:	f043 0301 	orreq.w	r3, r3, #1
 800887a:	81a3      	strheq	r3, [r4, #12]
 800887c:	89a3      	ldrh	r3, [r4, #12]
 800887e:	f013 0008 	ands.w	r0, r3, #8
 8008882:	e9c4 7504 	strd	r7, r5, [r4, #16]
 8008886:	d01b      	beq.n	80088c0 <setvbuf+0x140>
 8008888:	f013 0001 	ands.w	r0, r3, #1
 800888c:	bf18      	it	ne
 800888e:	426d      	negne	r5, r5
 8008890:	f04f 0300 	mov.w	r3, #0
 8008894:	bf1d      	ittte	ne
 8008896:	60a3      	strne	r3, [r4, #8]
 8008898:	61a5      	strne	r5, [r4, #24]
 800889a:	4618      	movne	r0, r3
 800889c:	60a5      	streq	r5, [r4, #8]
 800889e:	e7d0      	b.n	8008842 <setvbuf+0xc2>
 80088a0:	4648      	mov	r0, r9
 80088a2:	f000 fac1 	bl	8008e28 <malloc>
 80088a6:	4607      	mov	r7, r0
 80088a8:	2800      	cmp	r0, #0
 80088aa:	d0bc      	beq.n	8008826 <setvbuf+0xa6>
 80088ac:	89a3      	ldrh	r3, [r4, #12]
 80088ae:	f043 0380 	orr.w	r3, r3, #128	; 0x80
 80088b2:	81a3      	strh	r3, [r4, #12]
 80088b4:	464d      	mov	r5, r9
 80088b6:	e7d3      	b.n	8008860 <setvbuf+0xe0>
 80088b8:	2000      	movs	r0, #0
 80088ba:	e7b6      	b.n	800882a <setvbuf+0xaa>
 80088bc:	46a9      	mov	r9, r5
 80088be:	e7f5      	b.n	80088ac <setvbuf+0x12c>
 80088c0:	60a0      	str	r0, [r4, #8]
 80088c2:	e7be      	b.n	8008842 <setvbuf+0xc2>
 80088c4:	f04f 30ff 	mov.w	r0, #4294967295
 80088c8:	e7bb      	b.n	8008842 <setvbuf+0xc2>
 80088ca:	bf00      	nop
 80088cc:	200002c8 	.word	0x200002c8
 80088d0:	08009ce4 	.word	0x08009ce4
 80088d4:	08009d04 	.word	0x08009d04
 80088d8:	08009cc4 	.word	0x08009cc4

080088dc <strcpy>:
 80088dc:	4603      	mov	r3, r0
 80088de:	f811 2b01 	ldrb.w	r2, [r1], #1
 80088e2:	f803 2b01 	strb.w	r2, [r3], #1
 80088e6:	2a00      	cmp	r2, #0
 80088e8:	d1f9      	bne.n	80088de <strcpy+0x2>
 80088ea:	4770      	bx	lr

080088ec <__swbuf_r>:
 80088ec:	b5f8      	push	{r3, r4, r5, r6, r7, lr}
 80088ee:	460e      	mov	r6, r1
 80088f0:	4614      	mov	r4, r2
 80088f2:	4605      	mov	r5, r0
 80088f4:	b118      	cbz	r0, 80088fe <__swbuf_r+0x12>
 80088f6:	6983      	ldr	r3, [r0, #24]
 80088f8:	b90b      	cbnz	r3, 80088fe <__swbuf_r+0x12>
 80088fa:	f000 f9a7 	bl	8008c4c <__sinit>
 80088fe:	4b21      	ldr	r3, [pc, #132]	; (8008984 <__swbuf_r+0x98>)
 8008900:	429c      	cmp	r4, r3
 8008902:	d12a      	bne.n	800895a <__swbuf_r+0x6e>
 8008904:	686c      	ldr	r4, [r5, #4]
 8008906:	69a3      	ldr	r3, [r4, #24]
 8008908:	60a3      	str	r3, [r4, #8]
 800890a:	89a3      	ldrh	r3, [r4, #12]
 800890c:	071a      	lsls	r2, r3, #28
 800890e:	d52e      	bpl.n	800896e <__swbuf_r+0x82>
 8008910:	6923      	ldr	r3, [r4, #16]
 8008912:	b363      	cbz	r3, 800896e <__swbuf_r+0x82>
 8008914:	6923      	ldr	r3, [r4, #16]
 8008916:	6820      	ldr	r0, [r4, #0]
 8008918:	1ac0      	subs	r0, r0, r3
 800891a:	6963      	ldr	r3, [r4, #20]
 800891c:	b2f6      	uxtb	r6, r6
 800891e:	4283      	cmp	r3, r0
 8008920:	4637      	mov	r7, r6
 8008922:	dc04      	bgt.n	800892e <__swbuf_r+0x42>
 8008924:	4621      	mov	r1, r4
 8008926:	4628      	mov	r0, r5
 8008928:	f000 f926 	bl	8008b78 <_fflush_r>
 800892c:	bb28      	cbnz	r0, 800897a <__swbuf_r+0x8e>
 800892e:	68a3      	ldr	r3, [r4, #8]
 8008930:	3b01      	subs	r3, #1
 8008932:	60a3      	str	r3, [r4, #8]
 8008934:	6823      	ldr	r3, [r4, #0]
 8008936:	1c5a      	adds	r2, r3, #1
 8008938:	6022      	str	r2, [r4, #0]
 800893a:	701e      	strb	r6, [r3, #0]
 800893c:	6963      	ldr	r3, [r4, #20]
 800893e:	3001      	adds	r0, #1
 8008940:	4283      	cmp	r3, r0
 8008942:	d004      	beq.n	800894e <__swbuf_r+0x62>
 8008944:	89a3      	ldrh	r3, [r4, #12]
 8008946:	07db      	lsls	r3, r3, #31
 8008948:	d519      	bpl.n	800897e <__swbuf_r+0x92>
 800894a:	2e0a      	cmp	r6, #10
 800894c:	d117      	bne.n	800897e <__swbuf_r+0x92>
 800894e:	4621      	mov	r1, r4
 8008950:	4628      	mov	r0, r5
 8008952:	f000 f911 	bl	8008b78 <_fflush_r>
 8008956:	b190      	cbz	r0, 800897e <__swbuf_r+0x92>
 8008958:	e00f      	b.n	800897a <__swbuf_r+0x8e>
 800895a:	4b0b      	ldr	r3, [pc, #44]	; (8008988 <__swbuf_r+0x9c>)
 800895c:	429c      	cmp	r4, r3
 800895e:	d101      	bne.n	8008964 <__swbuf_r+0x78>
 8008960:	68ac      	ldr	r4, [r5, #8]
 8008962:	e7d0      	b.n	8008906 <__swbuf_r+0x1a>
 8008964:	4b09      	ldr	r3, [pc, #36]	; (800898c <__swbuf_r+0xa0>)
 8008966:	429c      	cmp	r4, r3
 8008968:	bf08      	it	eq
 800896a:	68ec      	ldreq	r4, [r5, #12]
 800896c:	e7cb      	b.n	8008906 <__swbuf_r+0x1a>
 800896e:	4621      	mov	r1, r4
 8008970:	4628      	mov	r0, r5
 8008972:	f000 f80d 	bl	8008990 <__swsetup_r>
 8008976:	2800      	cmp	r0, #0
 8008978:	d0cc      	beq.n	8008914 <__swbuf_r+0x28>
 800897a:	f04f 37ff 	mov.w	r7, #4294967295
 800897e:	4638      	mov	r0, r7
 8008980:	bdf8      	pop	{r3, r4, r5, r6, r7, pc}
 8008982:	bf00      	nop
 8008984:	08009ce4 	.word	0x08009ce4
 8008988:	08009d04 	.word	0x08009d04
 800898c:	08009cc4 	.word	0x08009cc4

08008990 <__swsetup_r>:
 8008990:	4b32      	ldr	r3, [pc, #200]	; (8008a5c <__swsetup_r+0xcc>)
 8008992:	b570      	push	{r4, r5, r6, lr}
 8008994:	681d      	ldr	r5, [r3, #0]
 8008996:	4606      	mov	r6, r0
 8008998:	460c      	mov	r4, r1
 800899a:	b125      	cbz	r5, 80089a6 <__swsetup_r+0x16>
 800899c:	69ab      	ldr	r3, [r5, #24]
 800899e:	b913      	cbnz	r3, 80089a6 <__swsetup_r+0x16>
 80089a0:	4628      	mov	r0, r5
 80089a2:	f000 f953 	bl	8008c4c <__sinit>
 80089a6:	4b2e      	ldr	r3, [pc, #184]	; (8008a60 <__swsetup_r+0xd0>)
 80089a8:	429c      	cmp	r4, r3
 80089aa:	d10f      	bne.n	80089cc <__swsetup_r+0x3c>
 80089ac:	686c      	ldr	r4, [r5, #4]
 80089ae:	f9b4 300c 	ldrsh.w	r3, [r4, #12]
 80089b2:	b29a      	uxth	r2, r3
 80089b4:	0715      	lsls	r5, r2, #28
 80089b6:	d42c      	bmi.n	8008a12 <__swsetup_r+0x82>
 80089b8:	06d0      	lsls	r0, r2, #27
 80089ba:	d411      	bmi.n	80089e0 <__swsetup_r+0x50>
 80089bc:	2209      	movs	r2, #9
 80089be:	6032      	str	r2, [r6, #0]
 80089c0:	f043 0340 	orr.w	r3, r3, #64	; 0x40
 80089c4:	81a3      	strh	r3, [r4, #12]
 80089c6:	f04f 30ff 	mov.w	r0, #4294967295
 80089ca:	e03e      	b.n	8008a4a <__swsetup_r+0xba>
 80089cc:	4b25      	ldr	r3, [pc, #148]	; (8008a64 <__swsetup_r+0xd4>)
 80089ce:	429c      	cmp	r4, r3
 80089d0:	d101      	bne.n	80089d6 <__swsetup_r+0x46>
 80089d2:	68ac      	ldr	r4, [r5, #8]
 80089d4:	e7eb      	b.n	80089ae <__swsetup_r+0x1e>
 80089d6:	4b24      	ldr	r3, [pc, #144]	; (8008a68 <__swsetup_r+0xd8>)
 80089d8:	429c      	cmp	r4, r3
 80089da:	bf08      	it	eq
 80089dc:	68ec      	ldreq	r4, [r5, #12]
 80089de:	e7e6      	b.n	80089ae <__swsetup_r+0x1e>
 80089e0:	0751      	lsls	r1, r2, #29
 80089e2:	d512      	bpl.n	8008a0a <__swsetup_r+0x7a>
 80089e4:	6b61      	ldr	r1, [r4, #52]	; 0x34
 80089e6:	b141      	cbz	r1, 80089fa <__swsetup_r+0x6a>
 80089e8:	f104 0344 	add.w	r3, r4, #68	; 0x44
 80089ec:	4299      	cmp	r1, r3
 80089ee:	d002      	beq.n	80089f6 <__swsetup_r+0x66>
 80089f0:	4630      	mov	r0, r6
 80089f2:	f000 fa21 	bl	8008e38 <_free_r>
 80089f6:	2300      	movs	r3, #0
 80089f8:	6363      	str	r3, [r4, #52]	; 0x34
 80089fa:	89a3      	ldrh	r3, [r4, #12]
 80089fc:	f023 0324 	bic.w	r3, r3, #36	; 0x24
 8008a00:	81a3      	strh	r3, [r4, #12]
 8008a02:	2300      	movs	r3, #0
 8008a04:	6063      	str	r3, [r4, #4]
 8008a06:	6923      	ldr	r3, [r4, #16]
 8008a08:	6023      	str	r3, [r4, #0]
 8008a0a:	89a3      	ldrh	r3, [r4, #12]
 8008a0c:	f043 0308 	orr.w	r3, r3, #8
 8008a10:	81a3      	strh	r3, [r4, #12]
 8008a12:	6923      	ldr	r3, [r4, #16]
 8008a14:	b94b      	cbnz	r3, 8008a2a <__swsetup_r+0x9a>
 8008a16:	89a3      	ldrh	r3, [r4, #12]
 8008a18:	f403 7320 	and.w	r3, r3, #640	; 0x280
 8008a1c:	f5b3 7f00 	cmp.w	r3, #512	; 0x200
 8008a20:	d003      	beq.n	8008a2a <__swsetup_r+0x9a>
 8008a22:	4621      	mov	r1, r4
 8008a24:	4630      	mov	r0, r6
 8008a26:	f000 f9bf 	bl	8008da8 <__smakebuf_r>
 8008a2a:	89a2      	ldrh	r2, [r4, #12]
 8008a2c:	f012 0301 	ands.w	r3, r2, #1
 8008a30:	d00c      	beq.n	8008a4c <__swsetup_r+0xbc>
 8008a32:	2300      	movs	r3, #0
 8008a34:	60a3      	str	r3, [r4, #8]
 8008a36:	6963      	ldr	r3, [r4, #20]
 8008a38:	425b      	negs	r3, r3
 8008a3a:	61a3      	str	r3, [r4, #24]
 8008a3c:	6923      	ldr	r3, [r4, #16]
 8008a3e:	b953      	cbnz	r3, 8008a56 <__swsetup_r+0xc6>
 8008a40:	f9b4 300c 	ldrsh.w	r3, [r4, #12]
 8008a44:	f013 0080 	ands.w	r0, r3, #128	; 0x80
 8008a48:	d1ba      	bne.n	80089c0 <__swsetup_r+0x30>
 8008a4a:	bd70      	pop	{r4, r5, r6, pc}
 8008a4c:	0792      	lsls	r2, r2, #30
 8008a4e:	bf58      	it	pl
 8008a50:	6963      	ldrpl	r3, [r4, #20]
 8008a52:	60a3      	str	r3, [r4, #8]
 8008a54:	e7f2      	b.n	8008a3c <__swsetup_r+0xac>
 8008a56:	2000      	movs	r0, #0
 8008a58:	e7f7      	b.n	8008a4a <__swsetup_r+0xba>
 8008a5a:	bf00      	nop
 8008a5c:	200002c8 	.word	0x200002c8
 8008a60:	08009ce4 	.word	0x08009ce4
 8008a64:	08009d04 	.word	0x08009d04
 8008a68:	08009cc4 	.word	0x08009cc4

08008a6c <__sflush_r>:
 8008a6c:	898a      	ldrh	r2, [r1, #12]
 8008a6e:	e92d 41f0 	stmdb	sp!, {r4, r5, r6, r7, r8, lr}
 8008a72:	4605      	mov	r5, r0
 8008a74:	0710      	lsls	r0, r2, #28
 8008a76:	460c      	mov	r4, r1
 8008a78:	d458      	bmi.n	8008b2c <__sflush_r+0xc0>
 8008a7a:	684b      	ldr	r3, [r1, #4]
 8008a7c:	2b00      	cmp	r3, #0
 8008a7e:	dc05      	bgt.n	8008a8c <__sflush_r+0x20>
 8008a80:	6c0b      	ldr	r3, [r1, #64]	; 0x40
 8008a82:	2b00      	cmp	r3, #0
 8008a84:	dc02      	bgt.n	8008a8c <__sflush_r+0x20>
 8008a86:	2000      	movs	r0, #0
 8008a88:	e8bd 81f0 	ldmia.w	sp!, {r4, r5, r6, r7, r8, pc}
 8008a8c:	6ae6      	ldr	r6, [r4, #44]	; 0x2c
 8008a8e:	2e00      	cmp	r6, #0
 8008a90:	d0f9      	beq.n	8008a86 <__sflush_r+0x1a>
 8008a92:	2300      	movs	r3, #0
 8008a94:	f412 5280 	ands.w	r2, r2, #4096	; 0x1000
 8008a98:	682f      	ldr	r7, [r5, #0]
 8008a9a:	6a21      	ldr	r1, [r4, #32]
 8008a9c:	602b      	str	r3, [r5, #0]
 8008a9e:	d032      	beq.n	8008b06 <__sflush_r+0x9a>
 8008aa0:	6d60      	ldr	r0, [r4, #84]	; 0x54
 8008aa2:	89a3      	ldrh	r3, [r4, #12]
 8008aa4:	075a      	lsls	r2, r3, #29
 8008aa6:	d505      	bpl.n	8008ab4 <__sflush_r+0x48>
 8008aa8:	6863      	ldr	r3, [r4, #4]
 8008aaa:	1ac0      	subs	r0, r0, r3
 8008aac:	6b63      	ldr	r3, [r4, #52]	; 0x34
 8008aae:	b10b      	cbz	r3, 8008ab4 <__sflush_r+0x48>
 8008ab0:	6c23      	ldr	r3, [r4, #64]	; 0x40
 8008ab2:	1ac0      	subs	r0, r0, r3
 8008ab4:	2300      	movs	r3, #0
 8008ab6:	4602      	mov	r2, r0
 8008ab8:	6ae6      	ldr	r6, [r4, #44]	; 0x2c
 8008aba:	6a21      	ldr	r1, [r4, #32]
 8008abc:	4628      	mov	r0, r5
 8008abe:	47b0      	blx	r6
 8008ac0:	1c43      	adds	r3, r0, #1
 8008ac2:	89a3      	ldrh	r3, [r4, #12]
 8008ac4:	d106      	bne.n	8008ad4 <__sflush_r+0x68>
 8008ac6:	6829      	ldr	r1, [r5, #0]
 8008ac8:	291d      	cmp	r1, #29
 8008aca:	d848      	bhi.n	8008b5e <__sflush_r+0xf2>
 8008acc:	4a29      	ldr	r2, [pc, #164]	; (8008b74 <__sflush_r+0x108>)
 8008ace:	40ca      	lsrs	r2, r1
 8008ad0:	07d6      	lsls	r6, r2, #31
 8008ad2:	d544      	bpl.n	8008b5e <__sflush_r+0xf2>
 8008ad4:	2200      	movs	r2, #0
 8008ad6:	6062      	str	r2, [r4, #4]
 8008ad8:	04d9      	lsls	r1, r3, #19
 8008ada:	6922      	ldr	r2, [r4, #16]
 8008adc:	6022      	str	r2, [r4, #0]
 8008ade:	d504      	bpl.n	8008aea <__sflush_r+0x7e>
 8008ae0:	1c42      	adds	r2, r0, #1
 8008ae2:	d101      	bne.n	8008ae8 <__sflush_r+0x7c>
 8008ae4:	682b      	ldr	r3, [r5, #0]
 8008ae6:	b903      	cbnz	r3, 8008aea <__sflush_r+0x7e>
 8008ae8:	6560      	str	r0, [r4, #84]	; 0x54
 8008aea:	6b61      	ldr	r1, [r4, #52]	; 0x34
 8008aec:	602f      	str	r7, [r5, #0]
 8008aee:	2900      	cmp	r1, #0
 8008af0:	d0c9      	beq.n	8008a86 <__sflush_r+0x1a>
 8008af2:	f104 0344 	add.w	r3, r4, #68	; 0x44
 8008af6:	4299      	cmp	r1, r3
 8008af8:	d002      	beq.n	8008b00 <__sflush_r+0x94>
 8008afa:	4628      	mov	r0, r5
 8008afc:	f000 f99c 	bl	8008e38 <_free_r>
 8008b00:	2000      	movs	r0, #0
 8008b02:	6360      	str	r0, [r4, #52]	; 0x34
 8008b04:	e7c0      	b.n	8008a88 <__sflush_r+0x1c>
 8008b06:	2301      	movs	r3, #1
 8008b08:	4628      	mov	r0, r5
 8008b0a:	47b0      	blx	r6
 8008b0c:	1c41      	adds	r1, r0, #1
 8008b0e:	d1c8      	bne.n	8008aa2 <__sflush_r+0x36>
 8008b10:	682b      	ldr	r3, [r5, #0]
 8008b12:	2b00      	cmp	r3, #0
 8008b14:	d0c5      	beq.n	8008aa2 <__sflush_r+0x36>
 8008b16:	2b1d      	cmp	r3, #29
 8008b18:	d001      	beq.n	8008b1e <__sflush_r+0xb2>
 8008b1a:	2b16      	cmp	r3, #22
 8008b1c:	d101      	bne.n	8008b22 <__sflush_r+0xb6>
 8008b1e:	602f      	str	r7, [r5, #0]
 8008b20:	e7b1      	b.n	8008a86 <__sflush_r+0x1a>
 8008b22:	89a3      	ldrh	r3, [r4, #12]
 8008b24:	f043 0340 	orr.w	r3, r3, #64	; 0x40
 8008b28:	81a3      	strh	r3, [r4, #12]
 8008b2a:	e7ad      	b.n	8008a88 <__sflush_r+0x1c>
 8008b2c:	690f      	ldr	r7, [r1, #16]
 8008b2e:	2f00      	cmp	r7, #0
 8008b30:	d0a9      	beq.n	8008a86 <__sflush_r+0x1a>
 8008b32:	0793      	lsls	r3, r2, #30
 8008b34:	680e      	ldr	r6, [r1, #0]
 8008b36:	bf08      	it	eq
 8008b38:	694b      	ldreq	r3, [r1, #20]
 8008b3a:	600f      	str	r7, [r1, #0]
 8008b3c:	bf18      	it	ne
 8008b3e:	2300      	movne	r3, #0
 8008b40:	eba6 0807 	sub.w	r8, r6, r7
 8008b44:	608b      	str	r3, [r1, #8]
 8008b46:	f1b8 0f00 	cmp.w	r8, #0
 8008b4a:	dd9c      	ble.n	8008a86 <__sflush_r+0x1a>
 8008b4c:	4643      	mov	r3, r8
 8008b4e:	463a      	mov	r2, r7
 8008b50:	6a21      	ldr	r1, [r4, #32]
 8008b52:	6aa6      	ldr	r6, [r4, #40]	; 0x28
 8008b54:	4628      	mov	r0, r5
 8008b56:	47b0      	blx	r6
 8008b58:	2800      	cmp	r0, #0
 8008b5a:	dc06      	bgt.n	8008b6a <__sflush_r+0xfe>
 8008b5c:	89a3      	ldrh	r3, [r4, #12]
 8008b5e:	f043 0340 	orr.w	r3, r3, #64	; 0x40
 8008b62:	81a3      	strh	r3, [r4, #12]
 8008b64:	f04f 30ff 	mov.w	r0, #4294967295
 8008b68:	e78e      	b.n	8008a88 <__sflush_r+0x1c>
 8008b6a:	4407      	add	r7, r0
 8008b6c:	eba8 0800 	sub.w	r8, r8, r0
 8008b70:	e7e9      	b.n	8008b46 <__sflush_r+0xda>
 8008b72:	bf00      	nop
 8008b74:	20400001 	.word	0x20400001

08008b78 <_fflush_r>:
 8008b78:	b538      	push	{r3, r4, r5, lr}
 8008b7a:	690b      	ldr	r3, [r1, #16]
 8008b7c:	4605      	mov	r5, r0
 8008b7e:	460c      	mov	r4, r1
 8008b80:	b1db      	cbz	r3, 8008bba <_fflush_r+0x42>
 8008b82:	b118      	cbz	r0, 8008b8c <_fflush_r+0x14>
 8008b84:	6983      	ldr	r3, [r0, #24]
 8008b86:	b90b      	cbnz	r3, 8008b8c <_fflush_r+0x14>
 8008b88:	f000 f860 	bl	8008c4c <__sinit>
 8008b8c:	4b0c      	ldr	r3, [pc, #48]	; (8008bc0 <_fflush_r+0x48>)
 8008b8e:	429c      	cmp	r4, r3
 8008b90:	d109      	bne.n	8008ba6 <_fflush_r+0x2e>
 8008b92:	686c      	ldr	r4, [r5, #4]
 8008b94:	f9b4 300c 	ldrsh.w	r3, [r4, #12]
 8008b98:	b17b      	cbz	r3, 8008bba <_fflush_r+0x42>
 8008b9a:	4621      	mov	r1, r4
 8008b9c:	4628      	mov	r0, r5
 8008b9e:	e8bd 4038 	ldmia.w	sp!, {r3, r4, r5, lr}
 8008ba2:	f7ff bf63 	b.w	8008a6c <__sflush_r>
 8008ba6:	4b07      	ldr	r3, [pc, #28]	; (8008bc4 <_fflush_r+0x4c>)
 8008ba8:	429c      	cmp	r4, r3
 8008baa:	d101      	bne.n	8008bb0 <_fflush_r+0x38>
 8008bac:	68ac      	ldr	r4, [r5, #8]
 8008bae:	e7f1      	b.n	8008b94 <_fflush_r+0x1c>
 8008bb0:	4b05      	ldr	r3, [pc, #20]	; (8008bc8 <_fflush_r+0x50>)
 8008bb2:	429c      	cmp	r4, r3
 8008bb4:	bf08      	it	eq
 8008bb6:	68ec      	ldreq	r4, [r5, #12]
 8008bb8:	e7ec      	b.n	8008b94 <_fflush_r+0x1c>
 8008bba:	2000      	movs	r0, #0
 8008bbc:	bd38      	pop	{r3, r4, r5, pc}
 8008bbe:	bf00      	nop
 8008bc0:	08009ce4 	.word	0x08009ce4
 8008bc4:	08009d04 	.word	0x08009d04
 8008bc8:	08009cc4 	.word	0x08009cc4

08008bcc <std>:
 8008bcc:	2300      	movs	r3, #0
 8008bce:	b510      	push	{r4, lr}
 8008bd0:	4604      	mov	r4, r0
 8008bd2:	e9c0 3300 	strd	r3, r3, [r0]
 8008bd6:	6083      	str	r3, [r0, #8]
 8008bd8:	8181      	strh	r1, [r0, #12]
 8008bda:	6643      	str	r3, [r0, #100]	; 0x64
 8008bdc:	81c2      	strh	r2, [r0, #14]
 8008bde:	e9c0 3304 	strd	r3, r3, [r0, #16]
 8008be2:	6183      	str	r3, [r0, #24]
 8008be4:	4619      	mov	r1, r3
 8008be6:	2208      	movs	r2, #8
 8008be8:	305c      	adds	r0, #92	; 0x5c
 8008bea:	f7ff fd44 	bl	8008676 <memset>
 8008bee:	4b05      	ldr	r3, [pc, #20]	; (8008c04 <std+0x38>)
 8008bf0:	6263      	str	r3, [r4, #36]	; 0x24
 8008bf2:	4b05      	ldr	r3, [pc, #20]	; (8008c08 <std+0x3c>)
 8008bf4:	62a3      	str	r3, [r4, #40]	; 0x28
 8008bf6:	4b05      	ldr	r3, [pc, #20]	; (8008c0c <std+0x40>)
 8008bf8:	62e3      	str	r3, [r4, #44]	; 0x2c
 8008bfa:	4b05      	ldr	r3, [pc, #20]	; (8008c10 <std+0x44>)
 8008bfc:	6224      	str	r4, [r4, #32]
 8008bfe:	6323      	str	r3, [r4, #48]	; 0x30
 8008c00:	bd10      	pop	{r4, pc}
 8008c02:	bf00      	nop
 8008c04:	08009539 	.word	0x08009539
 8008c08:	0800955b 	.word	0x0800955b
 8008c0c:	08009593 	.word	0x08009593
 8008c10:	080095b7 	.word	0x080095b7

08008c14 <_cleanup_r>:
 8008c14:	4901      	ldr	r1, [pc, #4]	; (8008c1c <_cleanup_r+0x8>)
 8008c16:	f000 b885 	b.w	8008d24 <_fwalk_reent>
 8008c1a:	bf00      	nop
 8008c1c:	08008b79 	.word	0x08008b79

08008c20 <__sfmoreglue>:
 8008c20:	b570      	push	{r4, r5, r6, lr}
 8008c22:	1e4a      	subs	r2, r1, #1
 8008c24:	2568      	movs	r5, #104	; 0x68
 8008c26:	4355      	muls	r5, r2
 8008c28:	460e      	mov	r6, r1
 8008c2a:	f105 0174 	add.w	r1, r5, #116	; 0x74
 8008c2e:	f000 f951 	bl	8008ed4 <_malloc_r>
 8008c32:	4604      	mov	r4, r0
 8008c34:	b140      	cbz	r0, 8008c48 <__sfmoreglue+0x28>
 8008c36:	2100      	movs	r1, #0
 8008c38:	e9c0 1600 	strd	r1, r6, [r0]
 8008c3c:	300c      	adds	r0, #12
 8008c3e:	60a0      	str	r0, [r4, #8]
 8008c40:	f105 0268 	add.w	r2, r5, #104	; 0x68
 8008c44:	f7ff fd17 	bl	8008676 <memset>
 8008c48:	4620      	mov	r0, r4
 8008c4a:	bd70      	pop	{r4, r5, r6, pc}

08008c4c <__sinit>:
 8008c4c:	6983      	ldr	r3, [r0, #24]
 8008c4e:	b510      	push	{r4, lr}
 8008c50:	4604      	mov	r4, r0
 8008c52:	bb33      	cbnz	r3, 8008ca2 <__sinit+0x56>
 8008c54:	e9c0 3312 	strd	r3, r3, [r0, #72]	; 0x48
 8008c58:	6503      	str	r3, [r0, #80]	; 0x50
 8008c5a:	4b12      	ldr	r3, [pc, #72]	; (8008ca4 <__sinit+0x58>)
 8008c5c:	4a12      	ldr	r2, [pc, #72]	; (8008ca8 <__sinit+0x5c>)
 8008c5e:	681b      	ldr	r3, [r3, #0]
 8008c60:	6282      	str	r2, [r0, #40]	; 0x28
 8008c62:	4298      	cmp	r0, r3
 8008c64:	bf04      	itt	eq
 8008c66:	2301      	moveq	r3, #1
 8008c68:	6183      	streq	r3, [r0, #24]
 8008c6a:	f000 f81f 	bl	8008cac <__sfp>
 8008c6e:	6060      	str	r0, [r4, #4]
 8008c70:	4620      	mov	r0, r4
 8008c72:	f000 f81b 	bl	8008cac <__sfp>
 8008c76:	60a0      	str	r0, [r4, #8]
 8008c78:	4620      	mov	r0, r4
 8008c7a:	f000 f817 	bl	8008cac <__sfp>
 8008c7e:	2200      	movs	r2, #0
 8008c80:	60e0      	str	r0, [r4, #12]
 8008c82:	2104      	movs	r1, #4
 8008c84:	6860      	ldr	r0, [r4, #4]
 8008c86:	f7ff ffa1 	bl	8008bcc <std>
 8008c8a:	2201      	movs	r2, #1
 8008c8c:	2109      	movs	r1, #9
 8008c8e:	68a0      	ldr	r0, [r4, #8]
 8008c90:	f7ff ff9c 	bl	8008bcc <std>
 8008c94:	2202      	movs	r2, #2
 8008c96:	2112      	movs	r1, #18
 8008c98:	68e0      	ldr	r0, [r4, #12]
 8008c9a:	f7ff ff97 	bl	8008bcc <std>
 8008c9e:	2301      	movs	r3, #1
 8008ca0:	61a3      	str	r3, [r4, #24]
 8008ca2:	bd10      	pop	{r4, pc}
 8008ca4:	08009cc0 	.word	0x08009cc0
 8008ca8:	08008c15 	.word	0x08008c15

08008cac <__sfp>:
 8008cac:	b5f8      	push	{r3, r4, r5, r6, r7, lr}
 8008cae:	4b1b      	ldr	r3, [pc, #108]	; (8008d1c <__sfp+0x70>)
 8008cb0:	681e      	ldr	r6, [r3, #0]
 8008cb2:	69b3      	ldr	r3, [r6, #24]
 8008cb4:	4607      	mov	r7, r0
 8008cb6:	b913      	cbnz	r3, 8008cbe <__sfp+0x12>
 8008cb8:	4630      	mov	r0, r6
 8008cba:	f7ff ffc7 	bl	8008c4c <__sinit>
 8008cbe:	3648      	adds	r6, #72	; 0x48
 8008cc0:	e9d6 3401 	ldrd	r3, r4, [r6, #4]
 8008cc4:	3b01      	subs	r3, #1
 8008cc6:	d503      	bpl.n	8008cd0 <__sfp+0x24>
 8008cc8:	6833      	ldr	r3, [r6, #0]
 8008cca:	b133      	cbz	r3, 8008cda <__sfp+0x2e>
 8008ccc:	6836      	ldr	r6, [r6, #0]
 8008cce:	e7f7      	b.n	8008cc0 <__sfp+0x14>
 8008cd0:	f9b4 500c 	ldrsh.w	r5, [r4, #12]
 8008cd4:	b16d      	cbz	r5, 8008cf2 <__sfp+0x46>
 8008cd6:	3468      	adds	r4, #104	; 0x68
 8008cd8:	e7f4      	b.n	8008cc4 <__sfp+0x18>
 8008cda:	2104      	movs	r1, #4
 8008cdc:	4638      	mov	r0, r7
 8008cde:	f7ff ff9f 	bl	8008c20 <__sfmoreglue>
 8008ce2:	6030      	str	r0, [r6, #0]
 8008ce4:	2800      	cmp	r0, #0
 8008ce6:	d1f1      	bne.n	8008ccc <__sfp+0x20>
 8008ce8:	230c      	movs	r3, #12
 8008cea:	603b      	str	r3, [r7, #0]
 8008cec:	4604      	mov	r4, r0
 8008cee:	4620      	mov	r0, r4
 8008cf0:	bdf8      	pop	{r3, r4, r5, r6, r7, pc}
 8008cf2:	4b0b      	ldr	r3, [pc, #44]	; (8008d20 <__sfp+0x74>)
 8008cf4:	6665      	str	r5, [r4, #100]	; 0x64
 8008cf6:	e9c4 5500 	strd	r5, r5, [r4]
 8008cfa:	60a5      	str	r5, [r4, #8]
 8008cfc:	e9c4 3503 	strd	r3, r5, [r4, #12]
 8008d00:	e9c4 5505 	strd	r5, r5, [r4, #20]
 8008d04:	2208      	movs	r2, #8
 8008d06:	4629      	mov	r1, r5
 8008d08:	f104 005c 	add.w	r0, r4, #92	; 0x5c
 8008d0c:	f7ff fcb3 	bl	8008676 <memset>
 8008d10:	e9c4 550d 	strd	r5, r5, [r4, #52]	; 0x34
 8008d14:	e9c4 5512 	strd	r5, r5, [r4, #72]	; 0x48
 8008d18:	e7e9      	b.n	8008cee <__sfp+0x42>
 8008d1a:	bf00      	nop
 8008d1c:	08009cc0 	.word	0x08009cc0
 8008d20:	ffff0001 	.word	0xffff0001

08008d24 <_fwalk_reent>:
 8008d24:	e92d 43f8 	stmdb	sp!, {r3, r4, r5, r6, r7, r8, r9, lr}
 8008d28:	4680      	mov	r8, r0
 8008d2a:	4689      	mov	r9, r1
 8008d2c:	f100 0448 	add.w	r4, r0, #72	; 0x48
 8008d30:	2600      	movs	r6, #0
 8008d32:	b914      	cbnz	r4, 8008d3a <_fwalk_reent+0x16>
 8008d34:	4630      	mov	r0, r6
 8008d36:	e8bd 83f8 	ldmia.w	sp!, {r3, r4, r5, r6, r7, r8, r9, pc}
 8008d3a:	e9d4 7501 	ldrd	r7, r5, [r4, #4]
 8008d3e:	3f01      	subs	r7, #1
 8008d40:	d501      	bpl.n	8008d46 <_fwalk_reent+0x22>
 8008d42:	6824      	ldr	r4, [r4, #0]
 8008d44:	e7f5      	b.n	8008d32 <_fwalk_reent+0xe>
 8008d46:	89ab      	ldrh	r3, [r5, #12]
 8008d48:	2b01      	cmp	r3, #1
 8008d4a:	d907      	bls.n	8008d5c <_fwalk_reent+0x38>
 8008d4c:	f9b5 300e 	ldrsh.w	r3, [r5, #14]
 8008d50:	3301      	adds	r3, #1
 8008d52:	d003      	beq.n	8008d5c <_fwalk_reent+0x38>
 8008d54:	4629      	mov	r1, r5
 8008d56:	4640      	mov	r0, r8
 8008d58:	47c8      	blx	r9
 8008d5a:	4306      	orrs	r6, r0
 8008d5c:	3568      	adds	r5, #104	; 0x68
 8008d5e:	e7ee      	b.n	8008d3e <_fwalk_reent+0x1a>

08008d60 <__swhatbuf_r>:
 8008d60:	b570      	push	{r4, r5, r6, lr}
 8008d62:	460e      	mov	r6, r1
 8008d64:	f9b1 100e 	ldrsh.w	r1, [r1, #14]
 8008d68:	2900      	cmp	r1, #0
 8008d6a:	b096      	sub	sp, #88	; 0x58
 8008d6c:	4614      	mov	r4, r2
 8008d6e:	461d      	mov	r5, r3
 8008d70:	da07      	bge.n	8008d82 <__swhatbuf_r+0x22>
 8008d72:	2300      	movs	r3, #0
 8008d74:	602b      	str	r3, [r5, #0]
 8008d76:	89b3      	ldrh	r3, [r6, #12]
 8008d78:	061a      	lsls	r2, r3, #24
 8008d7a:	d410      	bmi.n	8008d9e <__swhatbuf_r+0x3e>
 8008d7c:	f44f 6380 	mov.w	r3, #1024	; 0x400
 8008d80:	e00e      	b.n	8008da0 <__swhatbuf_r+0x40>
 8008d82:	466a      	mov	r2, sp
 8008d84:	f000 fc3e 	bl	8009604 <_fstat_r>
 8008d88:	2800      	cmp	r0, #0
 8008d8a:	dbf2      	blt.n	8008d72 <__swhatbuf_r+0x12>
 8008d8c:	9a01      	ldr	r2, [sp, #4]
 8008d8e:	f402 4270 	and.w	r2, r2, #61440	; 0xf000
 8008d92:	f5a2 5300 	sub.w	r3, r2, #8192	; 0x2000
 8008d96:	425a      	negs	r2, r3
 8008d98:	415a      	adcs	r2, r3
 8008d9a:	602a      	str	r2, [r5, #0]
 8008d9c:	e7ee      	b.n	8008d7c <__swhatbuf_r+0x1c>
 8008d9e:	2340      	movs	r3, #64	; 0x40
 8008da0:	2000      	movs	r0, #0
 8008da2:	6023      	str	r3, [r4, #0]
 8008da4:	b016      	add	sp, #88	; 0x58
 8008da6:	bd70      	pop	{r4, r5, r6, pc}

08008da8 <__smakebuf_r>:
 8008da8:	898b      	ldrh	r3, [r1, #12]
 8008daa:	b573      	push	{r0, r1, r4, r5, r6, lr}
 8008dac:	079d      	lsls	r5, r3, #30
 8008dae:	4606      	mov	r6, r0
 8008db0:	460c      	mov	r4, r1
 8008db2:	d507      	bpl.n	8008dc4 <__smakebuf_r+0x1c>
 8008db4:	f104 0347 	add.w	r3, r4, #71	; 0x47
 8008db8:	6023      	str	r3, [r4, #0]
 8008dba:	6123      	str	r3, [r4, #16]
 8008dbc:	2301      	movs	r3, #1
 8008dbe:	6163      	str	r3, [r4, #20]
 8008dc0:	b002      	add	sp, #8
 8008dc2:	bd70      	pop	{r4, r5, r6, pc}
 8008dc4:	ab01      	add	r3, sp, #4
 8008dc6:	466a      	mov	r2, sp
 8008dc8:	f7ff ffca 	bl	8008d60 <__swhatbuf_r>
 8008dcc:	9900      	ldr	r1, [sp, #0]
 8008dce:	4605      	mov	r5, r0
 8008dd0:	4630      	mov	r0, r6
 8008dd2:	f000 f87f 	bl	8008ed4 <_malloc_r>
 8008dd6:	b948      	cbnz	r0, 8008dec <__smakebuf_r+0x44>
 8008dd8:	f9b4 300c 	ldrsh.w	r3, [r4, #12]
 8008ddc:	059a      	lsls	r2, r3, #22
 8008dde:	d4ef      	bmi.n	8008dc0 <__smakebuf_r+0x18>
 8008de0:	f023 0303 	bic.w	r3, r3, #3
 8008de4:	f043 0302 	orr.w	r3, r3, #2
 8008de8:	81a3      	strh	r3, [r4, #12]
 8008dea:	e7e3      	b.n	8008db4 <__smakebuf_r+0xc>
 8008dec:	4b0d      	ldr	r3, [pc, #52]	; (8008e24 <__smakebuf_r+0x7c>)
 8008dee:	62b3      	str	r3, [r6, #40]	; 0x28
 8008df0:	89a3      	ldrh	r3, [r4, #12]
 8008df2:	6020      	str	r0, [r4, #0]
 8008df4:	f043 0380 	orr.w	r3, r3, #128	; 0x80
 8008df8:	81a3      	strh	r3, [r4, #12]
 8008dfa:	9b00      	ldr	r3, [sp, #0]
 8008dfc:	6163      	str	r3, [r4, #20]
 8008dfe:	9b01      	ldr	r3, [sp, #4]
 8008e00:	6120      	str	r0, [r4, #16]
 8008e02:	b15b      	cbz	r3, 8008e1c <__smakebuf_r+0x74>
 8008e04:	f9b4 100e 	ldrsh.w	r1, [r4, #14]
 8008e08:	4630      	mov	r0, r6
 8008e0a:	f000 fc0d 	bl	8009628 <_isatty_r>
 8008e0e:	b128      	cbz	r0, 8008e1c <__smakebuf_r+0x74>
 8008e10:	89a3      	ldrh	r3, [r4, #12]
 8008e12:	f023 0303 	bic.w	r3, r3, #3
 8008e16:	f043 0301 	orr.w	r3, r3, #1
 8008e1a:	81a3      	strh	r3, [r4, #12]
 8008e1c:	89a3      	ldrh	r3, [r4, #12]
 8008e1e:	431d      	orrs	r5, r3
 8008e20:	81a5      	strh	r5, [r4, #12]
 8008e22:	e7cd      	b.n	8008dc0 <__smakebuf_r+0x18>
 8008e24:	08008c15 	.word	0x08008c15

08008e28 <malloc>:
 8008e28:	4b02      	ldr	r3, [pc, #8]	; (8008e34 <malloc+0xc>)
 8008e2a:	4601      	mov	r1, r0
 8008e2c:	6818      	ldr	r0, [r3, #0]
 8008e2e:	f000 b851 	b.w	8008ed4 <_malloc_r>
 8008e32:	bf00      	nop
 8008e34:	200002c8 	.word	0x200002c8

08008e38 <_free_r>:
 8008e38:	b538      	push	{r3, r4, r5, lr}
 8008e3a:	4605      	mov	r5, r0
 8008e3c:	2900      	cmp	r1, #0
 8008e3e:	d045      	beq.n	8008ecc <_free_r+0x94>
 8008e40:	f851 3c04 	ldr.w	r3, [r1, #-4]
 8008e44:	1f0c      	subs	r4, r1, #4
 8008e46:	2b00      	cmp	r3, #0
 8008e48:	bfb8      	it	lt
 8008e4a:	18e4      	addlt	r4, r4, r3
 8008e4c:	f000 fc0e 	bl	800966c <__malloc_lock>
 8008e50:	4a1f      	ldr	r2, [pc, #124]	; (8008ed0 <_free_r+0x98>)
 8008e52:	6813      	ldr	r3, [r2, #0]
 8008e54:	4610      	mov	r0, r2
 8008e56:	b933      	cbnz	r3, 8008e66 <_free_r+0x2e>
 8008e58:	6063      	str	r3, [r4, #4]
 8008e5a:	6014      	str	r4, [r2, #0]
 8008e5c:	4628      	mov	r0, r5
 8008e5e:	e8bd 4038 	ldmia.w	sp!, {r3, r4, r5, lr}
 8008e62:	f000 bc04 	b.w	800966e <__malloc_unlock>
 8008e66:	42a3      	cmp	r3, r4
 8008e68:	d90c      	bls.n	8008e84 <_free_r+0x4c>
 8008e6a:	6821      	ldr	r1, [r4, #0]
 8008e6c:	1862      	adds	r2, r4, r1
 8008e6e:	4293      	cmp	r3, r2
 8008e70:	bf04      	itt	eq
 8008e72:	681a      	ldreq	r2, [r3, #0]
 8008e74:	685b      	ldreq	r3, [r3, #4]
 8008e76:	6063      	str	r3, [r4, #4]
 8008e78:	bf04      	itt	eq
 8008e7a:	1852      	addeq	r2, r2, r1
 8008e7c:	6022      	streq	r2, [r4, #0]
 8008e7e:	6004      	str	r4, [r0, #0]
 8008e80:	e7ec      	b.n	8008e5c <_free_r+0x24>
 8008e82:	4613      	mov	r3, r2
 8008e84:	685a      	ldr	r2, [r3, #4]
 8008e86:	b10a      	cbz	r2, 8008e8c <_free_r+0x54>
 8008e88:	42a2      	cmp	r2, r4
 8008e8a:	d9fa      	bls.n	8008e82 <_free_r+0x4a>
 8008e8c:	6819      	ldr	r1, [r3, #0]
 8008e8e:	1858      	adds	r0, r3, r1
 8008e90:	42a0      	cmp	r0, r4
 8008e92:	d10b      	bne.n	8008eac <_free_r+0x74>
 8008e94:	6820      	ldr	r0, [r4, #0]
 8008e96:	4401      	add	r1, r0
 8008e98:	1858      	adds	r0, r3, r1
 8008e9a:	4282      	cmp	r2, r0
 8008e9c:	6019      	str	r1, [r3, #0]
 8008e9e:	d1dd      	bne.n	8008e5c <_free_r+0x24>
 8008ea0:	6810      	ldr	r0, [r2, #0]
 8008ea2:	6852      	ldr	r2, [r2, #4]
 8008ea4:	605a      	str	r2, [r3, #4]
 8008ea6:	4401      	add	r1, r0
 8008ea8:	6019      	str	r1, [r3, #0]
 8008eaa:	e7d7      	b.n	8008e5c <_free_r+0x24>
 8008eac:	d902      	bls.n	8008eb4 <_free_r+0x7c>
 8008eae:	230c      	movs	r3, #12
 8008eb0:	602b      	str	r3, [r5, #0]
 8008eb2:	e7d3      	b.n	8008e5c <_free_r+0x24>
 8008eb4:	6820      	ldr	r0, [r4, #0]
 8008eb6:	1821      	adds	r1, r4, r0
 8008eb8:	428a      	cmp	r2, r1
 8008eba:	bf04      	itt	eq
 8008ebc:	6811      	ldreq	r1, [r2, #0]
 8008ebe:	6852      	ldreq	r2, [r2, #4]
 8008ec0:	6062      	str	r2, [r4, #4]
 8008ec2:	bf04      	itt	eq
 8008ec4:	1809      	addeq	r1, r1, r0
 8008ec6:	6021      	streq	r1, [r4, #0]
 8008ec8:	605c      	str	r4, [r3, #4]
 8008eca:	e7c7      	b.n	8008e5c <_free_r+0x24>
 8008ecc:	bd38      	pop	{r3, r4, r5, pc}
 8008ece:	bf00      	nop
 8008ed0:	2000034c 	.word	0x2000034c

08008ed4 <_malloc_r>:
 8008ed4:	b570      	push	{r4, r5, r6, lr}
 8008ed6:	1ccd      	adds	r5, r1, #3
 8008ed8:	f025 0503 	bic.w	r5, r5, #3
 8008edc:	3508      	adds	r5, #8
 8008ede:	2d0c      	cmp	r5, #12
 8008ee0:	bf38      	it	cc
 8008ee2:	250c      	movcc	r5, #12
 8008ee4:	2d00      	cmp	r5, #0
 8008ee6:	4606      	mov	r6, r0
 8008ee8:	db01      	blt.n	8008eee <_malloc_r+0x1a>
 8008eea:	42a9      	cmp	r1, r5
 8008eec:	d903      	bls.n	8008ef6 <_malloc_r+0x22>
 8008eee:	230c      	movs	r3, #12
 8008ef0:	6033      	str	r3, [r6, #0]
 8008ef2:	2000      	movs	r0, #0
 8008ef4:	bd70      	pop	{r4, r5, r6, pc}
 8008ef6:	f000 fbb9 	bl	800966c <__malloc_lock>
 8008efa:	4a21      	ldr	r2, [pc, #132]	; (8008f80 <_malloc_r+0xac>)
 8008efc:	6814      	ldr	r4, [r2, #0]
 8008efe:	4621      	mov	r1, r4
 8008f00:	b991      	cbnz	r1, 8008f28 <_malloc_r+0x54>
 8008f02:	4c20      	ldr	r4, [pc, #128]	; (8008f84 <_malloc_r+0xb0>)
 8008f04:	6823      	ldr	r3, [r4, #0]
 8008f06:	b91b      	cbnz	r3, 8008f10 <_malloc_r+0x3c>
 8008f08:	4630      	mov	r0, r6
 8008f0a:	f000 fb05 	bl	8009518 <_sbrk_r>
 8008f0e:	6020      	str	r0, [r4, #0]
 8008f10:	4629      	mov	r1, r5
 8008f12:	4630      	mov	r0, r6
 8008f14:	f000 fb00 	bl	8009518 <_sbrk_r>
 8008f18:	1c43      	adds	r3, r0, #1
 8008f1a:	d124      	bne.n	8008f66 <_malloc_r+0x92>
 8008f1c:	230c      	movs	r3, #12
 8008f1e:	6033      	str	r3, [r6, #0]
 8008f20:	4630      	mov	r0, r6
 8008f22:	f000 fba4 	bl	800966e <__malloc_unlock>
 8008f26:	e7e4      	b.n	8008ef2 <_malloc_r+0x1e>
 8008f28:	680b      	ldr	r3, [r1, #0]
 8008f2a:	1b5b      	subs	r3, r3, r5
 8008f2c:	d418      	bmi.n	8008f60 <_malloc_r+0x8c>
 8008f2e:	2b0b      	cmp	r3, #11
 8008f30:	d90f      	bls.n	8008f52 <_malloc_r+0x7e>
 8008f32:	600b      	str	r3, [r1, #0]
 8008f34:	50cd      	str	r5, [r1, r3]
 8008f36:	18cc      	adds	r4, r1, r3
 8008f38:	4630      	mov	r0, r6
 8008f3a:	f000 fb98 	bl	800966e <__malloc_unlock>
 8008f3e:	f104 000b 	add.w	r0, r4, #11
 8008f42:	1d23      	adds	r3, r4, #4
 8008f44:	f020 0007 	bic.w	r0, r0, #7
 8008f48:	1ac3      	subs	r3, r0, r3
 8008f4a:	d0d3      	beq.n	8008ef4 <_malloc_r+0x20>
 8008f4c:	425a      	negs	r2, r3
 8008f4e:	50e2      	str	r2, [r4, r3]
 8008f50:	e7d0      	b.n	8008ef4 <_malloc_r+0x20>
 8008f52:	428c      	cmp	r4, r1
 8008f54:	684b      	ldr	r3, [r1, #4]
 8008f56:	bf16      	itet	ne
 8008f58:	6063      	strne	r3, [r4, #4]
 8008f5a:	6013      	streq	r3, [r2, #0]
 8008f5c:	460c      	movne	r4, r1
 8008f5e:	e7eb      	b.n	8008f38 <_malloc_r+0x64>
 8008f60:	460c      	mov	r4, r1
 8008f62:	6849      	ldr	r1, [r1, #4]
 8008f64:	e7cc      	b.n	8008f00 <_malloc_r+0x2c>
 8008f66:	1cc4      	adds	r4, r0, #3
 8008f68:	f024 0403 	bic.w	r4, r4, #3
 8008f6c:	42a0      	cmp	r0, r4
 8008f6e:	d005      	beq.n	8008f7c <_malloc_r+0xa8>
 8008f70:	1a21      	subs	r1, r4, r0
 8008f72:	4630      	mov	r0, r6
 8008f74:	f000 fad0 	bl	8009518 <_sbrk_r>
 8008f78:	3001      	adds	r0, #1
 8008f7a:	d0cf      	beq.n	8008f1c <_malloc_r+0x48>
 8008f7c:	6025      	str	r5, [r4, #0]
 8008f7e:	e7db      	b.n	8008f38 <_malloc_r+0x64>
 8008f80:	2000034c 	.word	0x2000034c
 8008f84:	20000350 	.word	0x20000350

08008f88 <__sfputc_r>:
 8008f88:	6893      	ldr	r3, [r2, #8]
 8008f8a:	3b01      	subs	r3, #1
 8008f8c:	2b00      	cmp	r3, #0
 8008f8e:	b410      	push	{r4}
 8008f90:	6093      	str	r3, [r2, #8]
 8008f92:	da08      	bge.n	8008fa6 <__sfputc_r+0x1e>
 8008f94:	6994      	ldr	r4, [r2, #24]
 8008f96:	42a3      	cmp	r3, r4
 8008f98:	db01      	blt.n	8008f9e <__sfputc_r+0x16>
 8008f9a:	290a      	cmp	r1, #10
 8008f9c:	d103      	bne.n	8008fa6 <__sfputc_r+0x1e>
 8008f9e:	f85d 4b04 	ldr.w	r4, [sp], #4
 8008fa2:	f7ff bca3 	b.w	80088ec <__swbuf_r>
 8008fa6:	6813      	ldr	r3, [r2, #0]
 8008fa8:	1c58      	adds	r0, r3, #1
 8008faa:	6010      	str	r0, [r2, #0]
 8008fac:	7019      	strb	r1, [r3, #0]
 8008fae:	4608      	mov	r0, r1
 8008fb0:	f85d 4b04 	ldr.w	r4, [sp], #4
 8008fb4:	4770      	bx	lr

08008fb6 <__sfputs_r>:
 8008fb6:	b5f8      	push	{r3, r4, r5, r6, r7, lr}
 8008fb8:	4606      	mov	r6, r0
 8008fba:	460f      	mov	r7, r1
 8008fbc:	4614      	mov	r4, r2
 8008fbe:	18d5      	adds	r5, r2, r3
 8008fc0:	42ac      	cmp	r4, r5
 8008fc2:	d101      	bne.n	8008fc8 <__sfputs_r+0x12>
 8008fc4:	2000      	movs	r0, #0
 8008fc6:	e007      	b.n	8008fd8 <__sfputs_r+0x22>
 8008fc8:	463a      	mov	r2, r7
 8008fca:	f814 1b01 	ldrb.w	r1, [r4], #1
 8008fce:	4630      	mov	r0, r6
 8008fd0:	f7ff ffda 	bl	8008f88 <__sfputc_r>
 8008fd4:	1c43      	adds	r3, r0, #1
 8008fd6:	d1f3      	bne.n	8008fc0 <__sfputs_r+0xa>
 8008fd8:	bdf8      	pop	{r3, r4, r5, r6, r7, pc}
	...

08008fdc <_vfiprintf_r>:
 8008fdc:	e92d 4ff0 	stmdb	sp!, {r4, r5, r6, r7, r8, r9, sl, fp, lr}
 8008fe0:	460c      	mov	r4, r1
 8008fe2:	b09d      	sub	sp, #116	; 0x74
 8008fe4:	4617      	mov	r7, r2
 8008fe6:	461d      	mov	r5, r3
 8008fe8:	4606      	mov	r6, r0
 8008fea:	b118      	cbz	r0, 8008ff4 <_vfiprintf_r+0x18>
 8008fec:	6983      	ldr	r3, [r0, #24]
 8008fee:	b90b      	cbnz	r3, 8008ff4 <_vfiprintf_r+0x18>
 8008ff0:	f7ff fe2c 	bl	8008c4c <__sinit>
 8008ff4:	4b7c      	ldr	r3, [pc, #496]	; (80091e8 <_vfiprintf_r+0x20c>)
 8008ff6:	429c      	cmp	r4, r3
 8008ff8:	d158      	bne.n	80090ac <_vfiprintf_r+0xd0>
 8008ffa:	6874      	ldr	r4, [r6, #4]
 8008ffc:	89a3      	ldrh	r3, [r4, #12]
 8008ffe:	0718      	lsls	r0, r3, #28
 8009000:	d55e      	bpl.n	80090c0 <_vfiprintf_r+0xe4>
 8009002:	6923      	ldr	r3, [r4, #16]
 8009004:	2b00      	cmp	r3, #0
 8009006:	d05b      	beq.n	80090c0 <_vfiprintf_r+0xe4>
 8009008:	2300      	movs	r3, #0
 800900a:	9309      	str	r3, [sp, #36]	; 0x24
 800900c:	2320      	movs	r3, #32
 800900e:	f88d 3029 	strb.w	r3, [sp, #41]	; 0x29
 8009012:	2330      	movs	r3, #48	; 0x30
 8009014:	f88d 302a 	strb.w	r3, [sp, #42]	; 0x2a
 8009018:	9503      	str	r5, [sp, #12]
 800901a:	f04f 0b01 	mov.w	fp, #1
 800901e:	46b8      	mov	r8, r7
 8009020:	4645      	mov	r5, r8
 8009022:	f815 3b01 	ldrb.w	r3, [r5], #1
 8009026:	b10b      	cbz	r3, 800902c <_vfiprintf_r+0x50>
 8009028:	2b25      	cmp	r3, #37	; 0x25
 800902a:	d154      	bne.n	80090d6 <_vfiprintf_r+0xfa>
 800902c:	ebb8 0a07 	subs.w	sl, r8, r7
 8009030:	d00b      	beq.n	800904a <_vfiprintf_r+0x6e>
 8009032:	4653      	mov	r3, sl
 8009034:	463a      	mov	r2, r7
 8009036:	4621      	mov	r1, r4
 8009038:	4630      	mov	r0, r6
 800903a:	f7ff ffbc 	bl	8008fb6 <__sfputs_r>
 800903e:	3001      	adds	r0, #1
 8009040:	f000 80c2 	beq.w	80091c8 <_vfiprintf_r+0x1ec>
 8009044:	9b09      	ldr	r3, [sp, #36]	; 0x24
 8009046:	4453      	add	r3, sl
 8009048:	9309      	str	r3, [sp, #36]	; 0x24
 800904a:	f898 3000 	ldrb.w	r3, [r8]
 800904e:	2b00      	cmp	r3, #0
 8009050:	f000 80ba 	beq.w	80091c8 <_vfiprintf_r+0x1ec>
 8009054:	2300      	movs	r3, #0
 8009056:	f04f 32ff 	mov.w	r2, #4294967295
 800905a:	e9cd 2305 	strd	r2, r3, [sp, #20]
 800905e:	9304      	str	r3, [sp, #16]
 8009060:	9307      	str	r3, [sp, #28]
 8009062:	f88d 3053 	strb.w	r3, [sp, #83]	; 0x53
 8009066:	931a      	str	r3, [sp, #104]	; 0x68
 8009068:	46a8      	mov	r8, r5
 800906a:	2205      	movs	r2, #5
 800906c:	f818 1b01 	ldrb.w	r1, [r8], #1
 8009070:	485e      	ldr	r0, [pc, #376]	; (80091ec <_vfiprintf_r+0x210>)
 8009072:	f7f7 f8cd 	bl	8000210 <memchr>
 8009076:	9b04      	ldr	r3, [sp, #16]
 8009078:	bb78      	cbnz	r0, 80090da <_vfiprintf_r+0xfe>
 800907a:	06d9      	lsls	r1, r3, #27
 800907c:	bf44      	itt	mi
 800907e:	2220      	movmi	r2, #32
 8009080:	f88d 2053 	strbmi.w	r2, [sp, #83]	; 0x53
 8009084:	071a      	lsls	r2, r3, #28
 8009086:	bf44      	itt	mi
 8009088:	222b      	movmi	r2, #43	; 0x2b
 800908a:	f88d 2053 	strbmi.w	r2, [sp, #83]	; 0x53
 800908e:	782a      	ldrb	r2, [r5, #0]
 8009090:	2a2a      	cmp	r2, #42	; 0x2a
 8009092:	d02a      	beq.n	80090ea <_vfiprintf_r+0x10e>
 8009094:	9a07      	ldr	r2, [sp, #28]
 8009096:	46a8      	mov	r8, r5
 8009098:	2000      	movs	r0, #0
 800909a:	250a      	movs	r5, #10
 800909c:	4641      	mov	r1, r8
 800909e:	f811 3b01 	ldrb.w	r3, [r1], #1
 80090a2:	3b30      	subs	r3, #48	; 0x30
 80090a4:	2b09      	cmp	r3, #9
 80090a6:	d969      	bls.n	800917c <_vfiprintf_r+0x1a0>
 80090a8:	b360      	cbz	r0, 8009104 <_vfiprintf_r+0x128>
 80090aa:	e024      	b.n	80090f6 <_vfiprintf_r+0x11a>
 80090ac:	4b50      	ldr	r3, [pc, #320]	; (80091f0 <_vfiprintf_r+0x214>)
 80090ae:	429c      	cmp	r4, r3
 80090b0:	d101      	bne.n	80090b6 <_vfiprintf_r+0xda>
 80090b2:	68b4      	ldr	r4, [r6, #8]
 80090b4:	e7a2      	b.n	8008ffc <_vfiprintf_r+0x20>
 80090b6:	4b4f      	ldr	r3, [pc, #316]	; (80091f4 <_vfiprintf_r+0x218>)
 80090b8:	429c      	cmp	r4, r3
 80090ba:	bf08      	it	eq
 80090bc:	68f4      	ldreq	r4, [r6, #12]
 80090be:	e79d      	b.n	8008ffc <_vfiprintf_r+0x20>
 80090c0:	4621      	mov	r1, r4
 80090c2:	4630      	mov	r0, r6
 80090c4:	f7ff fc64 	bl	8008990 <__swsetup_r>
 80090c8:	2800      	cmp	r0, #0
 80090ca:	d09d      	beq.n	8009008 <_vfiprintf_r+0x2c>
 80090cc:	f04f 30ff 	mov.w	r0, #4294967295
 80090d0:	b01d      	add	sp, #116	; 0x74
 80090d2:	e8bd 8ff0 	ldmia.w	sp!, {r4, r5, r6, r7, r8, r9, sl, fp, pc}
 80090d6:	46a8      	mov	r8, r5
 80090d8:	e7a2      	b.n	8009020 <_vfiprintf_r+0x44>
 80090da:	4a44      	ldr	r2, [pc, #272]	; (80091ec <_vfiprintf_r+0x210>)
 80090dc:	1a80      	subs	r0, r0, r2
 80090de:	fa0b f000 	lsl.w	r0, fp, r0
 80090e2:	4318      	orrs	r0, r3
 80090e4:	9004      	str	r0, [sp, #16]
 80090e6:	4645      	mov	r5, r8
 80090e8:	e7be      	b.n	8009068 <_vfiprintf_r+0x8c>
 80090ea:	9a03      	ldr	r2, [sp, #12]
 80090ec:	1d11      	adds	r1, r2, #4
 80090ee:	6812      	ldr	r2, [r2, #0]
 80090f0:	9103      	str	r1, [sp, #12]
 80090f2:	2a00      	cmp	r2, #0
 80090f4:	db01      	blt.n	80090fa <_vfiprintf_r+0x11e>
 80090f6:	9207      	str	r2, [sp, #28]
 80090f8:	e004      	b.n	8009104 <_vfiprintf_r+0x128>
 80090fa:	4252      	negs	r2, r2
 80090fc:	f043 0302 	orr.w	r3, r3, #2
 8009100:	9207      	str	r2, [sp, #28]
 8009102:	9304      	str	r3, [sp, #16]
 8009104:	f898 3000 	ldrb.w	r3, [r8]
 8009108:	2b2e      	cmp	r3, #46	; 0x2e
 800910a:	d10e      	bne.n	800912a <_vfiprintf_r+0x14e>
 800910c:	f898 3001 	ldrb.w	r3, [r8, #1]
 8009110:	2b2a      	cmp	r3, #42	; 0x2a
 8009112:	d138      	bne.n	8009186 <_vfiprintf_r+0x1aa>
 8009114:	9b03      	ldr	r3, [sp, #12]
 8009116:	1d1a      	adds	r2, r3, #4
 8009118:	681b      	ldr	r3, [r3, #0]
 800911a:	9203      	str	r2, [sp, #12]
 800911c:	2b00      	cmp	r3, #0
 800911e:	bfb8      	it	lt
 8009120:	f04f 33ff 	movlt.w	r3, #4294967295
 8009124:	f108 0802 	add.w	r8, r8, #2
 8009128:	9305      	str	r3, [sp, #20]
 800912a:	4d33      	ldr	r5, [pc, #204]	; (80091f8 <_vfiprintf_r+0x21c>)
 800912c:	f898 1000 	ldrb.w	r1, [r8]
 8009130:	2203      	movs	r2, #3
 8009132:	4628      	mov	r0, r5
 8009134:	f7f7 f86c 	bl	8000210 <memchr>
 8009138:	b140      	cbz	r0, 800914c <_vfiprintf_r+0x170>
 800913a:	2340      	movs	r3, #64	; 0x40
 800913c:	1b40      	subs	r0, r0, r5
 800913e:	fa03 f000 	lsl.w	r0, r3, r0
 8009142:	9b04      	ldr	r3, [sp, #16]
 8009144:	4303      	orrs	r3, r0
 8009146:	f108 0801 	add.w	r8, r8, #1
 800914a:	9304      	str	r3, [sp, #16]
 800914c:	f898 1000 	ldrb.w	r1, [r8]
 8009150:	482a      	ldr	r0, [pc, #168]	; (80091fc <_vfiprintf_r+0x220>)
 8009152:	f88d 1028 	strb.w	r1, [sp, #40]	; 0x28
 8009156:	2206      	movs	r2, #6
 8009158:	f108 0701 	add.w	r7, r8, #1
 800915c:	f7f7 f858 	bl	8000210 <memchr>
 8009160:	2800      	cmp	r0, #0
 8009162:	d037      	beq.n	80091d4 <_vfiprintf_r+0x1f8>
 8009164:	4b26      	ldr	r3, [pc, #152]	; (8009200 <_vfiprintf_r+0x224>)
 8009166:	bb1b      	cbnz	r3, 80091b0 <_vfiprintf_r+0x1d4>
 8009168:	9b03      	ldr	r3, [sp, #12]
 800916a:	3307      	adds	r3, #7
 800916c:	f023 0307 	bic.w	r3, r3, #7
 8009170:	3308      	adds	r3, #8
 8009172:	9303      	str	r3, [sp, #12]
 8009174:	9b09      	ldr	r3, [sp, #36]	; 0x24
 8009176:	444b      	add	r3, r9
 8009178:	9309      	str	r3, [sp, #36]	; 0x24
 800917a:	e750      	b.n	800901e <_vfiprintf_r+0x42>
 800917c:	fb05 3202 	mla	r2, r5, r2, r3
 8009180:	2001      	movs	r0, #1
 8009182:	4688      	mov	r8, r1
 8009184:	e78a      	b.n	800909c <_vfiprintf_r+0xc0>
 8009186:	2300      	movs	r3, #0
 8009188:	f108 0801 	add.w	r8, r8, #1
 800918c:	9305      	str	r3, [sp, #20]
 800918e:	4619      	mov	r1, r3
 8009190:	250a      	movs	r5, #10
 8009192:	4640      	mov	r0, r8
 8009194:	f810 2b01 	ldrb.w	r2, [r0], #1
 8009198:	3a30      	subs	r2, #48	; 0x30
 800919a:	2a09      	cmp	r2, #9
 800919c:	d903      	bls.n	80091a6 <_vfiprintf_r+0x1ca>
 800919e:	2b00      	cmp	r3, #0
 80091a0:	d0c3      	beq.n	800912a <_vfiprintf_r+0x14e>
 80091a2:	9105      	str	r1, [sp, #20]
 80091a4:	e7c1      	b.n	800912a <_vfiprintf_r+0x14e>
 80091a6:	fb05 2101 	mla	r1, r5, r1, r2
 80091aa:	2301      	movs	r3, #1
 80091ac:	4680      	mov	r8, r0
 80091ae:	e7f0      	b.n	8009192 <_vfiprintf_r+0x1b6>
 80091b0:	ab03      	add	r3, sp, #12
 80091b2:	9300      	str	r3, [sp, #0]
 80091b4:	4622      	mov	r2, r4
 80091b6:	4b13      	ldr	r3, [pc, #76]	; (8009204 <_vfiprintf_r+0x228>)
 80091b8:	a904      	add	r1, sp, #16
 80091ba:	4630      	mov	r0, r6
 80091bc:	f3af 8000 	nop.w
 80091c0:	f1b0 3fff 	cmp.w	r0, #4294967295
 80091c4:	4681      	mov	r9, r0
 80091c6:	d1d5      	bne.n	8009174 <_vfiprintf_r+0x198>
 80091c8:	89a3      	ldrh	r3, [r4, #12]
 80091ca:	065b      	lsls	r3, r3, #25
 80091cc:	f53f af7e 	bmi.w	80090cc <_vfiprintf_r+0xf0>
 80091d0:	9809      	ldr	r0, [sp, #36]	; 0x24
 80091d2:	e77d      	b.n	80090d0 <_vfiprintf_r+0xf4>
 80091d4:	ab03      	add	r3, sp, #12
 80091d6:	9300      	str	r3, [sp, #0]
 80091d8:	4622      	mov	r2, r4
 80091da:	4b0a      	ldr	r3, [pc, #40]	; (8009204 <_vfiprintf_r+0x228>)
 80091dc:	a904      	add	r1, sp, #16
 80091de:	4630      	mov	r0, r6
 80091e0:	f000 f888 	bl	80092f4 <_printf_i>
 80091e4:	e7ec      	b.n	80091c0 <_vfiprintf_r+0x1e4>
 80091e6:	bf00      	nop
 80091e8:	08009ce4 	.word	0x08009ce4
 80091ec:	08009d24 	.word	0x08009d24
 80091f0:	08009d04 	.word	0x08009d04
 80091f4:	08009cc4 	.word	0x08009cc4
 80091f8:	08009d2a 	.word	0x08009d2a
 80091fc:	08009d2e 	.word	0x08009d2e
 8009200:	00000000 	.word	0x00000000
 8009204:	08008fb7 	.word	0x08008fb7

08009208 <_printf_common>:
 8009208:	e92d 47f0 	stmdb	sp!, {r4, r5, r6, r7, r8, r9, sl, lr}
 800920c:	4691      	mov	r9, r2
 800920e:	461f      	mov	r7, r3
 8009210:	688a      	ldr	r2, [r1, #8]
 8009212:	690b      	ldr	r3, [r1, #16]
 8009214:	f8dd 8020 	ldr.w	r8, [sp, #32]
 8009218:	4293      	cmp	r3, r2
 800921a:	bfb8      	it	lt
 800921c:	4613      	movlt	r3, r2
 800921e:	f8c9 3000 	str.w	r3, [r9]
 8009222:	f891 2043 	ldrb.w	r2, [r1, #67]	; 0x43
 8009226:	4606      	mov	r6, r0
 8009228:	460c      	mov	r4, r1
 800922a:	b112      	cbz	r2, 8009232 <_printf_common+0x2a>
 800922c:	3301      	adds	r3, #1
 800922e:	f8c9 3000 	str.w	r3, [r9]
 8009232:	6823      	ldr	r3, [r4, #0]
 8009234:	0699      	lsls	r1, r3, #26
 8009236:	bf42      	ittt	mi
 8009238:	f8d9 3000 	ldrmi.w	r3, [r9]
 800923c:	3302      	addmi	r3, #2
 800923e:	f8c9 3000 	strmi.w	r3, [r9]
 8009242:	6825      	ldr	r5, [r4, #0]
 8009244:	f015 0506 	ands.w	r5, r5, #6
 8009248:	d107      	bne.n	800925a <_printf_common+0x52>
 800924a:	f104 0a19 	add.w	sl, r4, #25
 800924e:	68e3      	ldr	r3, [r4, #12]
 8009250:	f8d9 2000 	ldr.w	r2, [r9]
 8009254:	1a9b      	subs	r3, r3, r2
 8009256:	42ab      	cmp	r3, r5
 8009258:	dc28      	bgt.n	80092ac <_printf_common+0xa4>
 800925a:	f894 3043 	ldrb.w	r3, [r4, #67]	; 0x43
 800925e:	6822      	ldr	r2, [r4, #0]
 8009260:	3300      	adds	r3, #0
 8009262:	bf18      	it	ne
 8009264:	2301      	movne	r3, #1
 8009266:	0692      	lsls	r2, r2, #26
 8009268:	d42d      	bmi.n	80092c6 <_printf_common+0xbe>
 800926a:	f104 0243 	add.w	r2, r4, #67	; 0x43
 800926e:	4639      	mov	r1, r7
 8009270:	4630      	mov	r0, r6
 8009272:	47c0      	blx	r8
 8009274:	3001      	adds	r0, #1
 8009276:	d020      	beq.n	80092ba <_printf_common+0xb2>
 8009278:	6823      	ldr	r3, [r4, #0]
 800927a:	68e5      	ldr	r5, [r4, #12]
 800927c:	f8d9 2000 	ldr.w	r2, [r9]
 8009280:	f003 0306 	and.w	r3, r3, #6
 8009284:	2b04      	cmp	r3, #4
 8009286:	bf08      	it	eq
 8009288:	1aad      	subeq	r5, r5, r2
 800928a:	68a3      	ldr	r3, [r4, #8]
 800928c:	6922      	ldr	r2, [r4, #16]
 800928e:	bf0c      	ite	eq
 8009290:	ea25 75e5 	biceq.w	r5, r5, r5, asr #31
 8009294:	2500      	movne	r5, #0
 8009296:	4293      	cmp	r3, r2
 8009298:	bfc4      	itt	gt
 800929a:	1a9b      	subgt	r3, r3, r2
 800929c:	18ed      	addgt	r5, r5, r3
 800929e:	f04f 0900 	mov.w	r9, #0
 80092a2:	341a      	adds	r4, #26
 80092a4:	454d      	cmp	r5, r9
 80092a6:	d11a      	bne.n	80092de <_printf_common+0xd6>
 80092a8:	2000      	movs	r0, #0
 80092aa:	e008      	b.n	80092be <_printf_common+0xb6>
 80092ac:	2301      	movs	r3, #1
 80092ae:	4652      	mov	r2, sl
 80092b0:	4639      	mov	r1, r7
 80092b2:	4630      	mov	r0, r6
 80092b4:	47c0      	blx	r8
 80092b6:	3001      	adds	r0, #1
 80092b8:	d103      	bne.n	80092c2 <_printf_common+0xba>
 80092ba:	f04f 30ff 	mov.w	r0, #4294967295
 80092be:	e8bd 87f0 	ldmia.w	sp!, {r4, r5, r6, r7, r8, r9, sl, pc}
 80092c2:	3501      	adds	r5, #1
 80092c4:	e7c3      	b.n	800924e <_printf_common+0x46>
 80092c6:	18e1      	adds	r1, r4, r3
 80092c8:	1c5a      	adds	r2, r3, #1
 80092ca:	2030      	movs	r0, #48	; 0x30
 80092cc:	f881 0043 	strb.w	r0, [r1, #67]	; 0x43
 80092d0:	4422      	add	r2, r4
 80092d2:	f894 1045 	ldrb.w	r1, [r4, #69]	; 0x45
 80092d6:	f882 1043 	strb.w	r1, [r2, #67]	; 0x43
 80092da:	3302      	adds	r3, #2
 80092dc:	e7c5      	b.n	800926a <_printf_common+0x62>
 80092de:	2301      	movs	r3, #1
 80092e0:	4622      	mov	r2, r4
 80092e2:	4639      	mov	r1, r7
 80092e4:	4630      	mov	r0, r6
 80092e6:	47c0      	blx	r8
 80092e8:	3001      	adds	r0, #1
 80092ea:	d0e6      	beq.n	80092ba <_printf_common+0xb2>
 80092ec:	f109 0901 	add.w	r9, r9, #1
 80092f0:	e7d8      	b.n	80092a4 <_printf_common+0x9c>
	...

080092f4 <_printf_i>:
 80092f4:	e92d 43f0 	stmdb	sp!, {r4, r5, r6, r7, r8, r9, lr}
 80092f8:	f101 0c43 	add.w	ip, r1, #67	; 0x43
 80092fc:	460c      	mov	r4, r1
 80092fe:	7e09      	ldrb	r1, [r1, #24]
 8009300:	b085      	sub	sp, #20
 8009302:	296e      	cmp	r1, #110	; 0x6e
 8009304:	4617      	mov	r7, r2
 8009306:	4606      	mov	r6, r0
 8009308:	4698      	mov	r8, r3
 800930a:	9a0c      	ldr	r2, [sp, #48]	; 0x30
 800930c:	f000 80b3 	beq.w	8009476 <_printf_i+0x182>
 8009310:	d822      	bhi.n	8009358 <_printf_i+0x64>
 8009312:	2963      	cmp	r1, #99	; 0x63
 8009314:	d036      	beq.n	8009384 <_printf_i+0x90>
 8009316:	d80a      	bhi.n	800932e <_printf_i+0x3a>
 8009318:	2900      	cmp	r1, #0
 800931a:	f000 80b9 	beq.w	8009490 <_printf_i+0x19c>
 800931e:	2958      	cmp	r1, #88	; 0x58
 8009320:	f000 8083 	beq.w	800942a <_printf_i+0x136>
 8009324:	f104 0542 	add.w	r5, r4, #66	; 0x42
 8009328:	f884 1042 	strb.w	r1, [r4, #66]	; 0x42
 800932c:	e032      	b.n	8009394 <_printf_i+0xa0>
 800932e:	2964      	cmp	r1, #100	; 0x64
 8009330:	d001      	beq.n	8009336 <_printf_i+0x42>
 8009332:	2969      	cmp	r1, #105	; 0x69
 8009334:	d1f6      	bne.n	8009324 <_printf_i+0x30>
 8009336:	6820      	ldr	r0, [r4, #0]
 8009338:	6813      	ldr	r3, [r2, #0]
 800933a:	0605      	lsls	r5, r0, #24
 800933c:	f103 0104 	add.w	r1, r3, #4
 8009340:	d52a      	bpl.n	8009398 <_printf_i+0xa4>
 8009342:	681b      	ldr	r3, [r3, #0]
 8009344:	6011      	str	r1, [r2, #0]
 8009346:	2b00      	cmp	r3, #0
 8009348:	da03      	bge.n	8009352 <_printf_i+0x5e>
 800934a:	222d      	movs	r2, #45	; 0x2d
 800934c:	425b      	negs	r3, r3
 800934e:	f884 2043 	strb.w	r2, [r4, #67]	; 0x43
 8009352:	486f      	ldr	r0, [pc, #444]	; (8009510 <_printf_i+0x21c>)
 8009354:	220a      	movs	r2, #10
 8009356:	e039      	b.n	80093cc <_printf_i+0xd8>
 8009358:	2973      	cmp	r1, #115	; 0x73
 800935a:	f000 809d 	beq.w	8009498 <_printf_i+0x1a4>
 800935e:	d808      	bhi.n	8009372 <_printf_i+0x7e>
 8009360:	296f      	cmp	r1, #111	; 0x6f
 8009362:	d020      	beq.n	80093a6 <_printf_i+0xb2>
 8009364:	2970      	cmp	r1, #112	; 0x70
 8009366:	d1dd      	bne.n	8009324 <_printf_i+0x30>
 8009368:	6823      	ldr	r3, [r4, #0]
 800936a:	f043 0320 	orr.w	r3, r3, #32
 800936e:	6023      	str	r3, [r4, #0]
 8009370:	e003      	b.n	800937a <_printf_i+0x86>
 8009372:	2975      	cmp	r1, #117	; 0x75
 8009374:	d017      	beq.n	80093a6 <_printf_i+0xb2>
 8009376:	2978      	cmp	r1, #120	; 0x78
 8009378:	d1d4      	bne.n	8009324 <_printf_i+0x30>
 800937a:	2378      	movs	r3, #120	; 0x78
 800937c:	f884 3045 	strb.w	r3, [r4, #69]	; 0x45
 8009380:	4864      	ldr	r0, [pc, #400]	; (8009514 <_printf_i+0x220>)
 8009382:	e055      	b.n	8009430 <_printf_i+0x13c>
 8009384:	6813      	ldr	r3, [r2, #0]
 8009386:	1d19      	adds	r1, r3, #4
 8009388:	681b      	ldr	r3, [r3, #0]
 800938a:	6011      	str	r1, [r2, #0]
 800938c:	f104 0542 	add.w	r5, r4, #66	; 0x42
 8009390:	f884 3042 	strb.w	r3, [r4, #66]	; 0x42
 8009394:	2301      	movs	r3, #1
 8009396:	e08c      	b.n	80094b2 <_printf_i+0x1be>
 8009398:	681b      	ldr	r3, [r3, #0]
 800939a:	6011      	str	r1, [r2, #0]
 800939c:	f010 0f40 	tst.w	r0, #64	; 0x40
 80093a0:	bf18      	it	ne
 80093a2:	b21b      	sxthne	r3, r3
 80093a4:	e7cf      	b.n	8009346 <_printf_i+0x52>
 80093a6:	6813      	ldr	r3, [r2, #0]
 80093a8:	6825      	ldr	r5, [r4, #0]
 80093aa:	1d18      	adds	r0, r3, #4
 80093ac:	6010      	str	r0, [r2, #0]
 80093ae:	0628      	lsls	r0, r5, #24
 80093b0:	d501      	bpl.n	80093b6 <_printf_i+0xc2>
 80093b2:	681b      	ldr	r3, [r3, #0]
 80093b4:	e002      	b.n	80093bc <_printf_i+0xc8>
 80093b6:	0668      	lsls	r0, r5, #25
 80093b8:	d5fb      	bpl.n	80093b2 <_printf_i+0xbe>
 80093ba:	881b      	ldrh	r3, [r3, #0]
 80093bc:	4854      	ldr	r0, [pc, #336]	; (8009510 <_printf_i+0x21c>)
 80093be:	296f      	cmp	r1, #111	; 0x6f
 80093c0:	bf14      	ite	ne
 80093c2:	220a      	movne	r2, #10
 80093c4:	2208      	moveq	r2, #8
 80093c6:	2100      	movs	r1, #0
 80093c8:	f884 1043 	strb.w	r1, [r4, #67]	; 0x43
 80093cc:	6865      	ldr	r5, [r4, #4]
 80093ce:	60a5      	str	r5, [r4, #8]
 80093d0:	2d00      	cmp	r5, #0
 80093d2:	f2c0 8095 	blt.w	8009500 <_printf_i+0x20c>
 80093d6:	6821      	ldr	r1, [r4, #0]
 80093d8:	f021 0104 	bic.w	r1, r1, #4
 80093dc:	6021      	str	r1, [r4, #0]
 80093de:	2b00      	cmp	r3, #0
 80093e0:	d13d      	bne.n	800945e <_printf_i+0x16a>
 80093e2:	2d00      	cmp	r5, #0
 80093e4:	f040 808e 	bne.w	8009504 <_printf_i+0x210>
 80093e8:	4665      	mov	r5, ip
 80093ea:	2a08      	cmp	r2, #8
 80093ec:	d10b      	bne.n	8009406 <_printf_i+0x112>
 80093ee:	6823      	ldr	r3, [r4, #0]
 80093f0:	07db      	lsls	r3, r3, #31
 80093f2:	d508      	bpl.n	8009406 <_printf_i+0x112>
 80093f4:	6923      	ldr	r3, [r4, #16]
 80093f6:	6862      	ldr	r2, [r4, #4]
 80093f8:	429a      	cmp	r2, r3
 80093fa:	bfde      	ittt	le
 80093fc:	2330      	movle	r3, #48	; 0x30
 80093fe:	f805 3c01 	strble.w	r3, [r5, #-1]
 8009402:	f105 35ff 	addle.w	r5, r5, #4294967295
 8009406:	ebac 0305 	sub.w	r3, ip, r5
 800940a:	6123      	str	r3, [r4, #16]
 800940c:	f8cd 8000 	str.w	r8, [sp]
 8009410:	463b      	mov	r3, r7
 8009412:	aa03      	add	r2, sp, #12
 8009414:	4621      	mov	r1, r4
 8009416:	4630      	mov	r0, r6
 8009418:	f7ff fef6 	bl	8009208 <_printf_common>
 800941c:	3001      	adds	r0, #1
 800941e:	d14d      	bne.n	80094bc <_printf_i+0x1c8>
 8009420:	f04f 30ff 	mov.w	r0, #4294967295
 8009424:	b005      	add	sp, #20
 8009426:	e8bd 83f0 	ldmia.w	sp!, {r4, r5, r6, r7, r8, r9, pc}
 800942a:	4839      	ldr	r0, [pc, #228]	; (8009510 <_printf_i+0x21c>)
 800942c:	f884 1045 	strb.w	r1, [r4, #69]	; 0x45
 8009430:	6813      	ldr	r3, [r2, #0]
 8009432:	6821      	ldr	r1, [r4, #0]
 8009434:	1d1d      	adds	r5, r3, #4
 8009436:	681b      	ldr	r3, [r3, #0]
 8009438:	6015      	str	r5, [r2, #0]
 800943a:	060a      	lsls	r2, r1, #24
 800943c:	d50b      	bpl.n	8009456 <_printf_i+0x162>
 800943e:	07ca      	lsls	r2, r1, #31
 8009440:	bf44      	itt	mi
 8009442:	f041 0120 	orrmi.w	r1, r1, #32
 8009446:	6021      	strmi	r1, [r4, #0]
 8009448:	b91b      	cbnz	r3, 8009452 <_printf_i+0x15e>
 800944a:	6822      	ldr	r2, [r4, #0]
 800944c:	f022 0220 	bic.w	r2, r2, #32
 8009450:	6022      	str	r2, [r4, #0]
 8009452:	2210      	movs	r2, #16
 8009454:	e7b7      	b.n	80093c6 <_printf_i+0xd2>
 8009456:	064d      	lsls	r5, r1, #25
 8009458:	bf48      	it	mi
 800945a:	b29b      	uxthmi	r3, r3
 800945c:	e7ef      	b.n	800943e <_printf_i+0x14a>
 800945e:	4665      	mov	r5, ip
 8009460:	fbb3 f1f2 	udiv	r1, r3, r2
 8009464:	fb02 3311 	mls	r3, r2, r1, r3
 8009468:	5cc3      	ldrb	r3, [r0, r3]
 800946a:	f805 3d01 	strb.w	r3, [r5, #-1]!
 800946e:	460b      	mov	r3, r1
 8009470:	2900      	cmp	r1, #0
 8009472:	d1f5      	bne.n	8009460 <_printf_i+0x16c>
 8009474:	e7b9      	b.n	80093ea <_printf_i+0xf6>
 8009476:	6813      	ldr	r3, [r2, #0]
 8009478:	6825      	ldr	r5, [r4, #0]
 800947a:	6961      	ldr	r1, [r4, #20]
 800947c:	1d18      	adds	r0, r3, #4
 800947e:	6010      	str	r0, [r2, #0]
 8009480:	0628      	lsls	r0, r5, #24
 8009482:	681b      	ldr	r3, [r3, #0]
 8009484:	d501      	bpl.n	800948a <_printf_i+0x196>
 8009486:	6019      	str	r1, [r3, #0]
 8009488:	e002      	b.n	8009490 <_printf_i+0x19c>
 800948a:	066a      	lsls	r2, r5, #25
 800948c:	d5fb      	bpl.n	8009486 <_printf_i+0x192>
 800948e:	8019      	strh	r1, [r3, #0]
 8009490:	2300      	movs	r3, #0
 8009492:	6123      	str	r3, [r4, #16]
 8009494:	4665      	mov	r5, ip
 8009496:	e7b9      	b.n	800940c <_printf_i+0x118>
 8009498:	6813      	ldr	r3, [r2, #0]
 800949a:	1d19      	adds	r1, r3, #4
 800949c:	6011      	str	r1, [r2, #0]
 800949e:	681d      	ldr	r5, [r3, #0]
 80094a0:	6862      	ldr	r2, [r4, #4]
 80094a2:	2100      	movs	r1, #0
 80094a4:	4628      	mov	r0, r5
 80094a6:	f7f6 feb3 	bl	8000210 <memchr>
 80094aa:	b108      	cbz	r0, 80094b0 <_printf_i+0x1bc>
 80094ac:	1b40      	subs	r0, r0, r5
 80094ae:	6060      	str	r0, [r4, #4]
 80094b0:	6863      	ldr	r3, [r4, #4]
 80094b2:	6123      	str	r3, [r4, #16]
 80094b4:	2300      	movs	r3, #0
 80094b6:	f884 3043 	strb.w	r3, [r4, #67]	; 0x43
 80094ba:	e7a7      	b.n	800940c <_printf_i+0x118>
 80094bc:	6923      	ldr	r3, [r4, #16]
 80094be:	462a      	mov	r2, r5
 80094c0:	4639      	mov	r1, r7
 80094c2:	4630      	mov	r0, r6
 80094c4:	47c0      	blx	r8
 80094c6:	3001      	adds	r0, #1
 80094c8:	d0aa      	beq.n	8009420 <_printf_i+0x12c>
 80094ca:	6823      	ldr	r3, [r4, #0]
 80094cc:	079b      	lsls	r3, r3, #30
 80094ce:	d413      	bmi.n	80094f8 <_printf_i+0x204>
 80094d0:	68e0      	ldr	r0, [r4, #12]
 80094d2:	9b03      	ldr	r3, [sp, #12]
 80094d4:	4298      	cmp	r0, r3
 80094d6:	bfb8      	it	lt
 80094d8:	4618      	movlt	r0, r3
 80094da:	e7a3      	b.n	8009424 <_printf_i+0x130>
 80094dc:	2301      	movs	r3, #1
 80094de:	464a      	mov	r2, r9
 80094e0:	4639      	mov	r1, r7
 80094e2:	4630      	mov	r0, r6
 80094e4:	47c0      	blx	r8
 80094e6:	3001      	adds	r0, #1
 80094e8:	d09a      	beq.n	8009420 <_printf_i+0x12c>
 80094ea:	3501      	adds	r5, #1
 80094ec:	68e3      	ldr	r3, [r4, #12]
 80094ee:	9a03      	ldr	r2, [sp, #12]
 80094f0:	1a9b      	subs	r3, r3, r2
 80094f2:	42ab      	cmp	r3, r5
 80094f4:	dcf2      	bgt.n	80094dc <_printf_i+0x1e8>
 80094f6:	e7eb      	b.n	80094d0 <_printf_i+0x1dc>
 80094f8:	2500      	movs	r5, #0
 80094fa:	f104 0919 	add.w	r9, r4, #25
 80094fe:	e7f5      	b.n	80094ec <_printf_i+0x1f8>
 8009500:	2b00      	cmp	r3, #0
 8009502:	d1ac      	bne.n	800945e <_printf_i+0x16a>
 8009504:	7803      	ldrb	r3, [r0, #0]
 8009506:	f884 3042 	strb.w	r3, [r4, #66]	; 0x42
 800950a:	f104 0542 	add.w	r5, r4, #66	; 0x42
 800950e:	e76c      	b.n	80093ea <_printf_i+0xf6>
 8009510:	08009d35 	.word	0x08009d35
 8009514:	08009d46 	.word	0x08009d46

08009518 <_sbrk_r>:
 8009518:	b538      	push	{r3, r4, r5, lr}
 800951a:	4c06      	ldr	r4, [pc, #24]	; (8009534 <_sbrk_r+0x1c>)
 800951c:	2300      	movs	r3, #0
 800951e:	4605      	mov	r5, r0
 8009520:	4608      	mov	r0, r1
 8009522:	6023      	str	r3, [r4, #0]
 8009524:	f7f7 fbca 	bl	8000cbc <_sbrk>
 8009528:	1c43      	adds	r3, r0, #1
 800952a:	d102      	bne.n	8009532 <_sbrk_r+0x1a>
 800952c:	6823      	ldr	r3, [r4, #0]
 800952e:	b103      	cbz	r3, 8009532 <_sbrk_r+0x1a>
 8009530:	602b      	str	r3, [r5, #0]
 8009532:	bd38      	pop	{r3, r4, r5, pc}
 8009534:	20000430 	.word	0x20000430

08009538 <__sread>:
 8009538:	b510      	push	{r4, lr}
 800953a:	460c      	mov	r4, r1
 800953c:	f9b1 100e 	ldrsh.w	r1, [r1, #14]
 8009540:	f000 f896 	bl	8009670 <_read_r>
 8009544:	2800      	cmp	r0, #0
 8009546:	bfab      	itete	ge
 8009548:	6d63      	ldrge	r3, [r4, #84]	; 0x54
 800954a:	89a3      	ldrhlt	r3, [r4, #12]
 800954c:	181b      	addge	r3, r3, r0
 800954e:	f423 5380 	biclt.w	r3, r3, #4096	; 0x1000
 8009552:	bfac      	ite	ge
 8009554:	6563      	strge	r3, [r4, #84]	; 0x54
 8009556:	81a3      	strhlt	r3, [r4, #12]
 8009558:	bd10      	pop	{r4, pc}

0800955a <__swrite>:
 800955a:	e92d 41f0 	stmdb	sp!, {r4, r5, r6, r7, r8, lr}
 800955e:	461f      	mov	r7, r3
 8009560:	898b      	ldrh	r3, [r1, #12]
 8009562:	05db      	lsls	r3, r3, #23
 8009564:	4605      	mov	r5, r0
 8009566:	460c      	mov	r4, r1
 8009568:	4616      	mov	r6, r2
 800956a:	d505      	bpl.n	8009578 <__swrite+0x1e>
 800956c:	2302      	movs	r3, #2
 800956e:	2200      	movs	r2, #0
 8009570:	f9b1 100e 	ldrsh.w	r1, [r1, #14]
 8009574:	f000 f868 	bl	8009648 <_lseek_r>
 8009578:	89a3      	ldrh	r3, [r4, #12]
 800957a:	f9b4 100e 	ldrsh.w	r1, [r4, #14]
 800957e:	f423 5380 	bic.w	r3, r3, #4096	; 0x1000
 8009582:	81a3      	strh	r3, [r4, #12]
 8009584:	4632      	mov	r2, r6
 8009586:	463b      	mov	r3, r7
 8009588:	4628      	mov	r0, r5
 800958a:	e8bd 41f0 	ldmia.w	sp!, {r4, r5, r6, r7, r8, lr}
 800958e:	f000 b817 	b.w	80095c0 <_write_r>

08009592 <__sseek>:
 8009592:	b510      	push	{r4, lr}
 8009594:	460c      	mov	r4, r1
 8009596:	f9b1 100e 	ldrsh.w	r1, [r1, #14]
 800959a:	f000 f855 	bl	8009648 <_lseek_r>
 800959e:	1c43      	adds	r3, r0, #1
 80095a0:	89a3      	ldrh	r3, [r4, #12]
 80095a2:	bf15      	itete	ne
 80095a4:	6560      	strne	r0, [r4, #84]	; 0x54
 80095a6:	f423 5380 	biceq.w	r3, r3, #4096	; 0x1000
 80095aa:	f443 5380 	orrne.w	r3, r3, #4096	; 0x1000
 80095ae:	81a3      	strheq	r3, [r4, #12]
 80095b0:	bf18      	it	ne
 80095b2:	81a3      	strhne	r3, [r4, #12]
 80095b4:	bd10      	pop	{r4, pc}

080095b6 <__sclose>:
 80095b6:	f9b1 100e 	ldrsh.w	r1, [r1, #14]
 80095ba:	f000 b813 	b.w	80095e4 <_close_r>
	...

080095c0 <_write_r>:
 80095c0:	b538      	push	{r3, r4, r5, lr}
 80095c2:	4c07      	ldr	r4, [pc, #28]	; (80095e0 <_write_r+0x20>)
 80095c4:	4605      	mov	r5, r0
 80095c6:	4608      	mov	r0, r1
 80095c8:	4611      	mov	r1, r2
 80095ca:	2200      	movs	r2, #0
 80095cc:	6022      	str	r2, [r4, #0]
 80095ce:	461a      	mov	r2, r3
 80095d0:	f7f7 fa8a 	bl	8000ae8 <_write>
 80095d4:	1c43      	adds	r3, r0, #1
 80095d6:	d102      	bne.n	80095de <_write_r+0x1e>
 80095d8:	6823      	ldr	r3, [r4, #0]
 80095da:	b103      	cbz	r3, 80095de <_write_r+0x1e>
 80095dc:	602b      	str	r3, [r5, #0]
 80095de:	bd38      	pop	{r3, r4, r5, pc}
 80095e0:	20000430 	.word	0x20000430

080095e4 <_close_r>:
 80095e4:	b538      	push	{r3, r4, r5, lr}
 80095e6:	4c06      	ldr	r4, [pc, #24]	; (8009600 <_close_r+0x1c>)
 80095e8:	2300      	movs	r3, #0
 80095ea:	4605      	mov	r5, r0
 80095ec:	4608      	mov	r0, r1
 80095ee:	6023      	str	r3, [r4, #0]
 80095f0:	f7f7 faa6 	bl	8000b40 <_close>
 80095f4:	1c43      	adds	r3, r0, #1
 80095f6:	d102      	bne.n	80095fe <_close_r+0x1a>
 80095f8:	6823      	ldr	r3, [r4, #0]
 80095fa:	b103      	cbz	r3, 80095fe <_close_r+0x1a>
 80095fc:	602b      	str	r3, [r5, #0]
 80095fe:	bd38      	pop	{r3, r4, r5, pc}
 8009600:	20000430 	.word	0x20000430

08009604 <_fstat_r>:
 8009604:	b538      	push	{r3, r4, r5, lr}
 8009606:	4c07      	ldr	r4, [pc, #28]	; (8009624 <_fstat_r+0x20>)
 8009608:	2300      	movs	r3, #0
 800960a:	4605      	mov	r5, r0
 800960c:	4608      	mov	r0, r1
 800960e:	4611      	mov	r1, r2
 8009610:	6023      	str	r3, [r4, #0]
 8009612:	f7f7 fae5 	bl	8000be0 <_fstat>
 8009616:	1c43      	adds	r3, r0, #1
 8009618:	d102      	bne.n	8009620 <_fstat_r+0x1c>
 800961a:	6823      	ldr	r3, [r4, #0]
 800961c:	b103      	cbz	r3, 8009620 <_fstat_r+0x1c>
 800961e:	602b      	str	r3, [r5, #0]
 8009620:	bd38      	pop	{r3, r4, r5, pc}
 8009622:	bf00      	nop
 8009624:	20000430 	.word	0x20000430

08009628 <_isatty_r>:
 8009628:	b538      	push	{r3, r4, r5, lr}
 800962a:	4c06      	ldr	r4, [pc, #24]	; (8009644 <_isatty_r+0x1c>)
 800962c:	2300      	movs	r3, #0
 800962e:	4605      	mov	r5, r0
 8009630:	4608      	mov	r0, r1
 8009632:	6023      	str	r3, [r4, #0]
 8009634:	f7f7 fa42 	bl	8000abc <_isatty>
 8009638:	1c43      	adds	r3, r0, #1
 800963a:	d102      	bne.n	8009642 <_isatty_r+0x1a>
 800963c:	6823      	ldr	r3, [r4, #0]
 800963e:	b103      	cbz	r3, 8009642 <_isatty_r+0x1a>
 8009640:	602b      	str	r3, [r5, #0]
 8009642:	bd38      	pop	{r3, r4, r5, pc}
 8009644:	20000430 	.word	0x20000430

08009648 <_lseek_r>:
 8009648:	b538      	push	{r3, r4, r5, lr}
 800964a:	4c07      	ldr	r4, [pc, #28]	; (8009668 <_lseek_r+0x20>)
 800964c:	4605      	mov	r5, r0
 800964e:	4608      	mov	r0, r1
 8009650:	4611      	mov	r1, r2
 8009652:	2200      	movs	r2, #0
 8009654:	6022      	str	r2, [r4, #0]
 8009656:	461a      	mov	r2, r3
 8009658:	f7f7 fa89 	bl	8000b6e <_lseek>
 800965c:	1c43      	adds	r3, r0, #1
 800965e:	d102      	bne.n	8009666 <_lseek_r+0x1e>
 8009660:	6823      	ldr	r3, [r4, #0]
 8009662:	b103      	cbz	r3, 8009666 <_lseek_r+0x1e>
 8009664:	602b      	str	r3, [r5, #0]
 8009666:	bd38      	pop	{r3, r4, r5, pc}
 8009668:	20000430 	.word	0x20000430

0800966c <__malloc_lock>:
 800966c:	4770      	bx	lr

0800966e <__malloc_unlock>:
 800966e:	4770      	bx	lr

08009670 <_read_r>:
 8009670:	b538      	push	{r3, r4, r5, lr}
 8009672:	4c07      	ldr	r4, [pc, #28]	; (8009690 <_read_r+0x20>)
 8009674:	4605      	mov	r5, r0
 8009676:	4608      	mov	r0, r1
 8009678:	4611      	mov	r1, r2
 800967a:	2200      	movs	r2, #0
 800967c:	6022      	str	r2, [r4, #0]
 800967e:	461a      	mov	r2, r3
 8009680:	f7f7 fa86 	bl	8000b90 <_read>
 8009684:	1c43      	adds	r3, r0, #1
 8009686:	d102      	bne.n	800968e <_read_r+0x1e>
 8009688:	6823      	ldr	r3, [r4, #0]
 800968a:	b103      	cbz	r3, 800968e <_read_r+0x1e>
 800968c:	602b      	str	r3, [r5, #0]
 800968e:	bd38      	pop	{r3, r4, r5, pc}
 8009690:	20000430 	.word	0x20000430

08009694 <_init>:
 8009694:	b5f8      	push	{r3, r4, r5, r6, r7, lr}
 8009696:	bf00      	nop
 8009698:	bcf8      	pop	{r3, r4, r5, r6, r7}
 800969a:	bc08      	pop	{r3}
 800969c:	469e      	mov	lr, r3
 800969e:	4770      	bx	lr

080096a0 <_fini>:
 80096a0:	b5f8      	push	{r3, r4, r5, r6, r7, lr}
 80096a2:	bf00      	nop
 80096a4:	bcf8      	pop	{r3, r4, r5, r6, r7}
 80096a6:	bc08      	pop	{r3}
 80096a8:	469e      	mov	lr, r3
 80096aa:	4770      	bx	lr
